(dp1
S'Chople Berry'
p2
S'Reduces damage from a super effective Fighting-type attack by 50%. Consumed after use.'
p3
sS'Magnet'
p4
S'Raises power of Electric-type moves 10%.'
p5
sS'Leppa Berry'
p6
S'Restores 10 PP to a move that has run out of PP. One-time use.'
p7
sS'Luminous Moss'
p8
S'Raises Special Defense by 1 stage if hit by a Water-type attack. Single use.'
p9
sS'Passho Berry'
p10
S'Reduces damage from a super effective Water-type attack by 50%. Consumed after use.'
p11
sS'Fire Gem'
p12
S'Raises the power of a Fire-type move by 50%. One-time use.'
p13
sS'Maranga Berry'
p14
S'Raises Special Defense by 1 stage if hit by a Special attack. Single use.'
p15
sS'Cheri Berry'
p16
S'Cures paralysis. One-time use.'
p17
sS'Banettite'
p18
S'Mega-evolves Banette.'
p19
sS'Jaboca Berry'
p20
S'If hit by a physical attack, the attacker takes 12.5% damage. One-time use.'
p21
sS'Destiny Knot'
p22
S'If the holder becomes infatuated, so does the enemy.'
p23
sS'Ganlon Berry'
p24
S'Raises Defense by one stage when at 25% HP or less. One-time use.'
p25
sS'Meadow Plate'
p26
S'Raises power of Grass-type moves 20%. Pokemon with Multitype become Grass-type.'
p27
sS'Choice Specs'
p28
S'Hold item which raises Special Attack by 50%, but locks holder into one move.'
p29
sS'Water Gem'
p30
S'Raises the power of a Water-type move by 50%. One-time use.'
p31
sS'Metal Coat'
p32
S'Raises power of Steel-type moves by 10%.'
p33
sS'Occa Berry'
p34
S'Reduces damage from a super effective Fire-type attack by 50%. Consumed after use.'
p35
sS'Lax Incense'
p36
S'Raises evasion by 5%.'
p37
sS'Rock Gem'
p38
S'Raises the power of a Rock-type move by 50%. One-time use.'
p39
sS'SilverPowder'
p40
S'Raises power of Bug-type moves by 10%.'
p41
sS'Rocky Helmet'
p42
S'Damages the opponent for 1/6 of max HP when the opponent makes contact.'
p43
sS'Wide Lens'
p44
S'Raises accuracy by 10%.'
p45
sS'Pink Bow'
p46
S'Raises power of Normal moves by 10%.'
p47
sS'Chesto Berry'
p48
S'Cures sleep. One-time use.'
p49
sS'Lum Berry'
p50
S'Cures status. One-time use.'
p51
sS'Sitrus Berry'
p52
S'Restores 1/4 of the max HP when at 1/2 HP or less. One-time use.'
p53
sS'BrightPowder'
p54
S'Raises evasion by 10%.'
p55
sS'Razor Fang'
p56
S'Certain moves have a 10% flinch rate.'
p57
sS'Figy Berry'
p58
S'Restores 1/8 max HP when at 50% HP or less. One-time use.'
p59
sS'Zoom Lens'
p60
S'Raises accuracy by 20% if the holder moves after the target.'
p61
sS'Spooky Plate'
p62
S'Raises power of Ghost-type moves by 20%. Pokemon with Multitype become Ghost-type.'
p63
sS'Iapapa Berry'
p64
S'Restores 1/8 of max HP when at 50% HP or less. One-time use.'
p65
sS'Kelpsy Berry'
p66
S'Pokeblock ingredient. Plant in loamy soil to grow a Kelpsy plant.'
p67
sS'Black Belt'
p68
S'Raises power of Fighting-type moves by 10%.'
p69
sS'Berry Juice'
p70
S'Restores 20 HP when at 50% HP or less. One-time use.'
p71
sS'Gengarite'
p72
S'Mega-evolves Gengar.'
p73
sS'Rindo Berry'
p74
S'Reduces damage from a super effective Grass-type attack by 50%. Consumed after use.'
p75
sS'Stone Plate'
p76
S'Raises base power of Rock-type moves by 20%. Pokemon with Multitype become Rock-type.'
p77
sS'Damp Rock'
p78
S'Rain Dance and Drizzle lasts 8 turns.'
p79
sS'Mental Herb'
p80
S'Cures infatuation. One-time use.'
p81
sS'Choice Band'
p82
S'Raises Attack by 50%, but locks the user into one move.'
p83
sS'Mewtwonite Y'
p84
S'Mega-evolves Mewtwo into Mega Mewtwo Y.'
p85
sS'Life Orb'
p86
S'Boosts power by 30%, user takes 10% recoil each turn it attacks.'
p87
sS'Babiri Berry'
p88
S'Reduces damage from a super effective Steel-type attack by 50%. Consumed after use.'
p89
sS'Garchompite'
p90
S'Mega-evolves Garchomp.'
p91
sS'Tyranitarite'
p92
S'Mega-evolves Tyranitar.'
p93
sS'Enigma Berry'
p94
S'Pokeblock ingredient. Restores 1/4 of the max HP when hit by a super effective move. One-time use.'
p95
sS'Griseous Orb'
p96
S"Raises the power of Giratina's STAB moves 20%. May only be held by Giratina, transforms Giratina into Giratina-O when held. Cannot be removed in battle."
p97
sS'Polka Dot Bow'
p98
S'Raises power of Normal moves by 12.5%.'
p99
sS'Oran Berry'
p100
S'Restores 10 HP when at 50% HP or less. One-time use.'
p101
sS'Quick Powder'
p102
S"Doubles Ditto's Speed."
p103
sS'Shuca Berry'
p104
S'Reduces damage from a super effective Ground-type attack by 50%. Consumed after use.'
p105
sS'Power Anklet'
p106
S'Reduces Speed by 50%. Grants 4 Speed EVs when the opponent is defeated. Passes down the Speed IV to its offspring in HGSS.'
p107
sS'Grip Claw'
p108
S'Partial trapping moves last 6 turns.'
p109
sS'Blazikenite'
p110
S'Mega-evolves Blaziken.'
p111
sS'Rock Incense'
p112
S'Raises power of Rock-type moves by 20%.'
p113
sS'DeepSeaScale'
p114
S"Doubles Clamperl's Special Defense."
p115
sS'Kangaskhanite'
p116
S'Mega-evolves Kangaskhan.'
p117
sS'Custap Berry'
p118
S'Activates at 25% HP. Next move used goes first. One-time use.'
p119
sS'Icicle Plate'
p120
S'Raises power of Ice-type moves 20%. Pokemon with Multitype become Ice-type.'
p121
sS'Pixie Plate'
p122
S"Holder's Fairy-type attacks have 1.2x power. Judgment is Fairy-type."
p123
sS'Ice Gem'
p124
S'Raises the power of a Ice-type move by 50%. One-time use.'
p125
sS'Burn Drive'
p126
S'Changes the type of Techno Blast to Fire.'
p127
sS'Zap Plate'
p128
S'Raises power of Electric moves by 20%. Pokemon with Multitype become Electric-type.'
p129
sS'Power Herb'
p130
S'Removes the charge up turn from all moves. One-time use.'
p131
sS'Flying Gem'
p132
S'Raises the power of a Flying-type move by 50%. One-time use.'
p133
sS'Psychic Gem'
p134
S'Raises the power of a Psychic-type move by 50%. One-time use.'
p135
sS'Venusaurite'
p136
S'Mega-evolves Venusaur.'
p137
sS'Charcoal'
p138
S'Raises power of Fire-type moves by 10%.'
p139
sS'Assault Vest'
p140
S"Holder's Sp. Def is 1.5x, but it can only use damaging moves."
p141
sS'Leftovers'
p142
S'Heals 1/16 of max HP each turn.'
p143
sS'Air Balloon'
p144
S'Makes the holder immune to Ground-type attacks. Disappears when holder is hit.'
p145
sS'BlackGlasses'
p146
S'Raises power of Dark-type moves by 10%.'
p147
sS'Heat Rock'
p148
S'Sunny Day and Drought lasts 8 turns.'
p149
sS'Scizorite'
p150
S'Mega-evolves Scizor.'
p151
sS'Mystic Water'
p152
S'Raises power of Water-type moves by 10%.'
p153
sS'Liechi Berry'
p154
S'Raises Attack by one stage when at 25% HP or less. One-time use.'
p155
sS'Snowball'
p156
S'Raises Attack by 1 stage if hit by an Ice-type attack. Single use.'
p157
sS'Shell Bell'
p158
S'Heals this Pokemon for 1/8 of the damage it does.'
p159
sS'Splash Plate'
p160
S'Raises power of Water-type moves by 20%. Pokemon with Multitype become Water-type.'
p161
sS'Sea Incense'
p162
S'Raises power of Water-type moves 5%.'
p163
sS'Kasib Berry'
p164
S'Reduces damage from a super effective Ghost-type attack by 50%. Consumed after use.'
p165
sS'NeverMeltIce'
p166
S'Raises power of Ice-type moves by 10%.'
p167
sS'Bitter Berry'
p168
S'Cures confusion. One-time use.'
p169
sS'Mewtwonite X'
p170
S'Mega-evolves Mewtwo into Mega Mewtwo X.'
p171
sS'Abomasite'
p172
S'Mega-evolves Abomasnow.'
p173
sS'Power Bracer'
p174
S'Reduces Speed by 50%. Grants 4 Attack EVs when the opponent is defeated. Passes down the Attack IV to its offspring in HGSS.'
p175
sS'Float Stone'
p176
S'The weight of the holder is halved.'
p177
sS'Toxic Orb'
p178
S'Badly poisons the holder.'
p179
sS'Rowap Berry'
p180
S'If hit by a special attack, the attacker takes 12.5% damage. One-time use.'
p181
sS'Petaya Berry'
p182
S'Raises Special Attack by one stage when at 25% HP or less. One-time use.'
p183
sS'Fighting Gem'
p184
S'Raises the power of a Fighting-type move by 50%. One-time use.'
p185
sS'Rose Incense'
p186
S'Raises power of Grass-type moves by 20%.'
p187
sS'Berry'
p188
S'Restores 10 HP when at 50% HP or less. One-time use.'
p189
sS'Tanga Berry'
p190
S'Reduces damage from a super effective Bug-type attack by 50%. Consumed after use.'
p191
sS'Roseli Berry'
p192
S'Halves damage taken from a super effective Fairy-type attack. Single use.'
p193
sS'Water Stone'
p194
S'Evolves Eevee, Poliwhirl, Shellder, and Staryu.'
p195
sS'Dread Plate'
p196
S"Raises power of the holder's Dark-type moves by 20%. Pokemon with Multitype become Dark-type."
p197
sS'Bug Gem'
p198
S'Raises the power of a Bug-type move by 50%. One-time use.'
p199
sS'Ground Gem'
p200
S'Raises the power of a Ground-type move by 50%. One-time use.'
p201
sS'Magmarizer'
p202
S'Evolves Magmar into Magmortar.'
p203
sS'Miracle Seed'
p204
S'Raises power of Grass-type moves by 10%.'
p205
sS'Smooth Rock'
p206
S'Makes Sandstorm and Sand Stream last 8 turns.'
p207
sS'Absorb Bulb'
p208
S'Boosts Special Attack of holder if hit by a Water-type attack. One-time use.'
p209
sS'Colbur Berry'
p210
S'Reduces damage from a super effective Dark-type attack by 50%. Consumed after use.'
p211
sS'Douse Drive'
p212
S'Changes the type of Techno Blast to Water.'
p213
sS'Weakness Policy'
p214
S'Attack and Special Attack sharply increase when hit super effectively. Single use.'
p215
sS'Wiki Berry'
p216
S'Restores 1/8 of max HP when at 50% of max HP or less. One-time use.'
p217
sS'Manectite'
p218
S'Mega-evolves Manectric.'
p219
sS'Pinsirite'
p220
S'Mega-evolves Pinsir.'
p221
sS'Steel Gem'
p222
S'Raises the power of a Steel-type move by 50%. One-time use.'
p223
sS'Iron Plate'
p224
S'Raises power of Steel-type moves by 20%. Pokemon with Multitype become Steel-type.'
p225
sS'Blastoisinite'
p226
S'Mega-evolves Blastoise.'
p227
sS'Black Sludge'
p228
S'Recovers 1/16 of max HP each turn for Poison-types. Damages all other types by 1/8 of max HP each turn.'
p229
sS'Alakazite'
p230
S'Mega-evolves Alakazam.'
p231
sS'Power Belt'
p232
S'Reduces Speed by 50%. Grants 4 Defense EVs when the opponent is defeated. Passes down the Defense IV to its offspring in HGSS.'
p233
sS'Hard Stone'
p234
S'Raises power of Rock-type moves by 10%.'
p235
sS'Macho Brace'
p236
S'Reduces Speed by 50%. Doubles EVs gained.'
p237
sS'Aerodactylite'
p238
S'Mega-evolves Aerodactyl.'
p239
sS'Rawst Berry'
p240
S'Cures burn. One-time use.'
p241
sS'Mind Plate'
p242
S'Raises power of Psychic-type moves by 20%. Pokemon with Multitype become Psychic-type.'
p243
sS'Flame Orb'
p244
S'Burns the holder.'
p245
sS'Power Band'
p246
S'Reduces Speed by 50%. Grants 4 Special Defense EVs when the opponent is defeated. Passes down the Special Defense IV to its offspring in HGSS.'
p247
sS'Aguav Berry'
p248
S'Restores 1/8 of max HP when at 50% HP or less. One-time use.'
p249
sS'Normal Gem'
p250
S'Raises the power of a Normal-type move by 50%. One-time use.'
p251
sS'Metal Powder'
p252
S"Raises Ditto's Defense and Special Defense by 50%."
p253
sS'Charizardite X'
p254
S'Mega-evolves Charizard into Mega Charizard X.'
p255
sS'Charizardite Y'
p256
S'Mega-evolves Charizard into Mega Charizard Y.'
p257
sS'Thick Club'
p258
S"Doubles Cubone's and Marowak's Attack."
p259
sS'Full Incense'
p260
S'Makes the holder move last.'
p261
sS'Heracronite'
p262
S'Mega-evolves Heracross.'
p263
sS'Mawilite'
p264
S'Mega-evolves Mawile.'
p265
sS'Scope Lens'
p266
S'Raises critical hit rate by one stage.'
p267
sS'DeepSeaTooth'
p268
S"Doubles Clamperl's Special Attack."
p269
sS'PSNCure Berry'
p270
S'Cures poison. One-time use.'
p271
sS'Grass Gem'
p272
S'Raises the power of a Grass-type move by 50%. One-time use.'
p273
sS'Stick'
p274
S"Raises Farfetch'd's critical hit ratio by two stages."
p275
sS"King's Rock"
p276
S'Moves recieve a 10% flinch chance, if they do not have one already.'
p277
sS'Lucarionite'
p278
S'Mega-evolves Lucario.'
p279
sS'Soft Sand'
p280
S'Raises power of Ground-type moves by 10%.'
p281
sS'Quick Claw'
p282
S'Gives the user a 23.4375% chance to go first.'
p283
sS'Gardevoirite'
p284
S'Mega-evolves Gardevoir.'
p285
sS'Spell Tag'
p286
S'Raises power of Ghost-type moves by 10%.'
p287
sS'Red Card'
p288
S'The opponent is forced out immediately if it attacks the holder. One-time use.'
p289
sS'Binding Band'
p290
S'Increases power of multi-turn trapping moves.'
p291
sS'Berserk Gene'
p292
S'Raises Attack, but causes confusion. One-time use.'
p293
sS'Ghost Gem'
p294
S'Raises the power of a Ghost-type move by 50%. One-time use.'
p295
sS'Starf Berry'
p296
S'Raises a stat by two stages when at 25% HP or less. One-time use.'
p297
sS'Icy Rock'
p298
S'Hail and Snow Warning lasts 8 turns.'
p299
sS'Eject Button'
p300
S'When the holder is hit, it immediately switches out. One-time use.'
p301
sS'Big Root'
p302
S'Increases HP gained from draining moves by 30%.'
p303
sS'Absolite'
p304
S'Mega-evolves Absol.'
p305
sS'Cleanse Tag'
p306
S'Decreases the appearance of wild Pokemon.'
p307
sS'Sky Plate'
p308
S'Raises power of Flying-type moves by 20%. Pokemon with Multitype become Flying-type.'
p309
sS'TwistedSpoon'
p310
S'Raises power of Psychic moves by 10%.'
p311
sS'Dark Glasses'
p312
S'A hold item that boosts Dark-type moves by 10%.'
p313
sS'Medichamite'
p314
S'Mega-evolves Medicham.'
p315
sS'Apicot Berry'
p316
S'Raises Special Defense by one stage when at 25% HP or less. One-time use.'
p317
sS'Lansat Berry'
p318
S'Raises critical hit rate by two stages when at 25% HP or less. One-time use.'
p319
sS'Chill Drive'
p320
S'Changes the type of Techno Blast to Ice.'
p321
sS'Power Lens'
p322
S"Reduces Speed by 50%. Grants 4 Special Attack EVs when the opponent is defeated. Passes down it's Special Attack IV to its offspring in HGSS."
p323
sS'Electric Gem'
p324
S'Raises the power of a Electric-type move by 50%. One-time use.'
p325
sS'Fist Plate'
p326
S'Raises power of Fighting-type moves 20%. Pokemon with Multitype become Fighting-type.'
p327
sS'Toxic Plate'
p328
S'Raises power of Poison-type moves by 20%. Pokemon with Multitype become Poison-type.'
p329
sS'Haban Berry'
p330
S'Reduces damage from a super effective Dragon-type attack by 50%. Consumed after use.'
p331
sS'Charti Berry'
p332
S'Reduces damage from a super effective Rock-type attack by 50%. Consumed after use.'
p333
sS'Gyaradosite'
p334
S'Mega-evolves Gyarados.'
p335
sS'Pecha Berry'
p336
S'Cures poison. One-time use.'
p337
sS'Houndoominite'
p338
S'Mega-evolves Houndoom.'
p339
sS'Mago Berry'
p340
S'Restores 1/8 max HP when at 50% HP or less. One-time use.'
p341
sS'Salac Berry'
p342
S'Raises Speed by one stage when at 25% HP or less. One-time use.'
p343
sS'Gold Berry'
p344
S'Restores 30 HP when at 50% HP or less. One-time use.'
p345
sS'Draco Plate'
p346
S'Raises power of Dragon-type moves by 20%. Pokemon with Multitype become Dragon-type.'
p347
sS'Dark Gem'
p348
S'Raises the power of a Dark-type move by 50%. One-time use.'
p349
sS'Shed Shell'
p350
S'Allows holder to switch out even when trapped.'
p351
sS'Earth Plate'
p352
S'Raises power of Ground-type moves by 20%. Pokemon with Multitype become Ground-type.'
p353
sS'Miracle Berry'
p354
S'Cures status. One-time use.'
p355
sS'Light Clay'
p356
S'Reflect and Light Screen last 8 turns.'
p357
sS'Muscle Band'
p358
S'Raises power of physical moves by 10%.'
p359
sS'Mail'
p360
S'Prevents Trick from working.'
p361
sS'Lucky Punch'
p362
S"Raises Chansey's critical hit ratio by two stages."
p363
sS'Safety Goggles'
p364
S'Protects the holder from weather-related damage and powder moves.'
p365
sS'Soul Dew'
p366
S'Raises Special Attack and Special Defense of Latias and Latios by 50%.'
p367
sS'Metronome'
p368
S'Boost the power of attacks used consecutively.'
p369
sS'Choice Scarf'
p370
S'Hold item which raises Speed by 50%, but locks holder into one move.'
p371
sS'Razor Claw'
p372
S'Raises critical hit rate by one stage.'
p373
sS'Poison Barb'
p374
S'Raises power of Poison-type moves by 10%.'
p375
sS'Flame Plate'
p376
S'Raises power of Fire-type moves 20%. Pokemon with Multitype become Fire-type.'
p377
sS'Wacan Berry'
p378
S'Reduces damage from a super effective Electric-type attack by 50%. Consumed after use.'
p379
sS'Insect Plate'
p380
S'Raises power of Bug-type moves by 20%. Pokemon with Multitype become Bug-type.'
p381
sS'Odd Incense'
p382
S'Raises power of Psychic-type moves by 20%.'
p383
sS'Mystery Berry'
p384
S'Restores 5 PP to a move that has run out of PP. One-time use.'
p385
sS'Kee Berry'
p386
S'Raises Defense by 1 stage if hit by a Physical attack. Single use.'
p387
sS'Mint Berry'
p388
S'Cures sleep. One-time use.'
p389
sS'Aspear Berry'
p390
S'Cures freeze. One-time use.'
p391
sS'Aggronite'
p392
S'Mega-evolves Aggron.'
p393
sS'Cell Battery'
p394
S'Boosts Attack of holder if hit by an Electric-type attack. One-time use.'
p395
sS'PRZCure Berry'
p396
S'Cures paralysis. One-time use.'
p397
sS'Ice Berry'
p398
S'Cures burn. One-time use.'
p399
sS'Eviolite'
p400
S'Boosts Defense and Special Defense of holder by 50% if it is an NFE Pokemon.'
p401
sS'Light Ball'
p402
S"Doubles Pikachu's Special Attack."
p403
sS'White Herb'
p404
S'Removes stat decreases. One-time use.'
p405
sS'Sticky Barb'
p406
S'Causes damage to holder and attaches to attacker upon contact.'
p407
sS'Iron Ball'
p408
S'Reduces Speed by 50%.'
p409
sS'Micle Berry'
p410
S'The next move used will always hit.'
p411
sS'Dragon Fang'
p412
S'Raises power of Dragon-type moves by 10%.'
p413
sS'Focus Sash'
p414
S'The holder always survives one attack. One-time use.'
p415
sS'Shock Drive'
p416
S'Changes the type of Techno Blast to Electric.'
p417
sS'Silk Scarf'
p418
S'Raises power of Normal-type moves by 10%.'
p419
sS'Expert Belt'
p420
S'Super effective attacks are 20% stronger.'
p421
sS'Lagging Tail'
p422
S'Makes the holder move last.'
p423
sS'Sharp Beak'
p424
S'Raises power of Flying-type moves 10%.'
p425
sS'Focus Band'
p426
S'Gives an 11.7% chance of surviving a hit with at least 1 HP.'
p427
sS'Persim Berry'
p428
S'Cures confusion. One-time use.'
p429
sS'Hard Rock'
p430
S'Raises power of Rock-type moves by 12.5%.'
p431
sS'Poison Gem'
p432
S'Raises the power of a Poison-type move by 50%. One-time use.'
p433
sS'Chilan Berry'
p434
S'Berry blended to make Pokeblocks.'
p435
sS'Power Weight'
p436
S'Reduces Speed by 50%. Grants 4 HP EVs when the opponent is defeated. Passes down HP IV to its offspring in HGSS.'
p437
sS'Adamant Orb'
p438
S"Hold item which raises power of Dialga's STAB moves by 20%."
p439
sS'Kebia Berry'
p440
S'Reduces damage from a super effective Poison-type attack by 50%. Consumed after use.'
p441
sS'Dragon Gem'
p442
S'Raises the power of a Dragon-type move by 50%. One-time use.'
p443
sS'Yache Berry'
p444
S'Reduces damage from a super effective Ice-type attack by 50%. Consumed after use.'
p445
sS'Wise Glasses'
p446
S'Raises damage from special moves by 10%.'
p447
sS'Wave Incense'
p448
S'Raises power of Water-type moves by 20%.'
p449
sS'Ampharosite'
p450
S'Mega-evolves Ampharos.'
p451
sS'Coba Berry'
p452
S'Reduces damage from a super effective Flying-type attack by 50%. Consumed after use.'
p453
sS'Lustrous Orb'
p454
S"Raises power of Palkia's STAB moves by 20%."
p455
sS'Payapa Berry'
p456
S'Reduces damage from a super effective Psychic-type attack by 50%. Consumed after use.'
p457
s.