(dp1
S'Detect'
p2
(ipokeStructs
Move
p3
(dp4
S'PP'
p5
I5
sS'Name'
p6
g2
sS'Power'
p7
NsS'Damage'
p8
S'-'
sS'Priority'
p9
I4
sS'Target'
p10
S'User'
p11
sS'Description'
p12
S'Prevents most moves from working on the user that turn.'
p13
sS'Type'
p14
S'Fighting'
p15
sS'Accuracy'
p16
NsbsS'Fissure'
p17
(ipokeStructs
Move
p18
(dp19
g5
I5
sg6
g17
sg7
F1
sg8
S'physical'
p20
sg9
I0
sg10
S'Single non-user'
p21
sg12
S'Will OHKO the target.'
p22
sg14
S'Ground'
p23
sg16
F30
sbsS'Petal Dance'
p24
(ipokeStructs
Move
p25
(dp26
g5
I10
sg6
g24
sg7
F120
sg8
S'special'
p27
sg9
I0
sg10
S'Random enemy'
p28
sg12
S'Lasts 2-3 turns and will confuse the user afterward.'
p29
sg14
S'Grass'
p30
sg16
F100
sbsS'Horn Attack'
p31
(ipokeStructs
Move
p32
(dp33
g5
I25
sg6
g31
sg7
F65
sg8
S'physical'
p34
sg9
I0
sg10
S'Single non-user'
p35
sg12
S'No additional effect.'
p36
sg14
S'Normal'
p37
sg16
F100
sbsS'Dragon Claw'
p38
(ipokeStructs
Move
p39
(dp40
g5
I15
sg6
g38
sg7
F80
sg8
S'physical'
p41
sg9
I0
sg10
S'Single non-user'
p42
sg12
S'No additional effect.'
p43
sg14
S'Dragon'
p44
sg16
F100
sbsS'Psyshock'
p45
(ipokeStructs
Move
p46
(dp47
g5
I10
sg6
g45
sg7
F80
sg8
S'special'
p48
sg9
I0
sg10
S'Single non-user'
p49
sg12
S"Damage is based on the target's Defense stat."
p50
sg14
S'Psychic'
p51
sg16
F100
sbsS'Bounce'
p52
(ipokeStructs
Move
p53
(dp54
g5
I5
sg6
g52
sg7
F85
sg8
S'physical'
p55
sg9
I0
sg10
S'Single non-user'
p56
sg12
S'User is made invulnerable for one turn, then hits the next turn. 30% chance to paralyze the target.'
p57
sg14
S'Flying'
p58
sg16
F85
sbsS'Power Whip'
p59
(ipokeStructs
Move
p60
(dp61
g5
I10
sg6
g59
sg7
F120
sg8
S'physical'
p62
sg9
I0
sg10
S'Single non-user'
p63
sg12
S'No additional effect.'
p64
sg14
S'Grass'
p65
sg16
F85
sbsS'Poison Fang'
p66
(ipokeStructs
Move
p67
(dp68
g5
I15
sg6
g66
sg7
F50
sg8
S'physical'
p69
sg9
I0
sg10
S'Single non-user'
p70
sg12
S'30% chance to badly poison the opponent.'
p71
sg14
S'Poison'
p72
sg16
F100
sbsS'Confuse Ray'
p73
(ipokeStructs
Move
p74
(dp75
g5
I10
sg6
g73
sg7
Nsg8
S'-'
sg9
I0
sg10
S'Single non-user'
p76
sg12
S'Confuses the target.'
p77
sg14
S'Ghost'
p78
sg16
F100
sbsS'Soak'
p79
(ipokeStructs
Move
p80
(dp81
g5
I20
sg6
g79
sg7
Nsg8
S'-'
sg9
I0
sg10
S'Single non-user'
p82
sg12
S"Changes the target's type to Water."
p83
sg14
S'Water'
p84
sg16
F100
sbsS'Brave Bird'
p85
(ipokeStructs
Move
p86
(dp87
g5
I15
sg6
g85
sg7
F120
sg8
S'physical'
p88
sg9
I0
sg10
S'Single non-user'
p89
sg12
S'Has 1/3 recoil damage.'
p90
sg14
S'Flying'
p91
sg16
F100
sbsS'Stomp'
p92
(ipokeStructs
Move
p93
(dp94
g5
I20
sg6
g92
sg7
F65
sg8
S'physical'
p95
sg9
I0
sg10
S'Single non-user'
p96
sg12
S'30% chance to flinch the target.'
p97
sg14
S'Normal'
p98
sg16
F100
sbsS'Quick Attack'
p99
(ipokeStructs
Move
p100
(dp101
g5
I30
sg6
g99
sg7
F40
sg8
S'physical'
p102
sg9
I1
sg10
S'Single non-user'
p103
sg12
S'The user always attacks first.'
p104
sg14
S'Normal'
p105
sg16
F100
sbsS'Razor Wind'
p106
(ipokeStructs
Move
p107
(dp108
g5
I10
sg6
g106
sg7
F80
sg8
S'special'
p109
sg9
I0
sg10
S'All enemies'
p110
sg12
S'Charges up the first turn; attacks on the second turn. Has a higher critical hit ratio.'
p111
sg14
S'Normal'
p112
sg16
F100
sbsS'Rock Polish'
p113
(ipokeStructs
Move
p114
(dp115
g5
I20
sg6
g113
sg7
Nsg8
S'-'
sg9
I0
sg10
S'User'
p116
sg12
S"Boosts user's Speed by 2 stages."
p117
sg14
S'Rock'
p118
sg16
NsbsS'Power Gem'
p119
(ipokeStructs
Move
p120
(dp121
g5
I20
sg6
g119
sg7
F70
sg8
S'special'
p122
sg9
I0
sg10
S'Single non-user'
p123
sg12
S'No additional effect.'
p124
sg14
S'Rock'
p125
sg16
F100
sbsS'Heal Bell'
p126
(ipokeStructs
Move
p127
(dp128
g5
I5
sg6
g126
sg7
Nsg8
S'-'
sg9
I0
sg10
S'User party'
p129
sg12
S'Cures status ailments on the user and other party members.'
p130
sg14
S'Normal'
p131
sg16
NsbsS'Psywave'
p132
(ipokeStructs
Move
p133
(dp134
g5
I15
sg6
g132
sg7
F1
sg8
S'special'
p135
sg9
I0
sg10
S'Single non-user'
p136
sg12
S"Does random damage equal to .5x-1.5x the user's level."
p137
sg14
S'Psychic'
p138
sg16
F80
sbsS'Shadow Claw'
p139
(ipokeStructs
Move
p140
(dp141
g5
I15
sg6
g139
sg7
F70
sg8
S'physical'
p142
sg9
I0
sg10
S'Single non-user'
p143
sg12
S'Has a high critical hit rate.'
p144
sg14
S'Ghost'
p145
sg16
F100
sbsS'Present'
p146
(ipokeStructs
Move
p147
(dp148
g5
I15
sg6
g146
sg7
F1
sg8
S'physical'
p149
sg9
I0
sg10
S'Single non-user'
p150
sg12
S'Does damage or heals 80 HP.'
p151
sg14
S'Normal'
p152
sg16
F90
sbsS'Gastro Acid'
p153
(ipokeStructs
Move
p154
(dp155
g5
I10
sg6
g153
sg7
Nsg8
S'-'
sg9
I0
sg10
S'Single non-user'
p156
sg12
S"Nullifies the target's ability."
p157
sg14
S'Poison'
p158
sg16
F100
sbsS'Sweet Kiss'
p159
(ipokeStructs
Move
p160
(dp161
g5
I10
sg6
g159
sg7
Nsg8
S'-'
sg9
I0
sg10
S'Single non-user'
p162
sg12
S'Confuses the target.'
p163
sg14
S'Normal'
p164
sg16
F75
sbsS'Refresh'
p165
(ipokeStructs
Move
p166
(dp167
g5
I20
sg6
g165
sg7
Nsg8
S'-'
sg9
I0
sg10
S'User'
p168
sg12
S'Removes status from the user.'
p169
sg14
S'Normal'
p170
sg16
NsbsS'Hypnosis'
p171
(ipokeStructs
Move
p172
(dp173
g5
I20
sg6
g171
sg7
Nsg8
S'-'
sg9
I0
sg10
S'Single non-user'
p174
sg12
S'Puts the target to sleep.'
p175
sg14
S'Psychic'
p176
sg16
F60
sbsS'Destiny Bond'
p177
(ipokeStructs
Move
p178
(dp179
g5
I5
sg6
g177
sg7
Nsg8
S'-'
sg9
I0
sg10
S'User'
p180
sg12
S'If the user faints, the foe faints.'
p181
sg14
S'Ghost'
p182
sg16
NsbsS'Rock Tomb'
p183
(ipokeStructs
Move
p184
(dp185
g5
I10
sg6
g183
sg7
F50
sg8
S'physical'
p186
sg9
I0
sg10
S'Single non-user'
p187
sg12
S"Lowers target's Speed by 1 stage."
p188
sg14
S'Rock'
p189
sg16
F80
sbsS'Trick Room'
p190
(ipokeStructs
Move
p191
(dp192
g5
I5
sg6
g190
sg7
Nsg8
S'-'
sg9
I-7
sg10
S'All'
p193
sg12
S'Slower Pokemon move first for 5 turns.'
p194
sg14
S'Psychic'
p195
sg16
NsbsS'Punishment'
p196
(ipokeStructs
Move
p197
(dp198
g5
I5
sg6
g196
sg7
F1
sg8
S'physical'
p199
sg9
I0
sg10
S'Single non-user'
p200
sg12
S'Does more damage to targets with stat boosts.'
p201
sg14
S'Dark'
p202
sg16
F100
sbsS'Rest'
p203
(ipokeStructs
Move
p204
(dp205
g5
I10
sg6
g203
sg7
Nsg8
S'-'
sg9
I0
sg10
S'User'
p206
sg12
S'The user goes to sleep for two turns and restores all HP.'
p207
sg14
S'Psychic'
p208
sg16
NsbsS'Frenzy Plant'
p209
(ipokeStructs
Move
p210
(dp211
g5
I5
sg6
g209
sg7
F150
sg8
S'special'
p212
sg9
I0
sg10
S'Single non-user'
p213
sg12
S'User cannot move next turn.'
p214
sg14
S'Grass'
p215
sg16
F90
sbsS'Magic Room'
p216
(ipokeStructs
Move
p217
(dp218
g5
I10
sg6
g216
sg7
Nsg8
S'-'
sg9
I-7
sg10
S'All'
p219
sg12
S'Held items have no effect for 5 turns.'
p220
sg14
S'Psychic'
p221
sg16
NsbsS'Endeavor'
p222
(ipokeStructs
Move
p223
(dp224
g5
I5
sg6
g222
sg7
F1
sg8
S'physical'
p225
sg9
I0
sg10
S'Single non-user'
p226
sg12
S"Lowers target's HP to match the user's HP."
p227
sg14
S'Normal'
p228
sg16
F100
sbsS'Bulldoze'
p229
(ipokeStructs
Move
p230
(dp231
g5
I20
sg6
g229
sg7
F60
sg8
S'physical'
p232
sg9
I0
sg10
S'All others'
p233
sg12
S"Lowers target's Speed by 1 stage."
p234
sg14
S'Ground'
p235
sg16
F100
sbsS'Attract'
p236
(ipokeStructs
Move
p237
(dp238
g5
I15
sg6
g236
sg7
Nsg8
S'-'
sg9
I0
sg10
S'Single non-user'
p239
sg12
S'Target of the opposite gender is infatuated and has a 50% chance to do nothing.'
p240
sg14
S'Normal'
p241
sg16
F100
sbsS'Stun Spore'
p242
(ipokeStructs
Move
p243
(dp244
g5
I30
sg6
g242
sg7
Nsg8
S'-'
sg9
I0
sg10
S'Single non-user'
p245
sg12
S'Paralyzes the target.'
p246
sg14
S'Grass'
p247
sg16
F75
sbsS'ThunderPunch'
p248
(ipokeStructs
Move
p249
(dp250
g5
I15
sg6
g248
sg7
F75
sg8
S'physical'
p251
sg9
I0
sg10
S'Single non-user'
p252
sg12
S'10% chance to paralyze the target.'
p253
sg14
S'Electric'
p254
sg16
F100
sbsS'Stealth Rock'
p255
(ipokeStructs
Move
p256
(dp257
g5
I20
sg6
g255
sg7
Nsg8
S'-'
sg9
I0
sg10
S'Enemy field'
p258
sg12
S'Causes damage to the enemy whenever they switch.'
p259
sg14
S'Rock'
p260
sg16
NsbsS'Nightmare'
p261
(ipokeStructs
Move
p262
(dp263
g5
I15
sg6
g261
sg7
Nsg8
S'-'
sg9
I0
sg10
S'Single non-user'
p264
sg12
S"Cuts 1/4 of the sleeping target's max HP per turn."
p265
sg14
S'Ghost'
p266
sg16
F100
sbsS'Metal Burst'
p267
(ipokeStructs
Move
p268
(dp269
g5
I10
sg6
g267
sg7
F1
sg8
S'physical'
p270
sg9
I0
sg10
S'None'
p271
sg12
S"Counters foe's attack with 1.5x damage."
p272
sg14
S'Steel'
p273
sg16
F100
sbsS'Gravity'
p274
(ipokeStructs
Move
p275
(dp276
g5
I5
sg6
g274
sg7
Nsg8
S'-'
sg9
I0
sg10
S'All'
p277
sg12
S'For 5 turns, prevents flying or jumping. Also negates Ground immunities.'
p278
sg14
S'Psychic'
p279
sg16
NsbsS'Metal Claw'
p280
(ipokeStructs
Move
p281
(dp282
g5
I35
sg6
g280
sg7
F50
sg8
S'physical'
p283
sg9
I0
sg10
S'Single non-user'
p284
sg12
S"10% chance to boosts user's Attack by 1 stage."
p285
sg14
S'Steel'
p286
sg16
F95
sbsS'Spacial Rend'
p287
(ipokeStructs
Move
p288
(dp289
g5
I5
sg6
g287
sg7
F100
sg8
S'special'
p290
sg9
I0
sg10
S'Single non-user'
p291
sg12
S'Has a high critical hit rate.'
p292
sg14
S'Dragon'
p293
sg16
F95
sbsS'Wake-Up Slap'
p294
(ipokeStructs
Move
p295
(dp296
g5
I10
sg6
g294
sg7
F60
sg8
S'physical'
p297
sg9
I0
sg10
S'Single non-user'
p298
sg12
S'If target is asleep, Base Power doubles, but the target wakes up.'
p299
sg14
S'Fighting'
p300
sg16
F100
sbsS'Smog'
p301
(ipokeStructs
Move
p302
(dp303
g5
I20
sg6
g301
sg7
F20
sg8
S'special'
p304
sg9
I0
sg10
S'Single non-user'
p305
sg12
S'40% chance to poison the target.'
p306
sg14
S'Poison'
p307
sg16
F70
sbsS'Energy Ball'
p308
(ipokeStructs
Move
p309
(dp310
g5
I10
sg6
g308
sg7
F80
sg8
S'special'
p311
sg9
I0
sg10
S'Single non-user'
p312
sg12
S"10% chance to lower target's Special Defense by 1 stage."
p313
sg14
S'Grass'
p314
sg16
F100
sbsS'Hyper Voice'
p315
(ipokeStructs
Move
p316
(dp317
g5
I10
sg6
g315
sg7
F90
sg8
S'special'
p318
sg9
I0
sg10
S'All enemies'
p319
sg12
S'No additional effect.'
p320
sg14
S'Normal'
p321
sg16
F100
sbsS'Scary Face'
p322
(ipokeStructs
Move
p323
(dp324
g5
I10
sg6
g322
sg7
Nsg8
S'-'
sg9
I0
sg10
S'Single non-user'
p325
sg12
S"Lowers target's Speed by 2 stages."
p326
sg14
S'Normal'
p327
sg16
F90
sbsS'Pluck'
p328
(ipokeStructs
Move
p329
(dp330
g5
I20
sg6
g328
sg7
F60
sg8
S'physical'
p331
sg9
I0
sg10
S'Single non-user'
p332
sg12
S"User steals the effect of the target's Berry."
p333
sg14
S'Flying'
p334
sg16
F100
sbsS'Barrage'
p335
(ipokeStructs
Move
p336
(dp337
g5
I20
sg6
g335
sg7
F15
sg8
S'physical'
p338
sg9
I0
sg10
S'Single non-user'
p339
sg12
S'Hits 2-5 times in one turn.'
p340
sg14
S'Normal'
p341
sg16
F85
sbsS'Techno Blast'
p342
(ipokeStructs
Move
p343
(dp344
g5
I5
sg6
g342
sg7
F85
sg8
S'special'
p345
sg9
I0
sg10
S'Single non-user'
p346
sg12
S'Type will change depending on the type of Drive.'
p347
sg14
S'Normal'
p348
sg16
F100
sbsS'Dark Void'
p349
(ipokeStructs
Move
p350
(dp351
g5
I10
sg6
g349
sg7
Nsg8
S'-'
sg9
I0
sg10
S'All enemies'
p352
sg12
S'Puts the target to sleep.'
p353
sg14
S'Dark'
p354
sg16
F80
sbsS'Swift'
p355
(ipokeStructs
Move
p356
(dp357
g5
I20
sg6
g355
sg7
F60
sg8
S'special'
p358
sg9
I0
sg10
S'All enemies'
p359
sg12
S'Ignores evasion modifiers.'
p360
sg14
S'Normal'
p361
sg16
NsbsS'Dark Pulse'
p362
(ipokeStructs
Move
p363
(dp364
g5
I15
sg6
g362
sg7
F80
sg8
S'special'
p365
sg9
I0
sg10
S'Single non-user'
p366
sg12
S'20% chance to flinch the target.'
p367
sg14
S'Dark'
p368
sg16
F100
sbsS'Octazooka'
p369
(ipokeStructs
Move
p370
(dp371
g5
I10
sg6
g369
sg7
F65
sg8
S'special'
p372
sg9
I0
sg10
S'Single non-user'
p373
sg12
S"50% chance to lower target's accuracy by 1 stage."
p374
sg14
S'Water'
p375
sg16
F85
sbsS'Thunder Wave'
p376
(ipokeStructs
Move
p377
(dp378
g5
I20
sg6
g376
sg7
Nsg8
S'-'
sg9
I0
sg10
S'Single non-user'
p379
sg12
S'Paralyzes the target.'
p380
sg14
S'Electric'
p381
sg16
F100
sbsS'Body Slam'
p382
(ipokeStructs
Move
p383
(dp384
g5
I15
sg6
g382
sg7
F85
sg8
S'physical'
p385
sg9
I0
sg10
S'Single non-user'
p386
sg12
S'30% chance to paralyze the target.'
p387
sg14
S'Normal'
p388
sg16
F100
sbsS'Heavy Slam'
p389
(ipokeStructs
Move
p390
(dp391
g5
I10
sg6
g389
sg7
F1
sg8
S'physical'
p392
sg9
I0
sg10
S'Single non-user'
p393
sg12
S"Deals damage based on both the user's and the target's weight."
p394
sg14
S'Steel'
p395
sg16
F100
sbsS'Mega Kick'
p396
(ipokeStructs
Move
p397
(dp398
g5
I5
sg6
g396
sg7
F120
sg8
S'physical'
p399
sg9
I0
sg10
S'Single non-user'
p400
sg12
S'No additional effect.'
p401
sg14
S'Normal'
p402
sg16
F75
sbsS'Thrash'
p403
(ipokeStructs
Move
p404
(dp405
g5
I10
sg6
g403
sg7
F120
sg8
S'physical'
p406
sg9
I0
sg10
S'Random enemy'
p407
sg12
S'Lasts 2-3 turns and will confuse the user afterward.'
p408
sg14
S'Normal'
p409
sg16
F100
sbsS'Flame Burst'
p410
(ipokeStructs
Move
p411
(dp412
g5
I15
sg6
g410
sg7
F70
sg8
S'special'
p413
sg9
I0
sg10
S'Single non-user'
p414
sg12
S'Damages Pokemon next to the target as well.'
p415
sg14
S'Fire'
p416
sg16
F100
sbsS'FeatherDance'
p417
(ipokeStructs
Move
p418
(dp419
g5
I15
sg6
g417
sg7
Nsg8
S'-'
sg9
I0
sg10
S'Single non-user'
p420
sg12
S"Lowers target's Attack by 2 stages."
p421
sg14
S'Flying'
p422
sg16
F100
sbsS'Roar of Time'
p423
(ipokeStructs
Move
p424
(dp425
g5
I5
sg6
g423
sg7
F150
sg8
S'special'
p426
sg9
I0
sg10
S'Single non-user'
p427
sg12
S'User cannot move next turn.'
p428
sg14
S'Dragon'
p429
sg16
F90
sbsS'V-create'
p430
(ipokeStructs
Move
p431
(dp432
g5
I5
sg6
g430
sg7
F180
sg8
S'physical'
p433
sg9
I0
sg10
S'Single non-user'
p434
sg12
S"Lowers user's Defense, Special Defense, and Speed by 1 stage."
p435
sg14
S'Fire'
p436
sg16
F95
sbsS'Aerial Ace'
p437
(ipokeStructs
Move
p438
(dp439
g5
I20
sg6
g437
sg7
F60
sg8
S'physical'
p440
sg9
I0
sg10
S'Single non-user'
p441
sg12
S'Ignores evasion modifiers.'
p442
sg14
S'Flying'
p443
sg16
NsbsS'Morning Sun'
p444
(ipokeStructs
Move
p445
(dp446
g5
I5
sg6
g444
sg7
Nsg8
S'-'
sg9
I0
sg10
S'User'
p447
sg12
S'Heals user variably depending on the weather.'
p448
sg14
S'Normal'
p449
sg16
NsbsS'Hail'
p450
(ipokeStructs
Move
p451
(dp452
g5
I10
sg6
g450
sg7
Nsg8
S'-'
sg9
I0
sg10
S'All'
p453
sg12
S'Summons hail for 5 turns.'
p454
sg14
S'Ice'
p455
sg16
NsbsS'Heat Crash'
p456
(ipokeStructs
Move
p457
(dp458
g5
I10
sg6
g456
sg7
F1
sg8
S'physical'
p459
sg9
I0
sg10
S'Single non-user'
p460
sg12
S"Deals damage based on both the user's and the target's weight."
p461
sg14
S'Fire'
p462
sg16
F100
sbsS'Poison Sting'
p463
(ipokeStructs
Move
p464
(dp465
g5
I35
sg6
g463
sg7
F15
sg8
S'physical'
p466
sg9
I0
sg10
S'Single non-user'
p467
sg12
S'30% chance to poison opponent.'
p468
sg14
S'Poison'
p469
sg16
F100
sbsS'Poison Jab'
p470
(ipokeStructs
Move
p471
(dp472
g5
I20
sg6
g470
sg7
F80
sg8
S'physical'
p473
sg9
I0
sg10
S'Single non-user'
p474
sg12
S'30% chance to poison opponent.'
p475
sg14
S'Poison'
p476
sg16
F100
sbsS'Shift Gear'
p477
(ipokeStructs
Move
p478
(dp479
g5
I10
sg6
g477
sg7
Nsg8
S'-'
sg9
I0
sg10
S'User'
p480
sg12
S'Boosts Speed by 2 stages and Attack by 1 stage.'
p481
sg14
S'Steel'
p482
sg16
NsbsS'Power Split'
p483
(ipokeStructs
Move
p484
(dp485
g5
I10
sg6
g483
sg7
Nsg8
S'-'
sg9
I0
sg10
S'Single non-user'
p486
sg12
S'Averages Attack and Special Attack with the target.'
p487
sg14
S'Psychic'
p488
sg16
NsbsS'Leer'
p489
(ipokeStructs
Move
p490
(dp491
g5
I30
sg6
g489
sg7
Nsg8
S'-'
sg9
I0
sg10
S'All enemies'
p492
sg12
S"Lowers target's Defense by 1 stage."
p493
sg14
S'Normal'
p494
sg16
F100
sbsS'Spite'
p495
(ipokeStructs
Move
p496
(dp497
g5
I10
sg6
g495
sg7
Nsg8
S'-'
sg9
I0
sg10
S'Single non-user'
p498
sg12
S'Lowers the PP of the move used last by 4.'
p499
sg14
S'Ghost'
p500
sg16
F100
sbsS'Focus Energy'
p501
(ipokeStructs
Move
p502
(dp503
g5
I30
sg6
g501
sg7
Nsg8
S'-'
sg9
I0
sg10
S'User'
p504
sg12
S'Boosts critical hit rate by two stages.'
p505
sg14
S'Normal'
p506
sg16
NsbsS'Captivate'
p507
(ipokeStructs
Move
p508
(dp509
g5
I20
sg6
g507
sg7
Nsg8
S'-'
sg9
I0
sg10
S'All enemies'
p510
sg12
S"Lowers an opposite gender target's Special Attack by 2 stages."
p511
sg14
S'Normal'
p512
sg16
F100
sbsS'Volt Switch'
p513
(ipokeStructs
Move
p514
(dp515
g5
I20
sg6
g513
sg7
F70
sg8
S'special'
p516
sg9
I0
sg10
S'Single non-user'
p517
sg12
S'Forces user to switch.'
p518
sg14
S'Electric'
p519
sg16
F100
sbsS'Rapid Spin'
p520
(ipokeStructs
Move
p521
(dp522
g5
I40
sg6
g520
sg7
F20
sg8
S'physical'
p523
sg9
I0
sg10
S'Single non-user'
p524
sg12
S"Removes Leech Seed, Spikes, Stealth Rock, and Toxic Spikes on user's side of the field."
p525
sg14
S'Normal'
p526
sg16
F100
sbsS'Inferno'
p527
(ipokeStructs
Move
p528
(dp529
g5
I5
sg6
g527
sg7
F100
sg8
S'special'
p530
sg9
I0
sg10
S'Single non-user'
p531
sg12
S'Burns the target.'
p532
sg14
S'Fire'
p533
sg16
F50
sbsS'Sleep Talk'
p534
(ipokeStructs
Move
p535
(dp536
g5
I10
sg6
g534
sg7
Nsg8
S'-'
sg9
I0
sg10
S'User'
p537
sg12
S"Picks one of the user's moves at random. Can only be used while sleeping."
p538
sg14
S'Normal'
p539
sg16
NsbsS'Milk Drink'
p540
(ipokeStructs
Move
p541
(dp542
g5
I10
sg6
g540
sg7
Nsg8
S'-'
sg9
I0
sg10
S'User'
p543
sg12
S"Heals 50% of the user's max HP."
p544
sg14
S'Normal'
p545
sg16
NsbsS'Guard Swap'
p546
(ipokeStructs
Move
p547
(dp548
g5
I10
sg6
g546
sg7
Nsg8
S'-'
sg9
I0
sg10
S'Single non-user'
p549
sg12
S"Swaps user's Defense and Special Defense stages with the target."
p550
sg14
S'Psychic'
p551
sg16
NsbsS'PoisonPowder'
p552
(ipokeStructs
Move
p553
(dp554
g5
I35
sg6
g552
sg7
Nsg8
S'-'
sg9
I0
sg10
S'Single non-user'
p555
sg12
S'Poisons the target.'
p556
sg14
S'Poison'
p557
sg16
F75
sbsS'Dragon Tail'
p558
(ipokeStructs
Move
p559
(dp560
g5
I10
sg6
g558
sg7
F60
sg8
S'physical'
p561
sg9
I-6
sg10
S'Single non-user'
p562
sg12
S'Forces the target to switch to a random Pokemon.'
p563
sg14
S'Dragon'
p564
sg16
F90
sbsS'Acid Armor'
p565
(ipokeStructs
Move
p566
(dp567
g5
I40
sg6
g565
sg7
Nsg8
S'-'
sg9
I0
sg10
S'User'
p568
sg12
S"Boosts user's Defense by 2 stages."
p569
sg14
S'Poison'
p570
sg16
NsbsS'Flare Blitz'
p571
(ipokeStructs
Move
p572
(dp573
g5
I15
sg6
g571
sg7
F120
sg8
S'physical'
p574
sg9
I0
sg10
S'Single non-user'
p575
sg12
S'Has 1/3 recoil. 10% chance to burn the target. Thaws user.'
p576
sg14
S'Fire'
p577
sg16
F100
sbsS'Jump Kick'
p578
(ipokeStructs
Move
p579
(dp580
g5
I10
sg6
g578
sg7
F100
sg8
S'physical'
p581
sg9
I0
sg10
S'Single non-user'
p582
sg12
S'User takes 50% recoil if attack misses.'
p583
sg14
S'Fighting'
p584
sg16
F95
sbsS'Supersonic'
p585
(ipokeStructs
Move
p586
(dp587
g5
I20
sg6
g585
sg7
Nsg8
S'-'
sg9
I0
sg10
S'Single non-user'
p588
sg12
S'Confuses the target.'
p589
sg14
S'Normal'
p590
sg16
F55
sbsS'Sand-Attack'
p591
(ipokeStructs
Move
p592
(dp593
g5
I15
sg6
g591
sg7
Nsg8
S'-'
sg9
I0
sg10
S'Single non-user'
p594
sg12
S"Lowers target's accuracy by 1 stage."
p595
sg14
S'Ground'
p596
sg16
F100
sbsS'Dream Eater'
p597
(ipokeStructs
Move
p598
(dp599
g5
I15
sg6
g597
sg7
F100
sg8
S'special'
p600
sg9
I0
sg10
S'Single non-user'
p601
sg12
S'Leeches 50% of the damage dealt. Only works if target is asleep.'
p602
sg14
S'Psychic'
p603
sg16
F100
sbsS'Fire Punch'
p604
(ipokeStructs
Move
p605
(dp606
g5
I15
sg6
g604
sg7
F75
sg8
S'physical'
p607
sg9
I0
sg10
S'Single non-user'
p608
sg12
S'10% chance to burn opponent.'
p609
sg14
S'Fire'
p610
sg16
F100
sbsS'Draco Meteor'
p611
(ipokeStructs
Move
p612
(dp613
g5
I5
sg6
g611
sg7
F140
sg8
S'special'
p614
sg9
I0
sg10
S'Single non-user'
p615
sg12
S"Lowers user's Special Attack by 2 stages."
p616
sg14
S'Dragon'
p617
sg16
F90
sbsS'Rain Dance'
p618
(ipokeStructs
Move
p619
(dp620
g5
I5
sg6
g618
sg7
Nsg8
S'-'
sg9
I0
sg10
S'All'
p621
sg12
S'Summons rain for five turns.'
p622
sg14
S'Water'
p623
sg16
NsbsS'Shadow Punch'
p624
(ipokeStructs
Move
p625
(dp626
g5
I20
sg6
g624
sg7
F60
sg8
S'physical'
p627
sg9
I0
sg10
S'Single non-user'
p628
sg12
S'Ignores evasion modifiers.'
p629
sg14
S'Ghost'
p630
sg16
NsbsS'Drill Peck'
p631
(ipokeStructs
Move
p632
(dp633
g5
I20
sg6
g631
sg7
F80
sg8
S'physical'
p634
sg9
I0
sg10
S'Single non-user'
p635
sg12
S'No additional effect.'
p636
sg14
S'Flying'
p637
sg16
F100
sbsS'Whirlwind'
p638
(ipokeStructs
Move
p639
(dp640
g5
I20
sg6
g638
sg7
Nsg8
S'-'
sg9
I-6
sg10
S'Single non-user'
p641
sg12
S'Forces the target to switch to a random Pokemon.'
p642
sg14
S'Normal'
p643
sg16
F100
sbsS'Dizzy Punch'
p644
(ipokeStructs
Move
p645
(dp646
g5
I10
sg6
g644
sg7
F70
sg8
S'physical'
p647
sg9
I0
sg10
S'Single non-user'
p648
sg12
S'20% chance to confuse opponent.'
p649
sg14
S'Normal'
p650
sg16
F100
sbsS'Blizzard'
p651
(ipokeStructs
Move
p652
(dp653
g5
I5
sg6
g651
sg7
F120
sg8
S'special'
p654
sg9
I0
sg10
S'All enemies'
p655
sg12
S'10% chance to freeze the target.'
p656
sg14
S'Ice'
p657
sg16
F70
sbsS'Flatter'
p658
(ipokeStructs
Move
p659
(dp660
g5
I15
sg6
g658
sg7
Nsg8
S'-'
sg9
I0
sg10
S'Single non-user'
p661
sg12
S"Confuses the target. Boosts the target's Special Attack by 1 stage."
p662
sg14
S'Dark'
p663
sg16
F100
sbsS'SolarBeam'
p664
(ipokeStructs
Move
p665
(dp666
g5
I10
sg6
g664
sg7
F120
sg8
S'special'
p667
sg9
I0
sg10
S'Single non-user'
p668
sg12
S'Charges up turn 1; attacks on turn 2.'
p669
sg14
S'Grass'
p670
sg16
F100
sbsS'Torment'
p671
(ipokeStructs
Move
p672
(dp673
g5
I15
sg6
g671
sg7
Nsg8
S'-'
sg9
I0
sg10
S'Single non-user'
p674
sg12
S'Forces the target to change moves.'
p675
sg14
S'Dark'
p676
sg16
F100
sbsS'Night Slash'
p677
(ipokeStructs
Move
p678
(dp679
g5
I15
sg6
g677
sg7
F70
sg8
S'physical'
p680
sg9
I0
sg10
S'Single non-user'
p681
sg12
S'Has a high critical hit rate.'
p682
sg14
S'Dark'
p683
sg16
F100
sbsS'Wrap'
p684
(ipokeStructs
Move
p685
(dp686
g5
I20
sg6
g684
sg7
F15
sg8
S'physical'
p687
sg9
I0
sg10
S'Single non-user'
p688
sg12
S'Traps and damages the target for 4-5 turns.'
p689
sg14
S'Normal'
p690
sg16
F90
sbsS'Aura Sphere'
p691
(ipokeStructs
Move
p692
(dp693
g5
I20
sg6
g691
sg7
F90
sg8
S'special'
p694
sg9
I0
sg10
S'Single non-user'
p695
sg12
S'Ignores evasion modifiers.'
p696
sg14
S'Fighting'
p697
sg16
NsbsS'Twineedle'
p698
(ipokeStructs
Move
p699
(dp700
g5
I20
sg6
g698
sg7
F25
sg8
S'physical'
p701
sg9
I0
sg10
S'Single non-user'
p702
sg12
S'Hits 2 times with a 20% chance to poison the target each time.'
p703
sg14
S'Bug'
p704
sg16
F100
sbsS'Heart Swap'
p705
(ipokeStructs
Move
p706
(dp707
g5
I10
sg6
g705
sg7
Nsg8
S'-'
sg9
I0
sg10
S'Single non-user'
p708
sg12
S"Switches user's stat changes with target's."
p709
sg14
S'Psychic'
p710
sg16
NsbsS'Leaf Tornado'
p711
(ipokeStructs
Move
p712
(dp713
g5
I10
sg6
g711
sg7
F65
sg8
S'special'
p714
sg9
I0
sg10
S'Single non-user'
p715
sg12
S"50% chance to lower target's accuracy by 1 stage."
p716
sg14
S'Grass'
p717
sg16
F90
sbsS'Aurora Beam'
p718
(ipokeStructs
Move
p719
(dp720
g5
I20
sg6
g718
sg7
F65
sg8
S'special'
p721
sg9
I0
sg10
S'Single non-user'
p722
sg12
S"10% chance to lower target's Attack by 1 stage."
p723
sg14
S'Ice'
p724
sg16
F100
sbsS'Muddy Water'
p725
(ipokeStructs
Move
p726
(dp727
g5
I10
sg6
g725
sg7
F95
sg8
S'special'
p728
sg9
I0
sg10
S'All enemies'
p729
sg12
S"30% chance to lower target's accuracy by 1 stage."
p730
sg14
S'Water'
p731
sg16
F85
sbsS'Hurricane'
p732
(ipokeStructs
Move
p733
(dp734
g5
I10
sg6
g732
sg7
F120
sg8
S'special'
p735
sg9
I0
sg10
S'Single non-user'
p736
sg12
S'30% chance to confuse the target.'
p737
sg14
S'Flying'
p738
sg16
F70
sbsS'Twister'
p739
(ipokeStructs
Move
p740
(dp741
g5
I20
sg6
g739
sg7
F40
sg8
S'special'
p742
sg9
I0
sg10
S'All enemies'
p743
sg12
S'20% chance to flinch the target.'
p744
sg14
S'Dragon'
p745
sg16
F100
sbsS'Fiery Dance'
p746
(ipokeStructs
Move
p747
(dp748
g5
I10
sg6
g746
sg7
F80
sg8
S'special'
p749
sg9
I0
sg10
S'Single non-user'
p750
sg12
S"50% chance to boost user's Special Attack by 1 stage."
p751
sg14
S'Fire'
p752
sg16
F100
sbsS'Extrasensory'
p753
(ipokeStructs
Move
p754
(dp755
g5
I30
sg6
g753
sg7
F80
sg8
S'special'
p756
sg9
I0
sg10
S'Single non-user'
p757
sg12
S'10% chance to flinch the target.'
p758
sg14
S'Psychic'
p759
sg16
F100
sbsS'Needle Arm'
p760
(ipokeStructs
Move
p761
(dp762
g5
I15
sg6
g760
sg7
F60
sg8
S'physical'
p763
sg9
I0
sg10
S'Single non-user'
p764
sg12
S'30% chance to flinch the target.'
p765
sg14
S'Grass'
p766
sg16
F100
sbsS'Minimize'
p767
(ipokeStructs
Move
p768
(dp769
g5
I20
sg6
g767
sg7
Nsg8
S'-'
sg9
I0
sg10
S'User'
p770
sg12
S'Boosts evasion by 2 stages.'
p771
sg14
S'Normal'
p772
sg16
NsbsS'Brick Break'
p773
(ipokeStructs
Move
p774
(dp775
g5
I15
sg6
g773
sg7
F75
sg8
S'physical'
p776
sg9
I0
sg10
S'Single non-user'
p777
sg12
S'Destroys Light Screen and Reflect, then hits. Does not break screens if the target is immune.'
p778
sg14
S'Fighting'
p779
sg16
F100
sbsS'Magical Leaf'
p780
(ipokeStructs
Move
p781
(dp782
g5
I20
sg6
g780
sg7
F60
sg8
S'special'
p783
sg9
I0
sg10
S'Single non-user'
p784
sg12
S'Ignores evasion modifiers.'
p785
sg14
S'Grass'
p786
sg16
NsbsS'Spark'
p787
(ipokeStructs
Move
p788
(dp789
g5
I20
sg6
g787
sg7
F65
sg8
S'physical'
p790
sg9
I0
sg10
S'Single non-user'
p791
sg12
S'30% chance to paralyze the target.'
p792
sg14
S'Electric'
p793
sg16
F100
sbsS'Memento'
p794
(ipokeStructs
Move
p795
(dp796
g5
I10
sg6
g794
sg7
Nsg8
S'-'
sg9
I0
sg10
S'Single non-user'
p797
sg12
S"User faints. Lowers target's Attack and Special Attack by 2 stages."
p798
sg14
S'Dark'
p799
sg16
F100
sbsS'Night Daze'
p800
(ipokeStructs
Move
p801
(dp802
g5
I10
sg6
g800
sg7
F85
sg8
S'special'
p803
sg9
I0
sg10
S'Single non-user'
p804
sg12
S"40% chance to lower target's accuracy by 1 stage."
p805
sg14
S'Dark'
p806
sg16
F95
sbsS'Mean Look'
p807
(ipokeStructs
Move
p808
(dp809
g5
I5
sg6
g807
sg7
Nsg8
S'-'
sg9
I0
sg10
S'Single non-user'
p810
sg12
S'The target cannot switch out.'
p811
sg14
S'Normal'
p812
sg16
NsbsS'Force Palm'
p813
(ipokeStructs
Move
p814
(dp815
g5
I10
sg6
g813
sg7
F60
sg8
S'physical'
p816
sg9
I0
sg10
S'Single non-user'
p817
sg12
S'30% chance to paralyze opponent.'
p818
sg14
S'Fighting'
p819
sg16
F100
sbsS'ThunderShock'
p820
(ipokeStructs
Move
p821
(dp822
g5
I30
sg6
g820
sg7
F40
sg8
S'special'
p823
sg9
I0
sg10
S'Single non-user'
p824
sg12
S'10% chance to paralyze the target.'
p825
sg14
S'Electric'
p826
sg16
F100
sbsS'Zap Cannon'
p827
(ipokeStructs
Move
p828
(dp829
g5
I5
sg6
g827
sg7
F120
sg8
S'special'
p830
sg9
I0
sg10
S'Single non-user'
p831
sg12
S'Paralyzes the target.'
p832
sg14
S'Electric'
p833
sg16
F50
sbsS'Double Team'
p834
(ipokeStructs
Move
p835
(dp836
g5
I15
sg6
g834
sg7
Nsg8
S'-'
sg9
I0
sg10
S'User'
p837
sg12
S'Boosts evasion by 1 stage.'
p838
sg14
S'Normal'
p839
sg16
NsbsS'Constrict'
p840
(ipokeStructs
Move
p841
(dp842
g5
I35
sg6
g840
sg7
F10
sg8
S'physical'
p843
sg9
I0
sg10
S'Single non-user'
p844
sg12
S"10% chance to lower target's Speed by 1 stage."
p845
sg14
S'Normal'
p846
sg16
F100
sbsS'Double-Edge'
p847
(ipokeStructs
Move
p848
(dp849
g5
I15
sg6
g847
sg7
F120
sg8
S'physical'
p850
sg9
I0
sg10
S'Single non-user'
p851
sg12
S'Has 1/3 recoil.'
p852
sg14
S'Normal'
p853
sg16
F100
sbsS'Future Sight'
p854
(ipokeStructs
Move
p855
(dp856
g5
I10
sg6
g854
sg7
F100
sg8
S'special'
p857
sg9
I0
sg10
S'Single non-user'
p858
sg12
S'Deals damage at the end of the turn after three turns.'
p859
sg14
S'Psychic'
p860
sg16
F100
sbsS'Ominous Wind'
p861
(ipokeStructs
Move
p862
(dp863
g5
I5
sg6
g861
sg7
F60
sg8
S'special'
p864
sg9
I0
sg10
S'Single non-user'
p865
sg12
S"10% chance to boost all of the user's stats by 1 stage."
p866
sg14
S'Ghost'
p867
sg16
F100
sbsS'Pay Day'
p868
(ipokeStructs
Move
p869
(dp870
g5
I20
sg6
g868
sg7
F40
sg8
S'physical'
p871
sg9
I0
sg10
S'Single non-user'
p872
sg12
S'Scatters coins.'
p873
sg14
S'Normal'
p874
sg16
F100
sbsS'After You'
p875
(ipokeStructs
Move
p876
(dp877
g5
I15
sg6
g875
sg7
Nsg8
S'-'
sg9
I0
sg10
S'Single non-user'
p878
sg12
S'The target will attack immediately after the user in the same turn.'
p879
sg14
S'Normal'
p880
sg16
NsbsS'Facade'
p881
(ipokeStructs
Move
p882
(dp883
g5
I20
sg6
g881
sg7
F70
sg8
S'physical'
p884
sg9
I0
sg10
S'Single non-user'
p885
sg12
S'Has 140 power when user is burned, paralyzed, or poisoned.'
p886
sg14
S'Normal'
p887
sg16
F100
sbsS'Shadow Force'
p888
(ipokeStructs
Move
p889
(dp890
g5
I5
sg6
g888
sg7
F120
sg8
S'physical'
p891
sg9
I0
sg10
S'Single non-user'
p892
sg12
S'User becomes invulnerable, then attacks the next turn. Nullifies Detect and Protect.'
p893
sg14
S'Ghost'
p894
sg16
F100
sbsS'Teleport'
p895
(ipokeStructs
Move
p896
(dp897
g5
I20
sg6
g895
sg7
Nsg8
S'-'
sg9
I0
sg10
S'User'
p898
sg12
S'Flee from wild Pokemon battles.'
p899
sg14
S'Psychic'
p900
sg16
NsbsS'Copycat'
p901
(ipokeStructs
Move
p902
(dp903
g5
I20
sg6
g901
sg7
Nsg8
S'-'
sg9
I0
sg10
S'User'
p904
sg12
S'Uses the last move used in the battle.'
p905
sg14
S'Normal'
p906
sg16
NsbsS'Mud Shot'
p907
(ipokeStructs
Move
p908
(dp909
g5
I15
sg6
g907
sg7
F55
sg8
S'special'
p910
sg9
I0
sg10
S'Single non-user'
p911
sg12
S"Lowers target's Speed by 1 stage."
p912
sg14
S'Ground'
p913
sg16
F95
sbsS'Tailwind'
p914
(ipokeStructs
Move
p915
(dp916
g5
I30
sg6
g914
sg7
Nsg8
S'-'
sg9
I0
sg10
S'User party'
p917
sg12
S"Doubles Speed of the user's party for 4 turns."
p918
sg14
S'Flying'
p919
sg16
NsbsS'Cross Poison'
p920
(ipokeStructs
Move
p921
(dp922
g5
I20
sg6
g920
sg7
F70
sg8
S'physical'
p923
sg9
I0
sg10
S'Single non-user'
p924
sg12
S'Has a higher critical hit ratio. 10% chance to poison the foe.'
p925
sg14
S'Poison'
p926
sg16
F100
sbsS'Haze'
p927
(ipokeStructs
Move
p928
(dp929
g5
I30
sg6
g927
sg7
Nsg8
S'-'
sg9
I0
sg10
S'All'
p930
sg12
S'Eliminates all stat changes.'
p931
sg14
S'Ice'
p932
sg16
NsbsS'Strength'
p933
(ipokeStructs
Move
p934
(dp935
g5
I15
sg6
g933
sg7
F80
sg8
S'physical'
p936
sg9
I0
sg10
S'Single non-user'
p937
sg12
S'No additional effect.'
p938
sg14
S'Normal'
p939
sg16
F100
sbsS'SmokeScreen'
p940
(ipokeStructs
Move
p941
(dp942
g5
I20
sg6
g940
sg7
Nsg8
S'-'
sg9
I0
sg10
S'Single non-user'
p943
sg12
S"Lowers target's accuracy by 1 stage."
p944
sg14
S'Normal'
p945
sg16
F100
sbsS'Amnesia'
p946
(ipokeStructs
Move
p947
(dp948
g5
I20
sg6
g946
sg7
Nsg8
S'-'
sg9
I0
sg10
S'User'
p949
sg12
S"Boosts user's Special Defense by 2 stages."
p950
sg14
S'Psychic'
p951
sg16
NsbsS'Clear Smog'
p952
(ipokeStructs
Move
p953
(dp954
g5
I15
sg6
g952
sg7
F50
sg8
S'special'
p955
sg9
I0
sg10
S'Single non-user'
p956
sg12
S'Eliminates all stat changes.'
p957
sg14
S'Poison'
p958
sg16
NsbsS'Water Spout'
p959
(ipokeStructs
Move
p960
(dp961
g5
I5
sg6
g959
sg7
F150
sg8
S'special'
p962
sg9
I0
sg10
S'All enemies'
p963
sg12
S"Does less damage as the user's HP decreases."
p964
sg14
S'Water'
p965
sg16
F100
sbsS'Synthesis'
p966
(ipokeStructs
Move
p967
(dp968
g5
I5
sg6
g966
sg7
Nsg8
S'-'
sg9
I0
sg10
S'User'
p969
sg12
S'Restores health based on the weather.'
p970
sg14
S'Grass'
p971
sg16
NsbsS'Fire Blast'
p972
(ipokeStructs
Move
p973
(dp974
g5
I5
sg6
g972
sg7
F120
sg8
S'special'
p975
sg9
I0
sg10
S'Single non-user'
p976
sg12
S'10% chance to burn opponent.'
p977
sg14
S'Fire'
p978
sg16
F85
sbsS'Leaf Blade'
p979
(ipokeStructs
Move
p980
(dp981
g5
I15
sg6
g979
sg7
F90
sg8
S'physical'
p982
sg9
I0
sg10
S'Single non-user'
p983
sg12
S'Has a high critical hit rate.'
p984
sg14
S'Grass'
p985
sg16
F100
sbsS'Skull Bash'
p986
(ipokeStructs
Move
p987
(dp988
g5
I15
sg6
g986
sg7
F100
sg8
S'physical'
p989
sg9
I0
sg10
S'Single non-user'
p990
sg12
S"Charges up turn one; attacks turn two. Boosts user's Defense by 1 stage."
p991
sg14
S'Normal'
p992
sg16
F100
sbsS'Absorb'
p993
(ipokeStructs
Move
p994
(dp995
g5
I25
sg6
g993
sg7
F20
sg8
S'special'
p996
sg9
I0
sg10
S'Single non-user'
p997
sg12
S'Leeches 50% of the damage dealt.'
p998
sg14
S'Grass'
p999
sg16
F100
sbsS'Assist'
p1000
(ipokeStructs
Move
p1001
(dp1002
g5
I20
sg6
g1000
sg7
Nsg8
S'-'
sg9
I0
sg10
S'User'
p1003
sg12
S"Uses a random move from the user's team."
p1004
sg14
S'Normal'
p1005
sg16
NsbsS'Final Gambit'
p1006
(ipokeStructs
Move
p1007
(dp1008
g5
I5
sg6
g1006
sg7
F1
sg8
S'special'
p1009
sg9
I0
sg10
S'Single non-user'
p1010
sg12
S"Faints the user. Target takes damage equal to the user's HP at the time of use."
p1011
sg14
S'Fighting'
p1012
sg16
F100
sbsS'Sacred Sword'
p1013
(ipokeStructs
Move
p1014
(dp1015
g5
I20
sg6
g1013
sg7
F90
sg8
S'physical'
p1016
sg9
I0
sg10
S'Single non-user'
p1017
sg12
S"Ignores the target's stat changes."
p1018
sg14
S'Fighting'
p1019
sg16
F100
sbsS'Snarl'
p1020
(ipokeStructs
Move
p1021
(dp1022
g5
I15
sg6
g1020
sg7
F55
sg8
S'special'
p1023
sg9
I0
sg10
S'All enemies'
p1024
sg12
S"Lowers target's Special Attack by 1 stage."
p1025
sg14
S'Dark'
p1026
sg16
F95
sbsS'Fury Swipes'
p1027
(ipokeStructs
Move
p1028
(dp1029
g5
I15
sg6
g1027
sg7
F18
sg8
S'physical'
p1030
sg9
I0
sg10
S'Single non-user'
p1031
sg12
S'Hits 2-5 times in one turn.'
p1032
sg14
S'Normal'
p1033
sg16
F80
sbsS'Sing'
p1034
(ipokeStructs
Move
p1035
(dp1036
g5
I15
sg6
g1034
sg7
Nsg8
S'-'
sg9
I0
sg10
S'Single non-user'
p1037
sg12
S'Puts the target to sleep.'
p1038
sg14
S'Normal'
p1039
sg16
F55
sbsS'Focus Blast'
p1040
(ipokeStructs
Move
p1041
(dp1042
g5
I5
sg6
g1040
sg7
F120
sg8
S'special'
p1043
sg9
I0
sg10
S'Single non-user'
p1044
sg12
S"10% chance to lower target's Special Defense by 1 stage."
p1045
sg14
S'Fighting'
p1046
sg16
F70
sbsS'Calm Mind'
p1047
(ipokeStructs
Move
p1048
(dp1049
g5
I20
sg6
g1047
sg7
Nsg8
S'-'
sg9
I0
sg10
S'User'
p1050
sg12
S"Boosts user's Special Attack and Special Defense by 1 stage."
p1051
sg14
S'Psychic'
p1052
sg16
NsbsS'Hone Claws'
p1053
(ipokeStructs
Move
p1054
(dp1055
g5
I15
sg6
g1053
sg7
Nsg8
S'-'
sg9
I0
sg10
S'User'
p1056
sg12
S'Boosts Attack and accuracy one stage.'
p1057
sg14
S'Dark'
p1058
sg16
NsbsS'Metal Sound'
p1059
(ipokeStructs
Move
p1060
(dp1061
g5
I40
sg6
g1059
sg7
Nsg8
S'-'
sg9
I0
sg10
S'Single non-user'
p1062
sg12
S"Lowers target's Special Defense by 2 stages."
p1063
sg14
S'Steel'
p1064
sg16
F85
sbsS'Snore'
p1065
(ipokeStructs
Move
p1066
(dp1067
g5
I15
sg6
g1065
sg7
F40
sg8
S'special'
p1068
sg9
I0
sg10
S'Single non-user'
p1069
sg12
S'Can only be used while user is sleeping. 30% chance to flinch the target.'
p1070
sg14
S'Normal'
p1071
sg16
F100
sbsS'Close Combat'
p1072
(ipokeStructs
Move
p1073
(dp1074
g5
I5
sg6
g1072
sg7
F120
sg8
S'physical'
p1075
sg9
I0
sg10
S'Single non-user'
p1076
sg12
S"Lowers user's Defense and Special Defense by 1 stage."
p1077
sg14
S'Fighting'
p1078
sg16
F100
sbsS'Fury Attack'
p1079
(ipokeStructs
Move
p1080
(dp1081
g5
I20
sg6
g1079
sg7
F15
sg8
S'physical'
p1082
sg9
I0
sg10
S'Single non-user'
p1083
sg12
S'Hits 2-5 times in one turn.'
p1084
sg14
S'Normal'
p1085
sg16
F85
sbsS'Air Cutter'
p1086
(ipokeStructs
Move
p1087
(dp1088
g5
I25
sg6
g1086
sg7
F55
sg8
S'special'
p1089
sg9
I0
sg10
S'All enemies'
p1090
sg12
S'Has a high critical hit rate.'
p1091
sg14
S'Flying'
p1092
sg16
F95
sbsS'Blaze Kick'
p1093
(ipokeStructs
Move
p1094
(dp1095
g5
I10
sg6
g1093
sg7
F85
sg8
S'physical'
p1096
sg9
I0
sg10
S'Single non-user'
p1097
sg12
S'Has a high critical hit rate. 10% chance to burn the target.'
p1098
sg14
S'Fire'
p1099
sg16
F90
sbsS'Work Up'
p1100
(ipokeStructs
Move
p1101
(dp1102
g5
I30
sg6
g1100
sg7
Nsg8
S'-'
sg9
I0
sg10
S'User'
p1103
sg12
S"Boosts user's Attack and Special Attack by 1 stage."
p1104
sg14
S'Normal'
p1105
sg16
NsbsS'Fake Tears'
p1106
(ipokeStructs
Move
p1107
(dp1108
g5
I20
sg6
g1106
sg7
Nsg8
S'-'
sg9
I0
sg10
S'Single non-user'
p1109
sg12
S"Lowers target's Special Defense by 2 stages."
p1110
sg14
S'Dark'
p1111
sg16
F100
sbsS'SonicBoom'
p1112
(ipokeStructs
Move
p1113
(dp1114
g5
I20
sg6
g1112
sg7
F1
sg8
S'special'
p1115
sg9
I0
sg10
S'Single non-user'
p1116
sg12
S'Does 20 HP damage. Ghosts are immune.'
p1117
sg14
S'Normal'
p1118
sg16
F90
sbsS'Iron Tail'
p1119
(ipokeStructs
Move
p1120
(dp1121
g5
I15
sg6
g1119
sg7
F100
sg8
S'physical'
p1122
sg9
I0
sg10
S'Single non-user'
p1123
sg12
S"30% chance to lower target's Defense by 1 stage."
p1124
sg14
S'Steel'
p1125
sg16
F75
sbsS'Spore'
p1126
(ipokeStructs
Move
p1127
(dp1128
g5
I15
sg6
g1126
sg7
Nsg8
S'-'
sg9
I0
sg10
S'Single non-user'
p1129
sg12
S'Puts the target to sleep.'
p1130
sg14
S'Grass'
p1131
sg16
F100
sbsS'Leech Seed'
p1132
(ipokeStructs
Move
p1133
(dp1134
g5
I10
sg6
g1132
sg7
Nsg8
S'-'
sg9
I0
sg10
S'Single non-user'
p1135
sg12
S"Leeches 1/8 target's max HP each turn."
p1136
sg14
S'Grass'
p1137
sg16
F90
sbsS'Nasty Plot'
p1138
(ipokeStructs
Move
p1139
(dp1140
g5
I20
sg6
g1138
sg7
Nsg8
S'-'
sg9
I0
sg10
S'User'
p1141
sg12
S"Boosts user's Special Attack by 2 stages."
p1142
sg14
S'Dark'
p1143
sg16
NsbsS'Crush Claw'
p1144
(ipokeStructs
Move
p1145
(dp1146
g5
I10
sg6
g1144
sg7
F75
sg8
S'physical'
p1147
sg9
I0
sg10
S'Single non-user'
p1148
sg12
S"50% chance to lower target's Defense by 1 stage."
p1149
sg14
S'Normal'
p1150
sg16
F95
sbsS'Foul Play'
p1151
(ipokeStructs
Move
p1152
(dp1153
g5
I15
sg6
g1151
sg7
F95
sg8
S'physical'
p1154
sg9
I0
sg10
S'Single non-user'
p1155
sg12
S"Uses the target's Attack stat in damage calculation."
p1156
sg14
S'Dark'
p1157
sg16
F100
sbsS'Wring Out'
p1158
(ipokeStructs
Move
p1159
(dp1160
g5
I5
sg6
g1158
sg7
F1
sg8
S'special'
p1161
sg9
I0
sg10
S'Single non-user'
p1162
sg12
S"Base Power depends on the target's remaining HP."
p1163
sg14
S'Normal'
p1164
sg16
F100
sbsS'Curse'
p1165
(ipokeStructs
Move
p1166
(dp1167
g5
I10
sg6
g1165
sg7
Nsg8
S'-'
sg9
I0
sg10
S'None'
p1168
sg12
S"Deals 1/4 damage per turn at the cost of half the user's max HP if the user is a Ghost-type Pokemon. Boosts user's Attack and Defense and lowers Speed by 1 stage otherwise."
p1169
sg14
S'Ghost'
p1170
sg16
NsbsS'Guard Split'
p1171
(ipokeStructs
Move
p1172
(dp1173
g5
I10
sg6
g1171
sg7
Nsg8
S'-'
sg9
I0
sg10
S'Single non-user'
p1174
sg12
S'Averages Defense and Special Defense stats of the user with the target.'
p1175
sg14
S'Psychic'
p1176
sg16
NsbsS'Chip Away'
p1177
(ipokeStructs
Move
p1178
(dp1179
g5
I20
sg6
g1177
sg7
F70
sg8
S'physical'
p1180
sg9
I0
sg10
S'Single non-user'
p1181
sg12
S"Ignores the target's stat changes."
p1182
sg14
S'Normal'
p1183
sg16
F100
sbsS'Mega Punch'
p1184
(ipokeStructs
Move
p1185
(dp1186
g5
I20
sg6
g1184
sg7
F80
sg8
S'physical'
p1187
sg9
I0
sg10
S'Single non-user'
p1188
sg12
S'No additional effect.'
p1189
sg14
S'Normal'
p1190
sg16
F85
sbsS'Wide Guard'
p1191
(ipokeStructs
Move
p1192
(dp1193
g5
I10
sg6
g1191
sg7
Nsg8
S'-'
sg9
I3
sg10
S'User party'
p1194
sg12
S'Protects user and allies from multi-target attacks.'
p1195
sg14
S'Rock'
p1196
sg16
NsbsS'Bulk Up'
p1197
(ipokeStructs
Move
p1198
(dp1199
g5
I20
sg6
g1197
sg7
Nsg8
S'-'
sg9
I0
sg10
S'User'
p1200
sg12
S"Boosts user's Attack and Defense by 1 stage."
p1201
sg14
S'Fighting'
p1202
sg16
NsbsS'Conversion 2'
p1203
(ipokeStructs
Move
p1204
(dp1205
g5
I30
sg6
g1203
sg7
Nsg8
S'-'
sg9
I0
sg10
S'Single non-user'
p1206
sg12
S'Changes user into a new type that resists the last attack to hit the user.'
p1207
sg14
S'Normal'
p1208
sg16
NsbsS'Vital Throw'
p1209
(ipokeStructs
Move
p1210
(dp1211
g5
I10
sg6
g1209
sg7
F70
sg8
S'physical'
p1212
sg9
I-1
sg10
S'Single non-user'
p1213
sg12
S'Ignores evasion modifiers.'
p1214
sg14
S'Fighting'
p1215
sg16
NsbsS'Bubble'
p1216
(ipokeStructs
Move
p1217
(dp1218
g5
I30
sg6
g1216
sg7
F20
sg8
S'special'
p1219
sg9
I0
sg10
S'All enemies'
p1220
sg12
S"10% chance to lower target's Speed by 1 stage."
p1221
sg14
S'Water'
p1222
sg16
F100
sbsS'Flamethrower'
p1223
(ipokeStructs
Move
p1224
(dp1225
g5
I15
sg6
g1223
sg7
F95
sg8
S'special'
p1226
sg9
I0
sg10
S'Single non-user'
p1227
sg12
S'10% chance to burn opponent.'
p1228
sg14
S'Fire'
p1229
sg16
F100
sbsS'DynamicPunch'
p1230
(ipokeStructs
Move
p1231
(dp1232
g5
I5
sg6
g1230
sg7
F100
sg8
S'physical'
p1233
sg9
I0
sg10
S'Single non-user'
p1234
sg12
S'Confuses the target.'
p1235
sg14
S'Fighting'
p1236
sg16
F50
sbsS'Spit Up'
p1237
(ipokeStructs
Move
p1238
(dp1239
g5
I10
sg6
g1237
sg7
F1
sg8
S'special'
p1240
sg9
I0
sg10
S'Single non-user'
p1241
sg12
S'Varies in power depending on the number of uses of Stockpile.'
p1242
sg14
S'Normal'
p1243
sg16
F100
sbsS'Flame Wheel'
p1244
(ipokeStructs
Move
p1245
(dp1246
g5
I25
sg6
g1244
sg7
F60
sg8
S'physical'
p1247
sg9
I0
sg10
S'Single non-user'
p1248
sg12
S'10% chance to burn opponent. Thaws the user.'
p1249
sg14
S'Fire'
p1250
sg16
F100
sbsS'Sweet Scent'
p1251
(ipokeStructs
Move
p1252
(dp1253
g5
I20
sg6
g1251
sg7
Nsg8
S'-'
sg9
I0
sg10
S'All enemies'
p1254
sg12
S"Lowers the target's evasiveness by 1 stage."
p1255
sg14
S'Normal'
p1256
sg16
F100
sbsS'Reflect Type'
p1257
(ipokeStructs
Move
p1258
(dp1259
g5
I15
sg6
g1257
sg7
Nsg8
S'-'
sg9
I0
sg10
S'Single non-user'
p1260
sg12
S'User becomes the same type as the target.'
p1261
sg14
S'Normal'
p1262
sg16
NsbsS'Icicle Spear'
p1263
(ipokeStructs
Move
p1264
(dp1265
g5
I30
sg6
g1263
sg7
F25
sg8
S'physical'
p1266
sg9
I0
sg10
S'Single non-user'
p1267
sg12
S'Hits 2-5 times in one turn.'
p1268
sg14
S'Ice'
p1269
sg16
F100
sbsS'Meditate'
p1270
(ipokeStructs
Move
p1271
(dp1272
g5
I40
sg6
g1270
sg7
Nsg8
S'-'
sg9
I0
sg10
S'User'
p1273
sg12
S"Boosts user's Attack by 1 stage."
p1274
sg14
S'Psychic'
p1275
sg16
NsbsS'Drain Punch'
p1276
(ipokeStructs
Move
p1277
(dp1278
g5
I10
sg6
g1276
sg7
F75
sg8
S'physical'
p1279
sg9
I0
sg10
S'Single non-user'
p1280
sg12
S'Leeches 50% of the damage dealt.'
p1281
sg14
S'Fighting'
p1282
sg16
F100
sbsS'Discharge'
p1283
(ipokeStructs
Move
p1284
(dp1285
g5
I15
sg6
g1283
sg7
F80
sg8
S'special'
p1286
sg9
I0
sg10
S'All others'
p1287
sg12
S'30% chance to paralyze the opponent.'
p1288
sg14
S'Electric'
p1289
sg16
F100
sbsS'Last Resort'
p1290
(ipokeStructs
Move
p1291
(dp1292
g5
I5
sg6
g1290
sg7
F140
sg8
S'physical'
p1293
sg9
I0
sg10
S'Single non-user'
p1294
sg12
S'Can only be used if all other moves have been used once.'
p1295
sg14
S'Normal'
p1296
sg16
F100
sbsS'Role Play'
p1297
(ipokeStructs
Move
p1298
(dp1299
g5
I10
sg6
g1297
sg7
Nsg8
S'-'
sg9
I0
sg10
S'Single non-user'
p1300
sg12
S"Copies the foe's ability and overwrites the user's ability."
p1301
sg14
S'Psychic'
p1302
sg16
NsbsS'Leech Life'
p1303
(ipokeStructs
Move
p1304
(dp1305
g5
I15
sg6
g1303
sg7
F20
sg8
S'physical'
p1306
sg9
I0
sg10
S'Single non-user'
p1307
sg12
S'Leeches 50% of the damage dealt.'
p1308
sg14
S'Bug'
p1309
sg16
F100
sbsS'Protect'
p1310
(ipokeStructs
Move
p1311
(dp1312
g5
I10
sg6
g1310
sg7
Nsg8
S'-'
sg9
I4
sg10
S'User'
p1313
sg12
S'Protects the user from attacks.'
p1314
sg14
S'Normal'
p1315
sg16
NsbsS'Spikes'
p1316
(ipokeStructs
Move
p1317
(dp1318
g5
I20
sg6
g1316
sg7
Nsg8
S'-'
sg9
I0
sg10
S'Enemy field'
p1319
sg12
S'Causes damage to the enemy whenever they switch.'
p1320
sg14
S'Ground'
p1321
sg16
NsbsS'Covet'
p1322
(ipokeStructs
Move
p1323
(dp1324
g5
I40
sg6
g1322
sg7
F60
sg8
S'physical'
p1325
sg9
I0
sg10
S'Single non-user'
p1326
sg12
S"Steals target's item."
p1327
sg14
S'Normal'
p1328
sg16
F100
sbsS'Retaliate'
p1329
(ipokeStructs
Move
p1330
(dp1331
g5
I5
sg6
g1329
sg7
F70
sg8
S'physical'
p1332
sg9
I0
sg10
S'Single non-user'
p1333
sg12
S"Power doubles if the user's teammate fainted the previous turn."
p1334
sg14
S'Normal'
p1335
sg16
F100
sbsS'Belly Drum'
p1336
(ipokeStructs
Move
p1337
(dp1338
g5
I10
sg6
g1336
sg7
Nsg8
S'-'
sg9
I0
sg10
S'User'
p1339
sg12
S'User loses 50% max HP. Maximizes Attack.'
p1340
sg14
S'Normal'
p1341
sg16
NsbsS'DragonBreath'
p1342
(ipokeStructs
Move
p1343
(dp1344
g5
I20
sg6
g1342
sg7
F60
sg8
S'special'
p1345
sg9
I0
sg10
S'Single non-user'
p1346
sg12
S'30% chance to paralyze opponent.'
p1347
sg14
S'Dragon'
p1348
sg16
F100
sbsS'Block'
p1349
(ipokeStructs
Move
p1350
(dp1351
g5
I5
sg6
g1349
sg7
Nsg8
S'-'
sg9
I0
sg10
S'Single non-user'
p1352
sg12
S'The target cannot switch out.'
p1353
sg14
S'Normal'
p1354
sg16
NsbsS'Sketch'
p1355
(ipokeStructs
Move
p1356
(dp1357
g5
I1
sg6
g1355
sg7
Nsg8
S'-'
sg9
I0
sg10
S'Single non-user'
p1358
sg12
S'Permanently copies the last move used by the target.'
p1359
sg14
S'Normal'
p1360
sg16
NsbsS'Psycho Shift'
p1361
(ipokeStructs
Move
p1362
(dp1363
g5
I10
sg6
g1361
sg7
Nsg8
S'-'
sg9
I0
sg10
S'Single non-user'
p1364
sg12
S'Transfers status ailments to the target.'
p1365
sg14
S'Psychic'
p1366
sg16
F90
sbsS'Aqua Tail'
p1367
(ipokeStructs
Move
p1368
(dp1369
g5
I10
sg6
g1367
sg7
F90
sg8
S'physical'
p1370
sg9
I0
sg10
S'Single non-user'
p1371
sg12
S'No additional effect.'
p1372
sg14
S'Water'
p1373
sg16
F90
sbsS'Shadow Sneak'
p1374
(ipokeStructs
Move
p1375
(dp1376
g5
I30
sg6
g1374
sg7
F40
sg8
S'physical'
p1377
sg9
I1
sg10
S'Single non-user'
p1378
sg12
S'The user always attacks first.'
p1379
sg14
S'Ghost'
p1380
sg16
F100
sbsS'Natural Gift'
p1381
(ipokeStructs
Move
p1382
(dp1383
g5
I15
sg6
g1381
sg7
F1
sg8
S'physical'
p1384
sg9
I0
sg10
S'Single non-user'
p1385
sg12
S"Power and type depends on the user's held Berry."
p1386
sg14
S'Normal'
p1387
sg16
F100
sbsS'Rock Slide'
p1388
(ipokeStructs
Move
p1389
(dp1390
g5
I10
sg6
g1388
sg7
F75
sg8
S'physical'
p1391
sg9
I0
sg10
S'All enemies'
p1392
sg12
S'30% chance to flinch the target.'
p1393
sg14
S'Rock'
p1394
sg16
F90
sbsS'Meteor Mash'
p1395
(ipokeStructs
Move
p1396
(dp1397
g5
I10
sg6
g1395
sg7
F100
sg8
S'physical'
p1398
sg9
I0
sg10
S'Single non-user'
p1399
sg12
S"20% chance to boost user's Attack by 1 stage."
p1400
sg14
S'Steel'
p1401
sg16
F85
sbsS'Megahorn'
p1402
(ipokeStructs
Move
p1403
(dp1404
g5
I10
sg6
g1402
sg7
F120
sg8
S'physical'
p1405
sg9
I0
sg10
S'Single non-user'
p1406
sg12
S'No additional effect.'
p1407
sg14
S'Bug'
p1408
sg16
F85
sbsS'Swords Dance'
p1409
(ipokeStructs
Move
p1410
(dp1411
g5
I30
sg6
g1409
sg7
Nsg8
S'-'
sg9
I0
sg10
S'User'
p1412
sg12
S"Boosts user's Attack by 2 stages."
p1413
sg14
S'Normal'
p1414
sg16
NsbsS'Fire Fang'
p1415
(ipokeStructs
Move
p1416
(dp1417
g5
I15
sg6
g1415
sg7
F65
sg8
S'physical'
p1418
sg9
I0
sg10
S'Single non-user'
p1419
sg12
S'10% chance to flinch opponent. 10% chance to burn opponent.'
p1420
sg14
S'Fire'
p1421
sg16
F95
sbsS'Signal Beam'
p1422
(ipokeStructs
Move
p1423
(dp1424
g5
I15
sg6
g1422
sg7
F75
sg8
S'special'
p1425
sg9
I0
sg10
S'Single non-user'
p1426
sg12
S'10% chance to confuse the target.'
p1427
sg14
S'Bug'
p1428
sg16
F100
sbsS'Rock Throw'
p1429
(ipokeStructs
Move
p1430
(dp1431
g5
I15
sg6
g1429
sg7
F50
sg8
S'physical'
p1432
sg9
I0
sg10
S'Single non-user'
p1433
sg12
S'No additional effect.'
p1434
sg14
S'Rock'
p1435
sg16
F90
sbsS'Echoed Voice'
p1436
(ipokeStructs
Move
p1437
(dp1438
g5
I15
sg6
g1436
sg7
F40
sg8
S'special'
p1439
sg9
I0
sg10
S'Single non-user'
p1440
sg12
S'Power increases when used consecutively.'
p1441
sg14
S'Normal'
p1442
sg16
F100
sbsS'Hidden Power'
p1443
(ipokeStructs
Move
p1444
(dp1445
g5
I15
sg6
g1443
sg7
F1
sg8
S'special'
p1446
sg9
I0
sg10
S'Single non-user'
p1447
sg12
S"Has 30-70 Base Power and can be any type but Normal, depending on the user's IVs."
p1448
sg14
S'Normal'
p1449
sg16
F100
sbsS'Tail Slap'
p1450
(ipokeStructs
Move
p1451
(dp1452
g5
I10
sg6
g1450
sg7
F25
sg8
S'physical'
p1453
sg9
I0
sg10
S'Single non-user'
p1454
sg12
S'Hits 2-5 times in one turn.'
p1455
sg14
S'Normal'
p1456
sg16
F85
sbsS'Grass Pledge'
p1457
(ipokeStructs
Move
p1458
(dp1459
g5
I10
sg6
g1457
sg7
F50
sg8
S'special'
p1460
sg9
I0
sg10
S'Single non-user'
p1461
sg12
S'Use with Grass Pledge and Water Pledge for additional effect.'
p1462
sg14
S'Grass'
p1463
sg16
F100
sbsS'Outrage'
p1464
(ipokeStructs
Move
p1465
(dp1466
g5
I15
sg6
g1464
sg7
F120
sg8
S'physical'
p1467
sg9
I0
sg10
S'Random enemy'
p1468
sg12
S'Lasts 2-3 turns and will confuse the user afterward.'
p1469
sg14
S'Dragon'
p1470
sg16
F100
sbsS'AncientPower'
p1471
(ipokeStructs
Move
p1472
(dp1473
g5
I5
sg6
g1471
sg7
F60
sg8
S'special'
p1474
sg9
I0
sg10
S'Single non-user'
p1475
sg12
S"10% chance to boost all of the user's stats by 1 stage."
p1476
sg14
S'Rock'
p1477
sg16
F100
sbsS'Whirlpool'
p1478
(ipokeStructs
Move
p1479
(dp1480
g5
I15
sg6
g1478
sg7
F35
sg8
S'special'
p1481
sg9
I0
sg10
S'Single non-user'
p1482
sg12
S'Traps and damages for 4-5 turns.'
p1483
sg14
S'Water'
p1484
sg16
F85
sbsS'Defense Curl'
p1485
(ipokeStructs
Move
p1486
(dp1487
g5
I40
sg6
g1485
sg7
Nsg8
S'-'
sg9
I0
sg10
S'User'
p1488
sg12
S"Boosts user's Defense by 1 stage."
p1489
sg14
S'Normal'
p1490
sg16
NsbsS'Taunt'
p1491
(ipokeStructs
Move
p1492
(dp1493
g5
I20
sg6
g1491
sg7
Nsg8
S'-'
sg9
I0
sg10
S'Single non-user'
p1494
sg12
S'Lasts 3 turns and the target can only use attacking moves.'
p1495
sg14
S'Dark'
p1496
sg16
F100
sbsS'Dive'
p1497
(ipokeStructs
Move
p1498
(dp1499
g5
I10
sg6
g1497
sg7
F80
sg8
S'physical'
p1500
sg9
I0
sg10
S'Single non-user'
p1501
sg12
S'User is made invulnerable for one turn, then hits the next turn.'
p1502
sg14
S'Water'
p1503
sg16
F100
sbsS'Rage Powder'
p1504
(ipokeStructs
Move
p1505
(dp1506
g5
I20
sg6
g1504
sg7
Nsg8
S'-'
sg9
I3
sg10
S'User'
p1507
sg12
S'All moves target the user.'
p1508
sg14
S'Bug'
p1509
sg16
NsbsS'Lovely Kiss'
p1510
(ipokeStructs
Move
p1511
(dp1512
g5
I10
sg6
g1510
sg7
Nsg8
S'-'
sg9
I0
sg10
S'Single non-user'
p1513
sg12
S'Puts the target to sleep.'
p1514
sg14
S'Normal'
p1515
sg16
F75
sbsS'Skill Swap'
p1516
(ipokeStructs
Move
p1517
(dp1518
g5
I10
sg6
g1516
sg7
Nsg8
S'-'
sg9
I0
sg10
S'Single non-user'
p1519
sg12
S'The user and the target trade abilities.'
p1520
sg14
S'Psychic'
p1521
sg16
NsbsS'Mirror Coat'
p1522
(ipokeStructs
Move
p1523
(dp1524
g5
I20
sg6
g1522
sg7
F1
sg8
S'special'
p1525
sg9
I-5
sg10
S'None'
p1526
sg12
S'If hit by a special attack, returns double the damage.'
p1527
sg14
S'Psychic'
p1528
sg16
F100
sbsS'Lock-On'
p1529
(ipokeStructs
Move
p1530
(dp1531
g5
I5
sg6
g1529
sg7
Nsg8
S'-'
sg9
I0
sg10
S'Single non-user'
p1532
sg12
S'The next move will not miss.'
p1533
sg14
S'Normal'
p1534
sg16
NsbsS'Safeguard'
p1535
(ipokeStructs
Move
p1536
(dp1537
g5
I25
sg6
g1535
sg7
Nsg8
S'-'
sg9
I0
sg10
S'User party'
p1538
sg12
S"Protects the user's team from status conditions for 5 turns."
p1539
sg14
S'Normal'
p1540
sg16
NsbsS'Judgment'
p1541
(ipokeStructs
Move
p1542
(dp1543
g5
I10
sg6
g1541
sg7
F100
sg8
S'special'
p1544
sg9
I0
sg10
S'Single non-user'
p1545
sg12
S'Type will change depending on the type of Plate.'
p1546
sg14
S'Normal'
p1547
sg16
F100
sbsS'Teeter Dance'
p1548
(ipokeStructs
Move
p1549
(dp1550
g5
I20
sg6
g1548
sg7
Nsg8
S'-'
sg9
I0
sg10
S'All others'
p1551
sg12
S'Confuses the target.'
p1552
sg14
S'Normal'
p1553
sg16
F100
sbsS'Roar'
p1554
(ipokeStructs
Move
p1555
(dp1556
g5
I20
sg6
g1554
sg7
Nsg8
S'-'
sg9
I-6
sg10
S'Single non-user'
p1557
sg12
S'Forces the target to switch to a random Pokemon.'
p1558
sg14
S'Normal'
p1559
sg16
F100
sbsS'Bind'
p1560
(ipokeStructs
Move
p1561
(dp1562
g5
I20
sg6
g1560
sg7
F15
sg8
S'physical'
p1563
sg9
I0
sg10
S'Single non-user'
p1564
sg12
S'Traps and damages the target over 4-5 turns.'
p1565
sg14
S'Normal'
p1566
sg16
F85
sbsS'Headbutt'
p1567
(ipokeStructs
Move
p1568
(dp1569
g5
I15
sg6
g1567
sg7
F70
sg8
S'physical'
p1570
sg9
I0
sg10
S'Single non-user'
p1571
sg12
S'30% chance to flinch the target.'
p1572
sg14
S'Normal'
p1573
sg16
F100
sbsS'Payback'
p1574
(ipokeStructs
Move
p1575
(dp1576
g5
I10
sg6
g1574
sg7
F50
sg8
S'physical'
p1577
sg9
I0
sg10
S'Single non-user'
p1578
sg12
S'Base Power doubles if the foe has taken its turn.'
p1579
sg14
S'Dark'
p1580
sg16
F100
sbsS'Magnitude'
p1581
(ipokeStructs
Move
p1582
(dp1583
g5
I30
sg6
g1581
sg7
F1
sg8
S'physical'
p1584
sg9
I0
sg10
S'All others'
p1585
sg12
S'Has variable damage. Hits Pokemon using Dig with double Base Power.'
p1586
sg14
S'Ground'
p1587
sg16
F100
sbsS'Telekinesis'
p1588
(ipokeStructs
Move
p1589
(dp1590
g5
I15
sg6
g1588
sg7
Nsg8
S'-'
sg9
I0
sg10
S'Single non-user'
p1591
sg12
S'Lasts 3 turns and makes all moves hit the target.  Makes target immune to Ground-type moves.'
p1592
sg14
S'Psychic'
p1593
sg16
NsbsS'Pound'
p1594
(ipokeStructs
Move
p1595
(dp1596
g5
I35
sg6
g1594
sg7
F40
sg8
S'physical'
p1597
sg9
I0
sg10
S'Single non-user'
p1598
sg12
S'No additional effect.'
p1599
sg14
S'Normal'
p1600
sg16
F100
sbsS'Steel Wing'
p1601
(ipokeStructs
Move
p1602
(dp1603
g5
I25
sg6
g1601
sg7
F70
sg8
S'physical'
p1604
sg9
I0
sg10
S'Single non-user'
p1605
sg12
S"10% chance to raise the user's Defense by 1 stage."
p1606
sg14
S'Steel'
p1607
sg16
F90
sbsS'Thief'
p1608
(ipokeStructs
Move
p1609
(dp1610
g5
I10
sg6
g1608
sg7
F40
sg8
S'physical'
p1611
sg9
I0
sg10
S'Single non-user'
p1612
sg12
S"Steals the target's held item."
p1613
sg14
S'Dark'
p1614
sg16
F100
sbsS'Seed Bomb'
p1615
(ipokeStructs
Move
p1616
(dp1617
g5
I15
sg6
g1615
sg7
F80
sg8
S'physical'
p1618
sg9
I0
sg10
S'Single non-user'
p1619
sg12
S'No additional effect.'
p1620
sg14
S'Grass'
p1621
sg16
F100
sbsS'Superpower'
p1622
(ipokeStructs
Move
p1623
(dp1624
g5
I5
sg6
g1622
sg7
F120
sg8
S'physical'
p1625
sg9
I0
sg10
S'Single non-user'
p1626
sg12
S"Lowers user's Attack and Defense by 1 stage."
p1627
sg14
S'Fighting'
p1628
sg16
F100
sbsS'Miracle Eye'
p1629
(ipokeStructs
Move
p1630
(dp1631
g5
I40
sg6
g1629
sg7
Nsg8
S'-'
sg9
I0
sg10
S'Single non-user'
p1632
sg12
S"Blocks evasion modifiers. Allows user's Psychic-type moves to hit Dark-types."
p1633
sg14
S'Psychic'
p1634
sg16
NsbsS'Spider Web'
p1635
(ipokeStructs
Move
p1636
(dp1637
g5
I10
sg6
g1635
sg7
Nsg8
S'-'
sg9
I0
sg10
S'Single non-user'
p1638
sg12
S'The target cannot switch out.'
p1639
sg14
S'Bug'
p1640
sg16
NsbsS'Ingrain'
p1641
(ipokeStructs
Move
p1642
(dp1643
g5
I20
sg6
g1641
sg7
Nsg8
S'-'
sg9
I0
sg10
S'User'
p1644
sg12
S'User recovers 1/16th max HP each turn. Prevents the user from switching.'
p1645
sg14
S'Grass'
p1646
sg16
NsbsS'Psychic'
p1647
(ipokeStructs
Move
p1648
(dp1649
g5
I10
sg6
g1647
sg7
F90
sg8
S'special'
p1650
sg9
I0
sg10
S'Single non-user'
p1651
sg12
S"10% chance to lower target's Special Defense by 1 stage."
p1652
sg14
S'Psychic'
p1653
sg16
F100
sbsS'Silver Wind'
p1654
(ipokeStructs
Move
p1655
(dp1656
g5
I5
sg6
g1654
sg7
F60
sg8
S'special'
p1657
sg9
I0
sg10
S'Single non-user'
p1658
sg12
S"10% chance to boost all of the user's stats by 1 stage."
p1659
sg14
S'Bug'
p1660
sg16
F100
sbsS'Tickle'
p1661
(ipokeStructs
Move
p1662
(dp1663
g5
I20
sg6
g1661
sg7
Nsg8
S'-'
sg9
I0
sg10
S'Single non-user'
p1664
sg12
S"Lowers target's Attack and Defense by 1 stage."
p1665
sg14
S'Normal'
p1666
sg16
F100
sbsS'Wild Charge'
p1667
(ipokeStructs
Move
p1668
(dp1669
g5
I15
sg6
g1667
sg7
F90
sg8
S'physical'
p1670
sg9
I0
sg10
S'Single non-user'
p1671
sg12
S'Has 1/4 recoil.'
p1672
sg14
S'Electric'
p1673
sg16
F100
sbsS'Light Screen'
p1674
(ipokeStructs
Move
p1675
(dp1676
g5
I30
sg6
g1674
sg7
Nsg8
S'-'
sg9
I0
sg10
S'User party'
p1677
sg12
S"Doubles your team's Special Defense for 5 turns."
p1678
sg14
S'Psychic'
p1679
sg16
NsbsS'Astonish'
p1680
(ipokeStructs
Move
p1681
(dp1682
g5
I15
sg6
g1680
sg7
F30
sg8
S'physical'
p1683
sg9
I0
sg10
S'Single non-user'
p1684
sg12
S'30% chance to flinch the target.'
p1685
sg14
S'Ghost'
p1686
sg16
F100
sbsS'Healing Wish'
p1687
(ipokeStructs
Move
p1688
(dp1689
g5
I10
sg6
g1687
sg7
Nsg8
S'-'
sg9
I0
sg10
S'User'
p1690
sg12
S'Faints the user, but heals the replacement.'
p1691
sg14
S'Psychic'
p1692
sg16
NsbsS'Aeroblast'
p1693
(ipokeStructs
Move
p1694
(dp1695
g5
I5
sg6
g1693
sg7
F100
sg8
S'special'
p1696
sg9
I0
sg10
S'Single non-user'
p1697
sg12
S'Has a high critical hit rate.'
p1698
sg14
S'Flying'
p1699
sg16
F95
sbsS'Ice Beam'
p1700
(ipokeStructs
Move
p1701
(dp1702
g5
I10
sg6
g1700
sg7
F95
sg8
S'special'
p1703
sg9
I0
sg10
S'Single non-user'
p1704
sg12
S'10% chance to freeze the target.'
p1705
sg14
S'Ice'
p1706
sg16
F100
sbsS'Confusion'
p1707
(ipokeStructs
Move
p1708
(dp1709
g5
I25
sg6
g1707
sg7
F50
sg8
S'special'
p1710
sg9
I0
sg10
S'Single non-user'
p1711
sg12
S'10% chance to confuse opponent.'
p1712
sg14
S'Psychic'
p1713
sg16
F100
sbsS'Pursuit'
p1714
(ipokeStructs
Move
p1715
(dp1716
g5
I20
sg6
g1714
sg7
F40
sg8
S'physical'
p1717
sg9
I0
sg10
S'Single non-user'
p1718
sg12
S'Doubles Base Power if target is switching.'
p1719
sg14
S'Dark'
p1720
sg16
F100
sbsS'Mach Punch'
p1721
(ipokeStructs
Move
p1722
(dp1723
g5
I30
sg6
g1721
sg7
F40
sg8
S'physical'
p1724
sg9
I1
sg10
S'Single non-user'
p1725
sg12
S'The user always attacks first.'
p1726
sg14
S'Fighting'
p1727
sg16
F100
sbsS'Rage'
p1728
(ipokeStructs
Move
p1729
(dp1730
g5
I20
sg6
g1728
sg7
F20
sg8
S'physical'
p1731
sg9
I0
sg10
S'Single non-user'
p1732
sg12
S"Boosts user's Attack by 1 stage if hit."
p1733
sg14
S'Normal'
p1734
sg16
F100
sbsS'Wish'
p1735
(ipokeStructs
Move
p1736
(dp1737
g5
I10
sg6
g1735
sg7
Nsg8
S'-'
sg9
I0
sg10
S'User'
p1738
sg12
S"Heals 50% the user's max HP the next turn."
p1739
sg14
S'Normal'
p1740
sg16
NsbsS'Defog'
p1741
(ipokeStructs
Move
p1742
(dp1743
g5
I15
sg6
g1741
sg7
Nsg8
S'-'
sg9
I0
sg10
S'Single non-user'
p1744
sg12
S"Lowers target's evasion by 1 stage. Removes various field effects."
p1745
sg14
S'Flying'
p1746
sg16
NsbsS'Screech'
p1747
(ipokeStructs
Move
p1748
(dp1749
g5
I40
sg6
g1747
sg7
Nsg8
S'-'
sg9
I0
sg10
S'Single non-user'
p1750
sg12
S"Lowers target's Defense by 2 stages."
p1751
sg14
S'Normal'
p1752
sg16
F85
sbsS'Simple Beam'
p1753
(ipokeStructs
Move
p1754
(dp1755
g5
I15
sg6
g1753
sg7
Nsg8
S'-'
sg9
I0
sg10
S'Single non-user'
p1756
sg12
S"Changes the target's ability to Simple."
p1757
sg14
S'Normal'
p1758
sg16
F100
sbsS'Mimic'
p1759
(ipokeStructs
Move
p1760
(dp1761
g5
I10
sg6
g1759
sg7
Nsg8
S'-'
sg9
I0
sg10
S'Single non-user'
p1762
sg12
S'Copies the last move used by the target.'
p1763
sg14
S'Normal'
p1764
sg16
NsbsS'Razor Shell'
p1765
(ipokeStructs
Move
p1766
(dp1767
g5
I10
sg6
g1765
sg7
F75
sg8
S'physical'
p1768
sg9
I0
sg10
S'Single non-user'
p1769
sg12
S"50% chance to lower target's Defense by 1 stage."
p1770
sg14
S'Water'
p1771
sg16
F95
sbsS'Focus Punch'
p1772
(ipokeStructs
Move
p1773
(dp1774
g5
I20
sg6
g1772
sg7
F150
sg8
S'physical'
p1775
sg9
I-3
sg10
S'Single non-user'
p1776
sg12
S'Fails if the user takes damage before it hits.'
p1777
sg14
S'Fighting'
p1778
sg16
F100
sbsS'Encore'
p1779
(ipokeStructs
Move
p1780
(dp1781
g5
I5
sg6
g1779
sg7
Nsg8
S'-'
sg9
I0
sg10
S'Single non-user'
p1782
sg12
S'Causes the target to repeat its last move for 3 turns.'
p1783
sg14
S'Normal'
p1784
sg16
F100
sbsS'Bug Buzz'
p1785
(ipokeStructs
Move
p1786
(dp1787
g5
I10
sg6
g1785
sg7
F90
sg8
S'special'
p1788
sg9
I0
sg10
S'Single non-user'
p1789
sg12
S"10% chance to lower target's Special Defense by 1 stage."
p1790
sg14
S'Bug'
p1791
sg16
F100
sbsS'Mega Drain'
p1792
(ipokeStructs
Move
p1793
(dp1794
g5
I15
sg6
g1792
sg7
F40
sg8
S'special'
p1795
sg9
I0
sg10
S'Single non-user'
p1796
sg12
S'Leeches 50% of the damage dealt.'
p1797
sg14
S'Grass'
p1798
sg16
F100
sbsS'Vacuum Wave'
p1799
(ipokeStructs
Move
p1800
(dp1801
g5
I30
sg6
g1799
sg7
F40
sg8
S'special'
p1802
sg9
I1
sg10
S'Single non-user'
p1803
sg12
S'The user always attacks first.'
p1804
sg14
S'Fighting'
p1805
sg16
F100
sbsS'Slack Off'
p1806
(ipokeStructs
Move
p1807
(dp1808
g5
I10
sg6
g1806
sg7
Nsg8
S'-'
sg9
I0
sg10
S'User'
p1809
sg12
S"Heals 50% of the user's max HP."
p1810
sg14
S'Normal'
p1811
sg16
NsbsS'Growth'
p1812
(ipokeStructs
Move
p1813
(dp1814
g5
I40
sg6
g1812
sg7
Nsg8
S'-'
sg9
I0
sg10
S'User'
p1815
sg12
S'Boosts Attack and Special Attack one stage.'
p1816
sg14
S'Normal'
p1817
sg16
NsbsS'Sludge Wave'
p1818
(ipokeStructs
Move
p1819
(dp1820
g5
I10
sg6
g1818
sg7
F95
sg8
S'special'
p1821
sg9
I0
sg10
S'All others'
p1822
sg12
S'10% chance to poison the target.'
p1823
sg14
S'Poison'
p1824
sg16
F100
sbsS'Electro Ball'
p1825
(ipokeStructs
Move
p1826
(dp1827
g5
I10
sg6
g1825
sg7
F1
sg8
S'special'
p1828
sg9
I0
sg10
S'Single non-user'
p1829
sg12
S'Inflicts more damage the faster the user is compared to the target.'
p1830
sg14
S'Electric'
p1831
sg16
F100
sbsS'Guillotine'
p1832
(ipokeStructs
Move
p1833
(dp1834
g5
I5
sg6
g1832
sg7
F1
sg8
S'physical'
p1835
sg9
I0
sg10
S'Single non-user'
p1836
sg12
S'Will OHKO the target.'
p1837
sg14
S'Normal'
p1838
sg16
F30
sbsS'Hyper Beam'
p1839
(ipokeStructs
Move
p1840
(dp1841
g5
I5
sg6
g1839
sg7
F150
sg8
S'special'
p1842
sg9
I0
sg10
S'Single non-user'
p1843
sg12
S'The user cannot attack next turn.'
p1844
sg14
S'Normal'
p1845
sg16
F90
sbsS'Acid'
p1846
(ipokeStructs
Move
p1847
(dp1848
g5
I30
sg6
g1846
sg7
F40
sg8
S'special'
p1849
sg9
I0
sg10
S'All enemies'
p1850
sg12
S'10% chance to lower Special Defense 1 stage.'
p1851
sg14
S'Poison'
p1852
sg16
F100
sbsS'Substitute'
p1853
(ipokeStructs
Move
p1854
(dp1855
g5
I10
sg6
g1853
sg7
Nsg8
S'-'
sg9
I0
sg10
S'User'
p1856
sg12
S"Takes 1/4 the user's max HP to create a Substitute that takes damage for the user."
p1857
sg14
S'Normal'
p1858
sg16
NsbsS'Rock Blast'
p1859
(ipokeStructs
Move
p1860
(dp1861
g5
I10
sg6
g1859
sg7
F25
sg8
S'physical'
p1862
sg9
I0
sg10
S'Single non-user'
p1863
sg12
S'Hits 2-5 times in one turn.'
p1864
sg14
S'Rock'
p1865
sg16
F90
sbsS'Magnet Bomb'
p1866
(ipokeStructs
Move
p1867
(dp1868
g5
I20
sg6
g1866
sg7
F60
sg8
S'physical'
p1869
sg9
I0
sg10
S'Single non-user'
p1870
sg12
S'Ignores evasion modifiers.'
p1871
sg14
S'Steel'
p1872
sg16
NsbsS'Gunk Shot'
p1873
(ipokeStructs
Move
p1874
(dp1875
g5
I5
sg6
g1873
sg7
F120
sg8
S'physical'
p1876
sg9
I0
sg10
S'Single non-user'
p1877
sg12
S'30% chance to poison the target.'
p1878
sg14
S'Poison'
p1879
sg16
F70
sbsS'Flash'
p1880
(ipokeStructs
Move
p1881
(dp1882
g5
I20
sg6
g1880
sg7
Nsg8
S'-'
sg9
I0
sg10
S'Single non-user'
p1883
sg12
S"Lowers target's accuracy by 1 stage."
p1884
sg14
S'Normal'
p1885
sg16
F100
sbsS'Frost Breath'
p1886
(ipokeStructs
Move
p1887
(dp1888
g5
I10
sg6
g1886
sg7
F40
sg8
S'special'
p1889
sg9
I0
sg10
S'Single non-user'
p1890
sg12
S'Always results in a critical hit.'
p1891
sg14
S'Ice'
p1892
sg16
F90
sbsS'Camouflage'
p1893
(ipokeStructs
Move
p1894
(dp1895
g5
I20
sg6
g1893
sg7
Nsg8
S'-'
sg9
I0
sg10
S'User'
p1896
sg12
S"Changes user's type based on terrain."
p1897
sg14
S'Normal'
p1898
sg16
NsbsS'Crabhammer'
p1899
(ipokeStructs
Move
p1900
(dp1901
g5
I10
sg6
g1899
sg7
F90
sg8
S'physical'
p1902
sg9
I0
sg10
S'Single non-user'
p1903
sg12
S'Has a high critical hit rate.'
p1904
sg14
S'Water'
p1905
sg16
F90
sbsS'Quash'
p1906
(ipokeStructs
Move
p1907
(dp1908
g5
I15
sg6
g1906
sg7
Nsg8
S'-'
sg9
I0
sg10
S'Single non-user'
p1909
sg12
S'Forces the target to move last.'
p1910
sg14
S'Dark'
p1911
sg16
F100
sbsS'Sharpen'
p1912
(ipokeStructs
Move
p1913
(dp1914
g5
I30
sg6
g1912
sg7
Nsg8
S'-'
sg9
I0
sg10
S'User'
p1915
sg12
S"Boosts user's Attack by 1 stage."
p1916
sg14
S'Normal'
p1917
sg16
NsbsS'Flame Charge'
p1918
(ipokeStructs
Move
p1919
(dp1920
g5
I20
sg6
g1918
sg7
F50
sg8
S'physical'
p1921
sg9
I0
sg10
S'Single non-user'
p1922
sg12
S"Boosts user's Speed by 1 stage."
p1923
sg14
S'Fire'
p1924
sg16
F100
sbsS'Circle Throw'
p1925
(ipokeStructs
Move
p1926
(dp1927
g5
I10
sg6
g1925
sg7
F60
sg8
S'physical'
p1928
sg9
I-6
sg10
S'Single non-user'
p1929
sg12
S'Forces the target to switch to a random Pokemon.'
p1930
sg14
S'Fighting'
p1931
sg16
F90
sbsS'Selfdestruct'
p1932
(ipokeStructs
Move
p1933
(dp1934
g5
I5
sg6
g1932
sg7
F200
sg8
S'physical'
p1935
sg9
I0
sg10
S'All others'
p1936
sg12
S'Faints the user.'
p1937
sg14
S'Normal'
p1938
sg16
F100
sbsS'Switcheroo'
p1939
(ipokeStructs
Move
p1940
(dp1941
g5
I10
sg6
g1939
sg7
Nsg8
S'-'
sg9
I0
sg10
S'Single non-user'
p1942
sg12
S'Switches items with the target.'
p1943
sg14
S'Dark'
p1944
sg16
F100
sbsS'Crush Grip'
p1945
(ipokeStructs
Move
p1946
(dp1947
g5
I5
sg6
g1945
sg7
F1
sg8
S'physical'
p1948
sg9
I0
sg10
S'Single non-user'
p1949
sg12
S"Base Power depends on the foe's remaining HP."
p1950
sg14
S'Normal'
p1951
sg16
F100
sbsS'Razor Leaf'
p1952
(ipokeStructs
Move
p1953
(dp1954
g5
I25
sg6
g1952
sg7
F55
sg8
S'physical'
p1955
sg9
I0
sg10
S'All enemies'
p1956
sg12
S'Has a high critical hit rate.'
p1957
sg14
S'Grass'
p1958
sg16
F95
sbsS'Drill Run'
p1959
(ipokeStructs
Move
p1960
(dp1961
g5
I10
sg6
g1959
sg7
F80
sg8
S'physical'
p1962
sg9
I0
sg10
S'Single non-user'
p1963
sg12
S'Has a high critical hit rate.'
p1964
sg14
S'Ground'
p1965
sg16
F95
sbsS'Waterfall'
p1966
(ipokeStructs
Move
p1967
(dp1968
g5
I15
sg6
g1966
sg7
F80
sg8
S'physical'
p1969
sg9
I0
sg10
S'Single non-user'
p1970
sg12
S'20% chance to flinch the target.'
p1971
sg14
S'Water'
p1972
sg16
F100
sbsS'Earthquake'
p1973
(ipokeStructs
Move
p1974
(dp1975
g5
I10
sg6
g1973
sg7
F100
sg8
S'physical'
p1976
sg9
I0
sg10
S'All others'
p1977
sg12
S'Hits Pokemon using Dig with double Base Power.'
p1978
sg14
S'Ground'
p1979
sg16
F100
sbsS'Comet Punch'
p1980
(ipokeStructs
Move
p1981
(dp1982
g5
I15
sg6
g1980
sg7
F18
sg8
S'physical'
p1983
sg9
I0
sg10
S'Single non-user'
p1984
sg12
S'Hits 2-5 times in one turn.'
p1985
sg14
S'Normal'
p1986
sg16
F85
sbsS'Embargo'
p1987
(ipokeStructs
Move
p1988
(dp1989
g5
I15
sg6
g1987
sg7
Nsg8
S'-'
sg9
I0
sg10
S'Single non-user'
p1990
sg12
S'Item use is prevented for five turns.'
p1991
sg14
S'Dark'
p1992
sg16
F100
sbsS'Reversal'
p1993
(ipokeStructs
Move
p1994
(dp1995
g5
I15
sg6
g1993
sg7
F1
sg8
S'physical'
p1996
sg9
I0
sg10
S'Single non-user'
p1997
sg12
S"Does more damage as user's HP decreases."
p1998
sg14
S'Fighting'
p1999
sg16
F100
sbsS'Tail Whip'
p2000
(ipokeStructs
Move
p2001
(dp2002
g5
I30
sg6
g2000
sg7
Nsg8
S'-'
sg9
I0
sg10
S'All enemies'
p2003
sg12
S"Lowers target's Defense by 1 stage."
p2004
sg14
S'Normal'
p2005
sg16
F100
sbsS'Zen Headbutt'
p2006
(ipokeStructs
Move
p2007
(dp2008
g5
I15
sg6
g2006
sg7
F80
sg8
S'physical'
p2009
sg9
I0
sg10
S'Single non-user'
p2010
sg12
S'20% chance to flinch the target.'
p2011
sg14
S'Psychic'
p2012
sg16
F90
sbsS'Trick'
p2013
(ipokeStructs
Move
p2014
(dp2015
g5
I10
sg6
g2013
sg7
Nsg8
S'-'
sg9
I0
sg10
S'Single non-user'
p2016
sg12
S'Switches items with the target.'
p2017
sg14
S'Psychic'
p2018
sg16
F100
sbsS'Pain Split'
p2019
(ipokeStructs
Move
p2020
(dp2021
g5
I20
sg6
g2019
sg7
Nsg8
S'-'
sg9
I0
sg10
S'Single non-user'
p2022
sg12
S'Shares HP of user and target equally.'
p2023
sg14
S'Normal'
p2024
sg16
NsbsS'ViceGrip'
p2025
(ipokeStructs
Move
p2026
(dp2027
g5
I30
sg6
g2025
sg7
F55
sg8
S'physical'
p2028
sg9
I0
sg10
S'Single non-user'
p2029
sg12
S'No additional effect.'
p2030
sg14
S'Normal'
p2031
sg16
F100
sbsS'Psych Up'
p2032
(ipokeStructs
Move
p2033
(dp2034
g5
I10
sg6
g2032
sg7
Nsg8
S'-'
sg9
I0
sg10
S'Single non-user'
p2035
sg12
S"Copies the target's stat changes."
p2036
sg14
S'Normal'
p2037
sg16
NsbsS'Ice Fang'
p2038
(ipokeStructs
Move
p2039
(dp2040
g5
I15
sg6
g2038
sg7
F65
sg8
S'physical'
p2041
sg9
I0
sg10
S'Single non-user'
p2042
sg12
S'10% chance to freeze the target. 10% chance to flinch the target.'
p2043
sg14
S'Ice'
p2044
sg16
F95
sbsS'Sleep Powder'
p2045
(ipokeStructs
Move
p2046
(dp2047
g5
I15
sg6
g2045
sg7
Nsg8
S'-'
sg9
I0
sg10
S'Single non-user'
p2048
sg12
S'Puts the target to sleep.'
p2049
sg14
S'Grass'
p2050
sg16
F75
sbsS'Vine Whip'
p2051
(ipokeStructs
Move
p2052
(dp2053
g5
I15
sg6
g2051
sg7
F35
sg8
S'physical'
p2054
sg9
I0
sg10
S'Single non-user'
p2055
sg12
S'No additional effect.'
p2056
sg14
S'Grass'
p2057
sg16
F100
sbsS'Pin Missile'
p2058
(ipokeStructs
Move
p2059
(dp2060
g5
I20
sg6
g2058
sg7
F14
sg8
S'physical'
p2061
sg9
I0
sg10
S'Single non-user'
p2062
sg12
S'Hits 2-5 times in one turn.'
p2063
sg14
S'Bug'
p2064
sg16
F85
sbsS'Smack Down'
p2065
(ipokeStructs
Move
p2066
(dp2067
g5
I15
sg6
g2065
sg7
F50
sg8
S'physical'
p2068
sg9
I0
sg10
S'Single non-user'
p2069
sg12
S"Can hit if target is using Fly, Bounce, or Sky Drop. Ends target's airborne moves and its benefits from Flying type or Levitate."
p2070
sg14
S'Rock'
p2071
sg16
F100
sbsS'Growl'
p2072
(ipokeStructs
Move
p2073
(dp2074
g5
I40
sg6
g2072
sg7
Nsg8
S'-'
sg9
I0
sg10
S'All enemies'
p2075
sg12
S"Lowers target's Attack by 1 stage."
p2076
sg14
S'Normal'
p2077
sg16
F100
sbsS'Secret Power'
p2078
(ipokeStructs
Move
p2079
(dp2080
g5
I20
sg6
g2078
sg7
F70
sg8
S'physical'
p2081
sg9
I0
sg10
S'Single non-user'
p2082
sg12
S"Effects vary with terrain. 30% chance to lower target's accuracy by 1 stage in Wi-Fi battles."
p2083
sg14
S'Normal'
p2084
sg16
F100
sbsS'Water Sport'
p2085
(ipokeStructs
Move
p2086
(dp2087
g5
I15
sg6
g2085
sg7
Nsg8
S'-'
sg9
I0
sg10
S'All'
p2088
sg12
S'Fire-type attacks have their power reduced 0.33x.'
p2089
sg14
S'Water'
p2090
sg16
NsbsS'Bite'
p2091
(ipokeStructs
Move
p2092
(dp2093
g5
I25
sg6
g2091
sg7
F60
sg8
S'physical'
p2094
sg9
I0
sg10
S'Single non-user'
p2095
sg12
S'30% chance to flinch the target.'
p2096
sg14
S'Dark'
p2097
sg16
F100
sbsS'Tri Attack'
p2098
(ipokeStructs
Move
p2099
(dp2100
g5
I10
sg6
g2098
sg7
F80
sg8
S'special'
p2101
sg9
I0
sg10
S'Single non-user'
p2102
sg12
S'20% chance to paralyze, burn, or freeze the target.'
p2103
sg14
S'Normal'
p2104
sg16
F100
sbsS'Acrobatics'
p2105
(ipokeStructs
Move
p2106
(dp2107
g5
I15
sg6
g2105
sg7
F55
sg8
S'physical'
p2108
sg9
I0
sg10
S'Single non-user'
p2109
sg12
S'Doubles in power if user has no held item.'
p2110
sg14
S'Flying'
p2111
sg16
F100
sbsS'Earth Power'
p2112
(ipokeStructs
Move
p2113
(dp2114
g5
I10
sg6
g2112
sg7
F90
sg8
S'special'
p2115
sg9
I0
sg10
S'Single non-user'
p2116
sg12
S"10% chance to lower target's Special Defense by 1 stage."
p2117
sg14
S'Ground'
p2118
sg16
F100
sbsS'Hydro Pump'
p2119
(ipokeStructs
Move
p2120
(dp2121
g5
I5
sg6
g2119
sg7
F120
sg8
S'special'
p2122
sg9
I0
sg10
S'Single non-user'
p2123
sg12
S'No additional effect.'
p2124
sg14
S'Water'
p2125
sg16
F80
sbsS'Night Shade'
p2126
(ipokeStructs
Move
p2127
(dp2128
g5
I15
sg6
g2126
sg7
F1
sg8
S'special'
p2129
sg9
I0
sg10
S'Single non-user'
p2130
sg12
S"Does damage equal to the user's level."
p2131
sg14
S'Ghost'
p2132
sg16
F100
sbsS'Fury Cutter'
p2133
(ipokeStructs
Move
p2134
(dp2135
g5
I20
sg6
g2133
sg7
F20
sg8
S'physical'
p2136
sg9
I0
sg10
S'Single non-user'
p2137
sg12
S'Power doubles with each hit.'
p2138
sg14
S'Bug'
p2139
sg16
F95
sbsS'Peck'
p2140
(ipokeStructs
Move
p2141
(dp2142
g5
I35
sg6
g2140
sg7
F35
sg8
S'physical'
p2143
sg9
I0
sg10
S'Single non-user'
p2144
sg12
S'No additional effect.'
p2145
sg14
S'Flying'
p2146
sg16
F100
sbsS'Poison Gas'
p2147
(ipokeStructs
Move
p2148
(dp2149
g5
I40
sg6
g2147
sg7
Nsg8
S'-'
sg9
I0
sg10
S'All enemies'
p2150
sg12
S'Poisons the target.'
p2151
sg14
S'Poison'
p2152
sg16
F90
sbsS'Power Swap'
p2153
(ipokeStructs
Move
p2154
(dp2155
g5
I10
sg6
g2153
sg7
Nsg8
S'-'
sg9
I0
sg10
S'Single non-user'
p2156
sg12
S'Switches Attack and Special Attack boosts with the target.'
p2157
sg14
S'Psychic'
p2158
sg16
NsbsS'Ice Burn'
p2159
(ipokeStructs
Move
p2160
(dp2161
g5
I5
sg6
g2159
sg7
F140
sg8
S'special'
p2162
sg9
I0
sg10
S'Single non-user'
p2163
sg12
S'Hits the turn after being used. 30% chance to burn the target.'
p2164
sg14
S'Ice'
p2165
sg16
F90
sbsS'Storm Throw'
p2166
(ipokeStructs
Move
p2167
(dp2168
g5
I10
sg6
g2166
sg7
F40
sg8
S'physical'
p2169
sg9
I0
sg10
S'Single non-user'
p2170
sg12
S'Always results in a critical hit.'
p2171
sg14
S'Fighting'
p2172
sg16
F100
sbsS'Cotton Spore'
p2173
(ipokeStructs
Move
p2174
(dp2175
g5
I40
sg6
g2173
sg7
Nsg8
S'-'
sg9
I0
sg10
S'Single non-user'
p2176
sg12
S"Lowers target's Speed by 2 stages."
p2177
sg14
S'Grass'
p2178
sg16
F100
sbsS'Counter'
p2179
(ipokeStructs
Move
p2180
(dp2181
g5
I20
sg6
g2179
sg7
F1
sg8
S'physical'
p2182
sg9
I-5
sg10
S'None'
p2183
sg12
S'If hit by a physical attack, returns double the damage.'
p2184
sg14
S'Fighting'
p2185
sg16
F100
sbsS'Searing Shot'
p2186
(ipokeStructs
Move
p2187
(dp2188
g5
I5
sg6
g2186
sg7
F100
sg8
S'special'
p2189
sg9
I0
sg10
S'All others'
p2190
sg12
S'30% chance to burn the target.'
p2191
sg14
S'Fire'
p2192
sg16
F100
sbsS'Harden'
p2193
(ipokeStructs
Move
p2194
(dp2195
g5
I30
sg6
g2193
sg7
Nsg8
S'-'
sg9
I0
sg10
S'User'
p2196
sg12
S"Boosts user's Defense one stage."
p2197
sg14
S'Normal'
p2198
sg16
NsbsS'Uproar'
p2199
(ipokeStructs
Move
p2200
(dp2201
g5
I10
sg6
g2199
sg7
F90
sg8
S'special'
p2202
sg9
I0
sg10
S'Random enemy'
p2203
sg12
S'Lasts 3 turns during which no Pokemon can be asleep.'
p2204
sg14
S'Normal'
p2205
sg16
F100
sbsS'Iron Defense'
p2206
(ipokeStructs
Move
p2207
(dp2208
g5
I15
sg6
g2206
sg7
Nsg8
S'-'
sg9
I0
sg10
S'User'
p2209
sg12
S"Boosts user's Defense 2 stages."
p2210
sg14
S'Steel'
p2211
sg16
NsbsS'Venoshock'
p2212
(ipokeStructs
Move
p2213
(dp2214
g5
I10
sg6
g2212
sg7
F65
sg8
S'special'
p2215
sg9
I0
sg10
S'Single non-user'
p2216
sg12
S'Hits poisoned targets with double Base Power.'
p2217
sg14
S'Poison'
p2218
sg16
F100
sbsS'Ice Ball'
p2219
(ipokeStructs
Move
p2220
(dp2221
g5
I20
sg6
g2219
sg7
F30
sg8
S'physical'
p2222
sg9
I0
sg10
S'Single non-user'
p2223
sg12
S'Doubles in power with each hit. Repeats for 5 turns.'
p2224
sg14
S'Ice'
p2225
sg16
F90
sbsS'Toxic Spikes'
p2226
(ipokeStructs
Move
p2227
(dp2228
g5
I20
sg6
g2226
sg7
Nsg8
S'-'
sg9
I0
sg10
S'Enemy field'
p2229
sg12
S'Poisons opponents as they switch in.'
p2230
sg14
S'Poison'
p2231
sg16
NsbsS'Brine'
p2232
(ipokeStructs
Move
p2233
(dp2234
g5
I10
sg6
g2232
sg7
F65
sg8
S'special'
p2235
sg9
I0
sg10
S'Single non-user'
p2236
sg12
S"Base Power doubles if target's HP is 50% or less."
p2237
sg14
S'Water'
p2238
sg16
F100
sbsS'Magma Storm'
p2239
(ipokeStructs
Move
p2240
(dp2241
g5
I5
sg6
g2239
sg7
F120
sg8
S'special'
p2242
sg9
I0
sg10
S'Single non-user'
p2243
sg12
S'Traps and damages the target over 4-5 turns.'
p2244
sg14
S'Fire'
p2245
sg16
F75
sbsS'Dragon Pulse'
p2246
(ipokeStructs
Move
p2247
(dp2248
g5
I10
sg6
g2246
sg7
F90
sg8
S'special'
p2249
sg9
I0
sg10
S'Single non-user'
p2250
sg12
S'No additional effect.'
p2251
sg14
S'Dragon'
p2252
sg16
F100
sbsS'Freeze Shock'
p2253
(ipokeStructs
Move
p2254
(dp2255
g5
I5
sg6
g2253
sg7
F140
sg8
S'physical'
p2256
sg9
I0
sg10
S'Single non-user'
p2257
sg12
S'Hits the turn after being used. 30% chance to paralyze opponent.'
p2258
sg14
S'Ice'
p2259
sg16
F90
sbsS'Spike Cannon'
p2260
(ipokeStructs
Move
p2261
(dp2262
g5
I15
sg6
g2260
sg7
F20
sg8
S'physical'
p2263
sg9
I0
sg10
S'Single non-user'
p2264
sg12
S'Hits 2-5 times in one turn.'
p2265
sg14
S'Normal'
p2266
sg16
F100
sbsS'Quick Guard'
p2267
(ipokeStructs
Move
p2268
(dp2269
g5
I15
sg6
g2267
sg7
Nsg8
S'-'
sg9
I3
sg10
S'User party'
p2270
sg12
S'Protects user and allies from priority attacks.'
p2271
sg14
S'Fighting'
p2272
sg16
NsbsS'Hex'
p2273
(ipokeStructs
Move
p2274
(dp2275
g5
I10
sg6
g2273
sg7
F50
sg8
S'special'
p2276
sg9
I0
sg10
S'Single non-user'
p2277
sg12
S'Base Power doubles if target has a status ailment.'
p2278
sg14
S'Ghost'
p2279
sg16
F100
sbsS'Transform'
p2280
(ipokeStructs
Move
p2281
(dp2282
g5
I10
sg6
g2280
sg7
Nsg8
S'-'
sg9
I0
sg10
S'Single non-user'
p2283
sg12
S'Copies traits of the target.'
p2284
sg14
S'Normal'
p2285
sg16
NsbsS'Acupressure'
p2286
(ipokeStructs
Move
p2287
(dp2288
g5
I30
sg6
g2286
sg7
Nsg8
S'-'
sg9
I0
sg10
S'User or partner'
p2289
sg12
S'Boosts a random stat by 2 stages.'
p2290
sg14
S'Normal'
p2291
sg16
NsbsS'Recycle'
p2292
(ipokeStructs
Move
p2293
(dp2294
g5
I10
sg6
g2292
sg7
Nsg8
S'-'
sg9
I0
sg10
S'User'
p2295
sg12
S'Restores a used item.'
p2296
sg14
S'Normal'
p2297
sg16
NsbsS'Super Fang'
p2298
(ipokeStructs
Move
p2299
(dp2300
g5
I10
sg6
g2298
sg7
F1
sg8
S'physical'
p2301
sg9
I0
sg10
S'Single non-user'
p2302
sg12
S"Does damage equal to half the target's current HP."
p2303
sg14
S'Normal'
p2304
sg16
F90
sbsS'Bide'
p2305
(ipokeStructs
Move
p2306
(dp2307
g5
I10
sg6
g2305
sg7
F1
sg8
S'physical'
p2308
sg9
I1
sg10
S'User'
p2309
sg12
S'Charges for 2 turns; returns double the damage received in those turns.'
p2310
sg14
S'Normal'
p2311
sg16
NsbsS'Surf'
p2312
(ipokeStructs
Move
p2313
(dp2314
g5
I15
sg6
g2312
sg7
F95
sg8
S'special'
p2315
sg9
I0
sg10
S'All others'
p2316
sg12
S'Hits Pokemon using Dive with double Base Power.'
p2317
sg14
S'Water'
p2318
sg16
F100
sbsS'Crunch'
p2319
(ipokeStructs
Move
p2320
(dp2321
g5
I15
sg6
g2319
sg7
F80
sg8
S'physical'
p2322
sg9
I0
sg10
S'Single non-user'
p2323
sg12
S"20% chance to lower target's Defense by 1 stage."
p2324
sg14
S'Dark'
p2325
sg16
F100
sbsS'Poison Tail'
p2326
(ipokeStructs
Move
p2327
(dp2328
g5
I25
sg6
g2326
sg7
F50
sg8
S'physical'
p2329
sg9
I0
sg10
S'Single non-user'
p2330
sg12
S'Has a high critical hit rate. 10% chance to poison opponent.'
p2331
sg14
S'Poison'
p2332
sg16
F100
sbsS'Synchronoise'
p2333
(ipokeStructs
Move
p2334
(dp2335
g5
I15
sg6
g2333
sg7
F70
sg8
S'special'
p2336
sg9
I0
sg10
S'All others'
p2337
sg12
S'Only damages targets of the same type as the user.'
p2338
sg14
S'Psychic'
p2339
sg16
F100
sbsS'Shell Smash'
p2340
(ipokeStructs
Move
p2341
(dp2342
g5
I15
sg6
g2340
sg7
Nsg8
S'-'
sg9
I0
sg10
S'User'
p2343
sg12
S"Boosts user's Attack, Special Attack, and Speed by 2 stages and lowers user's Defense and Special Defense by 1 stage."
p2344
sg14
S'Normal'
p2345
sg16
NsbsS'Rock Wrecker'
p2346
(ipokeStructs
Move
p2347
(dp2348
g5
I5
sg6
g2346
sg7
F150
sg8
S'physical'
p2349
sg9
I0
sg10
S'Single non-user'
p2350
sg12
S'User cannot move next turn.'
p2351
sg14
S'Rock'
p2352
sg16
F90
sbsS'Sand Tomb'
p2353
(ipokeStructs
Move
p2354
(dp2355
g5
I15
sg6
g2353
sg7
F35
sg8
S'physical'
p2356
sg9
I0
sg10
S'Single non-user'
p2357
sg12
S'Traps and damages the target over 4-5 turns.'
p2358
sg14
S'Ground'
p2359
sg16
F85
sbsS'Chatter'
p2360
(ipokeStructs
Move
p2361
(dp2362
g5
I20
sg6
g2360
sg7
F60
sg8
S'special'
p2363
sg9
I0
sg10
S'Single non-user'
p2364
sg12
S'Confuses the target.'
p2365
sg14
S'Flying'
p2366
sg16
F100
sbsS'Grudge'
p2367
(ipokeStructs
Move
p2368
(dp2369
g5
I5
sg6
g2367
sg7
Nsg8
S'-'
sg9
I0
sg10
S'User'
p2370
sg12
S"If the user faints, the target's attack loses all PP."
p2371
sg14
S'Ghost'
p2372
sg16
NsbsS'Metronome'
p2373
(ipokeStructs
Move
p2374
(dp2375
g5
I10
sg6
g2373
sg7
Nsg8
S'-'
sg9
I0
sg10
S'User'
p2376
sg12
S'Picks a random move.'
p2377
sg14
S'Normal'
p2378
sg16
NsbsS'Double Kick'
p2379
(ipokeStructs
Move
p2380
(dp2381
g5
I30
sg6
g2379
sg7
F30
sg8
S'physical'
p2382
sg9
I0
sg10
S'Single non-user'
p2383
sg12
S'Hits 2 times in one turn.'
p2384
sg14
S'Fighting'
p2385
sg16
F100
sbsS'Shadow Ball'
p2386
(ipokeStructs
Move
p2387
(dp2388
g5
I15
sg6
g2386
sg7
F80
sg8
S'special'
p2389
sg9
I0
sg10
S'Single non-user'
p2390
sg12
S"20% chance to lower target's Special Defense by 1 stage."
p2391
sg14
S'Ghost'
p2392
sg16
F100
sbsS'Sky Uppercut'
p2393
(ipokeStructs
Move
p2394
(dp2395
g5
I15
sg6
g2393
sg7
F85
sg8
S'physical'
p2396
sg9
I0
sg10
S'Single non-user'
p2397
sg12
S'Hits Pokemon using Bounce, Sky Drop, or Fly.'
p2398
sg14
S'Fighting'
p2399
sg16
F90
sbsS'Water Pulse'
p2400
(ipokeStructs
Move
p2401
(dp2402
g5
I20
sg6
g2400
sg7
F60
sg8
S'special'
p2403
sg9
I0
sg10
S'Single non-user'
p2404
sg12
S'20% chance to confuse the target.'
p2405
sg14
S'Water'
p2406
sg16
F100
sbsS'Round'
p2407
(ipokeStructs
Move
p2408
(dp2409
g5
I15
sg6
g2407
sg7
F60
sg8
S'special'
p2410
sg9
I0
sg10
S'Single non-user'
p2411
sg12
S'Power doubles if a teammate uses Round in the same turn.'
p2412
sg14
S'Normal'
p2413
sg16
F100
sbsS'Stone Edge'
p2414
(ipokeStructs
Move
p2415
(dp2416
g5
I5
sg6
g2414
sg7
F100
sg8
S'physical'
p2417
sg9
I0
sg10
S'Single non-user'
p2418
sg12
S'Has a high critical hit rate.'
p2419
sg14
S'Rock'
p2420
sg16
F80
sbsS'Heart Stamp'
p2421
(ipokeStructs
Move
p2422
(dp2423
g5
I25
sg6
g2421
sg7
F60
sg8
S'physical'
p2424
sg9
I0
sg10
S'Single non-user'
p2425
sg12
S'30% chance to flinch the target.'
p2426
sg14
S'Psychic'
p2427
sg16
F100
sbsS'Splash'
p2428
(ipokeStructs
Move
p2429
(dp2430
g5
I40
sg6
g2428
sg7
Nsg8
S'-'
sg9
I0
sg10
S'User'
p2431
sg12
S'No effect whatsoever.'
p2432
sg14
S'Normal'
p2433
sg16
NsbsS'Icy Wind'
p2434
(ipokeStructs
Move
p2435
(dp2436
g5
I15
sg6
g2434
sg7
F55
sg8
S'special'
p2437
sg9
I0
sg10
S'All enemies'
p2438
sg12
S"Lowers target's Speed by 1 stage."
p2439
sg14
S'Ice'
p2440
sg16
F95
sbsS'Grass Knot'
p2441
(ipokeStructs
Move
p2442
(dp2443
g5
I20
sg6
g2441
sg7
F1
sg8
S'special'
p2444
sg9
I0
sg10
S'Single non-user'
p2445
sg12
S"Deals damage based on the foe's weight."
p2446
sg14
S'Grass'
p2447
sg16
F100
sbsS'Mist'
p2448
(ipokeStructs
Move
p2449
(dp2450
g5
I30
sg6
g2448
sg7
Nsg8
S'-'
sg9
I0
sg10
S'User party'
p2451
sg12
S'Prevents moves that lower stats from working for 5 turns.'
p2452
sg14
S'Ice'
p2453
sg16
NsbsS'Lucky Chant'
p2454
(ipokeStructs
Move
p2455
(dp2456
g5
I30
sg6
g2454
sg7
Nsg8
S'-'
sg9
I0
sg10
S'User party'
p2457
sg12
S'Prevents critical hits.'
p2458
sg14
S'Normal'
p2459
sg16
NsbsS'String Shot'
p2460
(ipokeStructs
Move
p2461
(dp2462
g5
I40
sg6
g2460
sg7
Nsg8
S'-'
sg9
I0
sg10
S'All enemies'
p2463
sg12
S"Lowers target's Speed by 1 stage."
p2464
sg14
S'Bug'
p2465
sg16
F95
sbsS'Flail'
p2466
(ipokeStructs
Move
p2467
(dp2468
g5
I15
sg6
g2466
sg7
F1
sg8
S'physical'
p2469
sg9
I0
sg10
S'Single non-user'
p2470
sg12
S"Does more damage as user's HP decreases."
p2471
sg14
S'Normal'
p2472
sg16
F100
sbsS'Magic Coat'
p2473
(ipokeStructs
Move
p2474
(dp2475
g5
I15
sg6
g2473
sg7
Nsg8
S'-'
sg9
I4
sg10
S'User'
p2476
sg12
S'Bounces back certain non-damaging moves.'
p2477
sg14
S'Psychic'
p2478
sg16
NsbsS'Bolt Strike'
p2479
(ipokeStructs
Move
p2480
(dp2481
g5
I5
sg6
g2479
sg7
F130
sg8
S'physical'
p2482
sg9
I0
sg10
S'Single non-user'
p2483
sg12
S'20% chance to paralyze the target.'
p2484
sg14
S'Electric'
p2485
sg16
F85
sbsS'GrassWhistle'
p2486
(ipokeStructs
Move
p2487
(dp2488
g5
I15
sg6
g2486
sg7
Nsg8
S'-'
sg9
I0
sg10
S'Single non-user'
p2489
sg12
S'Puts the target to sleep.'
p2490
sg14
S'Grass'
p2491
sg16
F55
sbsS'Hydro Cannon'
p2492
(ipokeStructs
Move
p2493
(dp2494
g5
I5
sg6
g2492
sg7
F150
sg8
S'special'
p2495
sg9
I0
sg10
S'Single non-user'
p2496
sg12
S'The user cannot attack next turn.'
p2497
sg14
S'Water'
p2498
sg16
F90
sbsS'Worry Seed'
p2499
(ipokeStructs
Move
p2500
(dp2501
g5
I10
sg6
g2499
sg7
Nsg8
S'-'
sg9
I0
sg10
S'Single non-user'
p2502
sg12
S"Changes the target's ability to Insomnia."
p2503
sg14
S'Grass'
p2504
sg16
F100
sbsS'Charge'
p2505
(ipokeStructs
Move
p2506
(dp2507
g5
I20
sg6
g2505
sg7
Nsg8
S'-'
sg9
I0
sg10
S'User'
p2508
sg12
S"Doubles power of an Electric-type move used next turn. Boosts user's Special Defense by 1 stage."
p2509
sg14
S'Electric'
p2510
sg16
NsbsS'Mirror Move'
p2511
(ipokeStructs
Move
p2512
(dp2513
g5
I20
sg6
g2511
sg7
Nsg8
S'-'
sg9
I0
sg10
S'Single non-user'
p2514
sg12
S'Uses the last move targeted at the user.'
p2515
sg14
S'Flying'
p2516
sg16
NsbsS'Slash'
p2517
(ipokeStructs
Move
p2518
(dp2519
g5
I20
sg6
g2517
sg7
F70
sg8
S'physical'
p2520
sg9
I0
sg10
S'Single non-user'
p2521
sg12
S'Has a high critical hit rate.'
p2522
sg14
S'Normal'
p2523
sg16
F100
sbsS'Toxic'
p2524
(ipokeStructs
Move
p2525
(dp2526
g5
I10
sg6
g2524
sg7
Nsg8
S'-'
sg9
I0
sg10
S'Single non-user'
p2527
sg12
S'Badly poisons the target.'
p2528
sg14
S'Poison'
p2529
sg16
F90
sbsS'Wood Hammer'
p2530
(ipokeStructs
Move
p2531
(dp2532
g5
I15
sg6
g2530
sg7
F120
sg8
S'physical'
p2533
sg9
I0
sg10
S'Single non-user'
p2534
sg12
S'Has 1/3 recoil damage.'
p2535
sg14
S'Grass'
p2536
sg16
F100
sbsS'Charge Beam'
p2537
(ipokeStructs
Move
p2538
(dp2539
g5
I10
sg6
g2537
sg7
F50
sg8
S'special'
p2540
sg9
I0
sg10
S'Single non-user'
p2541
sg12
S"70% chance to boost user's Special Attack by 1 stage."
p2542
sg14
S'Electric'
p2543
sg16
F90
sbsS'Glaciate'
p2544
(ipokeStructs
Move
p2545
(dp2546
g5
I10
sg6
g2544
sg7
F65
sg8
S'special'
p2547
sg9
I0
sg10
S'All enemies'
p2548
sg12
S"Lowers target's Speed by 1 stage."
p2549
sg14
S'Ice'
p2550
sg16
F95
sbsS'Return'
p2551
(ipokeStructs
Move
p2552
(dp2553
g5
I20
sg6
g2551
sg7
F1
sg8
S'physical'
p2554
sg9
I0
sg10
S'Single non-user'
p2555
sg12
S'Does more damage the happier the user is.'
p2556
sg14
S'Normal'
p2557
sg16
F100
sbsS'Magnet Rise'
p2558
(ipokeStructs
Move
p2559
(dp2560
g5
I10
sg6
g2558
sg7
Nsg8
S'-'
sg9
I0
sg10
S'User'
p2561
sg12
S'User becomes immune to Ground moves for 5 turns.'
p2562
sg14
S'Electric'
p2563
sg16
NsbsS'Revenge'
p2564
(ipokeStructs
Move
p2565
(dp2566
g5
I10
sg6
g2564
sg7
F60
sg8
S'physical'
p2567
sg9
I-4
sg10
S'Single non-user'
p2568
sg12
S'Doubles in power if user is damaged by the target.'
p2569
sg14
S'Fighting'
p2570
sg16
F100
sbsS'Psycho Boost'
p2571
(ipokeStructs
Move
p2572
(dp2573
g5
I5
sg6
g2571
sg7
F140
sg8
S'special'
p2574
sg9
I0
sg10
S'Single non-user'
p2575
sg12
S"Lowers user's Special Attack by 2 stages."
p2576
sg14
S'Psychic'
p2577
sg16
F90
sbsS'Charm'
p2578
(ipokeStructs
Move
p2579
(dp2580
g5
I20
sg6
g2578
sg7
Nsg8
S'-'
sg9
I0
sg10
S'Single non-user'
p2581
sg12
S"Lowers target's Attack by 2 stages."
p2582
sg14
S'Normal'
p2583
sg16
F100
sbsS'Aqua Jet'
p2584
(ipokeStructs
Move
p2585
(dp2586
g5
I20
sg6
g2584
sg7
F40
sg8
S'physical'
p2587
sg9
I1
sg10
S'Single non-user'
p2588
sg12
S'The user always attacks first.'
p2589
sg14
S'Water'
p2590
sg16
F100
sbsS'Rock Climb'
p2591
(ipokeStructs
Move
p2592
(dp2593
g5
I20
sg6
g2591
sg7
F90
sg8
S'physical'
p2594
sg9
I0
sg10
S'Single non-user'
p2595
sg12
S'20% chance to confuse the target.'
p2596
sg14
S'Normal'
p2597
sg16
F85
sbsS'Mud Bomb'
p2598
(ipokeStructs
Move
p2599
(dp2600
g5
I10
sg6
g2598
sg7
F65
sg8
S'special'
p2601
sg9
I0
sg10
S'Single non-user'
p2602
sg12
S"30% chance to lower target's accuracy by 1 stage."
p2603
sg14
S'Ground'
p2604
sg16
F85
sbsS'Seismic Toss'
p2605
(ipokeStructs
Move
p2606
(dp2607
g5
I20
sg6
g2605
sg7
F1
sg8
S'physical'
p2608
sg9
I0
sg10
S'Single non-user'
p2609
sg12
S"Does damage equal to the user's level."
p2610
sg14
S'Fighting'
p2611
sg16
F100
sbsS'False Swipe'
p2612
(ipokeStructs
Move
p2613
(dp2614
g5
I40
sg6
g2612
sg7
F40
sg8
S'physical'
p2615
sg9
I0
sg10
S'Single non-user'
p2616
sg12
S'Always leaves the foe with at least 1 HP.'
p2617
sg14
S'Normal'
p2618
sg16
F100
sbsS'Baton Pass'
p2619
(ipokeStructs
Move
p2620
(dp2621
g5
I40
sg6
g2619
sg7
Nsg8
S'-'
sg9
I0
sg10
S'User'
p2622
sg12
S'User switches, but passes on all stat changes and some special conditions.'
p2623
sg14
S'Normal'
p2624
sg16
NsbsS'Lunar Dance'
p2625
(ipokeStructs
Move
p2626
(dp2627
g5
I10
sg6
g2625
sg7
Nsg8
S'-'
sg9
I0
sg10
S'User'
p2628
sg12
S'Faints the user, but the replacement is healed completely.'
p2629
sg14
S'Psychic'
p2630
sg16
NsbsS'Low Kick'
p2631
(ipokeStructs
Move
p2632
(dp2633
g5
I20
sg6
g2631
sg7
F1
sg8
S'physical'
p2634
sg9
I0
sg10
S'Single non-user'
p2635
sg12
S"Damage is based on opponent's weight."
p2636
sg14
S'Fighting'
p2637
sg16
F100
sbsS'Thunderbolt'
p2638
(ipokeStructs
Move
p2639
(dp2640
g5
I15
sg6
g2638
sg7
F95
sg8
S'special'
p2641
sg9
I0
sg10
S'Single non-user'
p2642
sg12
S'10% chance to paralyze the target.'
p2643
sg14
S'Electric'
p2644
sg16
F100
sbsS'Doom Desire'
p2645
(ipokeStructs
Move
p2646
(dp2647
g5
I5
sg6
g2645
sg7
F140
sg8
S'special'
p2648
sg9
I0
sg10
S'Single non-user'
p2649
sg12
S'Hits two turns after being used.'
p2650
sg14
S'Steel'
p2651
sg16
F100
sbsS'Me First'
p2652
(ipokeStructs
Move
p2653
(dp2654
g5
I20
sg6
g2652
sg7
F1
sg8
S'-'
sg9
I0
sg10
S'Single enemy'
p2655
sg12
S"Uses the foe's attack at 1.5x power. User must move before the opponent for it to work."
p2656
sg14
S'Normal'
p2657
sg16
NsbsS'Sandstorm'
p2658
(ipokeStructs
Move
p2659
(dp2660
g5
I10
sg6
g2658
sg7
Nsg8
S'-'
sg9
I0
sg10
S'All'
p2661
sg12
S'Summons a sandstorm for five turns.'
p2662
sg14
S'Rock'
p2663
sg16
NsbsS'Lick'
p2664
(ipokeStructs
Move
p2665
(dp2666
g5
I30
sg6
g2664
sg7
F20
sg8
S'physical'
p2667
sg9
I0
sg10
S'Single non-user'
p2668
sg12
S'30% chance to paralyze the target.'
p2669
sg14
S'Ghost'
p2670
sg16
F100
sbsS'Mud-Slap'
p2671
(ipokeStructs
Move
p2672
(dp2673
g5
I10
sg6
g2671
sg7
F20
sg8
S'special'
p2674
sg9
I0
sg10
S'Single non-user'
p2675
sg12
S"Lowers target's accuracy by 1 stage."
p2676
sg14
S'Ground'
p2677
sg16
F100
sbsS'Psycho Cut'
p2678
(ipokeStructs
Move
p2679
(dp2680
g5
I20
sg6
g2678
sg7
F70
sg8
S'physical'
p2681
sg9
I0
sg10
S'Single non-user'
p2682
sg12
S'Has a high critical hit rate.'
p2683
sg14
S'Psychic'
p2684
sg16
F100
sbsS'Horn Drill'
p2685
(ipokeStructs
Move
p2686
(dp2687
g5
I5
sg6
g2685
sg7
F1
sg8
S'physical'
p2688
sg9
I0
sg10
S'Single non-user'
p2689
sg12
S'Will OHKO the target.'
p2690
sg14
S'Normal'
p2691
sg16
F30
sbsS'Flash Cannon'
p2692
(ipokeStructs
Move
p2693
(dp2694
g5
I10
sg6
g2692
sg7
F80
sg8
S'special'
p2695
sg9
I0
sg10
S'Single non-user'
p2696
sg12
S"10% chance to lower target's Special Defense by 1 stage."
p2697
sg14
S'Steel'
p2698
sg16
F100
sbsS'Avalanche'
p2699
(ipokeStructs
Move
p2700
(dp2701
g5
I10
sg6
g2699
sg7
F60
sg8
S'physical'
p2702
sg9
I-4
sg10
S'Single non-user'
p2703
sg12
S'Doubles in Base Power if user is damaged by the target.'
p2704
sg14
S'Ice'
p2705
sg16
F100
sbsS'Slam'
p2706
(ipokeStructs
Move
p2707
(dp2708
g5
I20
sg6
g2706
sg7
F80
sg8
S'physical'
p2709
sg9
I0
sg10
S'Single non-user'
p2710
sg12
S'No additional effect.'
p2711
sg14
S'Normal'
p2712
sg16
F75
sbsS'Water Gun'
p2713
(ipokeStructs
Move
p2714
(dp2715
g5
I25
sg6
g2713
sg7
F40
sg8
S'special'
p2716
sg9
I0
sg10
S'Single non-user'
p2717
sg12
S'No additional effect.'
p2718
sg14
S'Water'
p2719
sg16
F100
sbsS'Head Charge'
p2720
(ipokeStructs
Move
p2721
(dp2722
g5
I15
sg6
g2720
sg7
F120
sg8
S'physical'
p2723
sg9
I0
sg10
S'Single non-user'
p2724
sg12
S'Has 25% recoil.'
p2725
sg14
S'Normal'
p2726
sg16
F100
sbsS'Ally Switch'
p2727
(ipokeStructs
Move
p2728
(dp2729
g5
I15
sg6
g2727
sg7
Nsg8
S'-'
sg9
I1
sg10
S'User'
p2730
sg12
S"Switches position with another Pokemon on user's side of the field."
p2731
sg14
S'Psychic'
p2732
sg16
NsbsS'SmellingSalt'
p2733
(ipokeStructs
Move
p2734
(dp2735
g5
I10
sg6
g2733
sg7
F60
sg8
S'physical'
p2736
sg9
I0
sg10
S'Single non-user'
p2737
sg12
S'Has 120 Base Power on a paralyzed target, but cures it of paralysis.'
p2738
sg14
S'Normal'
p2739
sg16
F100
sbsS'Triple Kick'
p2740
(ipokeStructs
Move
p2741
(dp2742
g5
I10
sg6
g2740
sg7
F10
sg8
S'physical'
p2743
sg9
I0
sg10
S'Single non-user'
p2744
sg12
S'Hits 3 times with Base Power increasing for each hit.'
p2745
sg14
S'Fighting'
p2746
sg16
F90
sbsS'Conversion'
p2747
(ipokeStructs
Move
p2748
(dp2749
g5
I30
sg6
g2747
sg7
Nsg8
S'-'
sg9
I0
sg10
S'User'
p2750
sg12
S"Changes user into a new type based on the user's moves."
p2751
sg14
S'Normal'
p2752
sg16
NsbsS'Withdraw'
p2753
(ipokeStructs
Move
p2754
(dp2755
g5
I40
sg6
g2753
sg7
Nsg8
S'-'
sg9
I0
sg10
S'User'
p2756
sg12
S"Boosts user's Defense one stage."
p2757
sg14
S'Water'
p2758
sg16
NsbsS'Ice Punch'
p2759
(ipokeStructs
Move
p2760
(dp2761
g5
I15
sg6
g2759
sg7
F75
sg8
S'physical'
p2762
sg9
I0
sg10
S'Single non-user'
p2763
sg12
S'10% chance to freeze the target.'
p2764
sg14
S'Ice'
p2765
sg16
F100
sbsS'Electroweb'
p2766
(ipokeStructs
Move
p2767
(dp2768
g5
I15
sg6
g2766
sg7
F55
sg8
S'special'
p2769
sg9
I0
sg10
S'All enemies'
p2770
sg12
S"Lowers target's Speed by 1 stage."
p2771
sg14
S'Electric'
p2772
sg16
F95
sbsS'Water Pledge'
p2773
(ipokeStructs
Move
p2774
(dp2775
g5
I10
sg6
g2773
sg7
F50
sg8
S'special'
p2776
sg9
I0
sg10
S'Single non-user'
p2777
sg12
S'Use with Fire Pledge and Grass Pledge for additional effect.'
p2778
sg14
S'Water'
p2779
sg16
F100
sbsS'Seed Flare'
p2780
(ipokeStructs
Move
p2781
(dp2782
g5
I5
sg6
g2780
sg7
F120
sg8
S'special'
p2783
sg9
I0
sg10
S'Single non-user'
p2784
sg12
S"40% chance to lower target's Special Defense by 2 stages."
p2785
sg14
S'Grass'
p2786
sg16
F85
sbsS'Frustration'
p2787
(ipokeStructs
Move
p2788
(dp2789
g5
I20
sg6
g2787
sg7
F1
sg8
S'physical'
p2790
sg9
I0
sg10
S'Single non-user'
p2791
sg12
S'No additional effect.'
p2792
sg14
S'Normal'
p2793
sg16
F100
sbsS'Wing Attack'
p2794
(ipokeStructs
Move
p2795
(dp2796
g5
I35
sg6
g2794
sg7
F60
sg8
S'physical'
p2797
sg9
I0
sg10
S'Single non-user'
p2798
sg12
S'No additional effect.'
p2799
sg14
S'Flying'
p2800
sg16
F100
sbsS'Sky Attack'
p2801
(ipokeStructs
Move
p2802
(dp2803
g5
I5
sg6
g2801
sg7
F140
sg8
S'physical'
p2804
sg9
I0
sg10
S'Single non-user'
p2805
sg12
S'Hits the turn after being used. 30% chance to flinch the target.'
p2806
sg14
S'Flying'
p2807
sg16
F90
sbsS'Reflect'
p2808
(ipokeStructs
Move
p2809
(dp2810
g5
I20
sg6
g2808
sg7
Nsg8
S'-'
sg9
I0
sg10
S'User party'
p2811
sg12
S"Lowers damage from physical attacks to the user's team for 5 turns."
p2812
sg14
S'Psychic'
p2813
sg16
NsbsS'Agility'
p2814
(ipokeStructs
Move
p2815
(dp2816
g5
I30
sg6
g2814
sg7
Nsg8
S'-'
sg9
I0
sg10
S'User'
p2817
sg12
S"Boosts user's Speed by 2 stages."
p2818
sg14
S'Psychic'
p2819
sg16
NsbsS'Fling'
p2820
(ipokeStructs
Move
p2821
(dp2822
g5
I10
sg6
g2820
sg7
F1
sg8
S'physical'
p2823
sg9
I0
sg10
S'Single non-user'
p2824
sg12
S"Throws the user's hold item at the foe. Power and effect depend on the item."
p2825
sg14
S'Dark'
p2826
sg16
F100
sbsS'Rock Smash'
p2827
(ipokeStructs
Move
p2828
(dp2829
g5
I15
sg6
g2827
sg7
F40
sg8
S'physical'
p2830
sg9
I0
sg10
S'Single non-user'
p2831
sg12
S"50% chance to lower target's Defense by 1 stage."
p2832
sg14
S'Fighting'
p2833
sg16
F100
sbsS'Steamroller'
p2834
(ipokeStructs
Move
p2835
(dp2836
g5
I20
sg6
g2834
sg7
F65
sg8
S'physical'
p2837
sg9
I0
sg10
S'Single non-user'
p2838
sg12
S'Has a 30% chance to flinch the target.'
p2839
sg14
S'Bug'
p2840
sg16
F100
sbsS'Eruption'
p2841
(ipokeStructs
Move
p2842
(dp2843
g5
I5
sg6
g2841
sg7
F150
sg8
S'special'
p2844
sg9
I0
sg10
S'All enemies'
p2845
sg12
S"Does less damage as the user's HP decreases."
p2846
sg14
S'Fire'
p2847
sg16
F100
sbsS'Bone Rush'
p2848
(ipokeStructs
Move
p2849
(dp2850
g5
I10
sg6
g2848
sg7
F25
sg8
S'physical'
p2851
sg9
I0
sg10
S'Single non-user'
p2852
sg12
S'Hits 2-5 times in one turn.'
p2853
sg14
S'Ground'
p2854
sg16
F80
sbsS'Ice Shard'
p2855
(ipokeStructs
Move
p2856
(dp2857
g5
I30
sg6
g2855
sg7
F40
sg8
S'physical'
p2858
sg9
I1
sg10
S'Single non-user'
p2859
sg12
S'The user always attacks first.'
p2860
sg14
S'Ice'
p2861
sg16
F100
sbsS'Giga Drain'
p2862
(ipokeStructs
Move
p2863
(dp2864
g5
I10
sg6
g2862
sg7
F75
sg8
S'special'
p2865
sg9
I0
sg10
S'Single non-user'
p2866
sg12
S'Leeches 50% of the damage dealt.'
p2867
sg14
S'Grass'
p2868
sg16
F100
sbsS'Tackle'
p2869
(ipokeStructs
Move
p2870
(dp2871
g5
I35
sg6
g2869
sg7
F50
sg8
S'physical'
p2872
sg9
I0
sg10
S'Single non-user'
p2873
sg12
S'No additional effect.'
p2874
sg14
S'Normal'
p2875
sg16
F100
sbsS'Coil'
p2876
(ipokeStructs
Move
p2877
(dp2878
g5
I20
sg6
g2876
sg7
Nsg8
S'-'
sg9
I0
sg10
S'User'
p2879
sg12
S"Boosts user's Attack, Defense, and accuracy by 1 stage."
p2880
sg14
S'Poison'
p2881
sg16
NsbsS'Hammer Arm'
p2882
(ipokeStructs
Move
p2883
(dp2884
g5
I10
sg6
g2882
sg7
F100
sg8
S'physical'
p2885
sg9
I0
sg10
S'Single non-user'
p2886
sg12
S"Lowers user's Speed by 1 stage."
p2887
sg14
S'Fighting'
p2888
sg16
F90
sbsS'Clamp'
p2889
(ipokeStructs
Move
p2890
(dp2891
g5
I10
sg6
g2889
sg7
F35
sg8
S'physical'
p2892
sg9
I0
sg10
S'Single non-user'
p2893
sg12
S'Traps and damages the target over 4-5 turns.'
p2894
sg14
S'Water'
p2895
sg16
F85
sbsS'Bullet Punch'
p2896
(ipokeStructs
Move
p2897
(dp2898
g5
I30
sg6
g2896
sg7
F40
sg8
S'physical'
p2899
sg9
I1
sg10
S'Single non-user'
p2900
sg12
S'The user always attacks first.'
p2901
sg14
S'Steel'
p2902
sg16
F100
sbsS'Cross Chop'
p2903
(ipokeStructs
Move
p2904
(dp2905
g5
I5
sg6
g2903
sg7
F100
sg8
S'physical'
p2906
sg9
I0
sg10
S'Single non-user'
p2907
sg12
S'Has a high critical hit rate.'
p2908
sg14
S'Fighting'
p2909
sg16
F80
sbsS'Dig'
p2910
(ipokeStructs
Move
p2911
(dp2912
g5
I10
sg6
g2910
sg7
F80
sg8
S'physical'
p2913
sg9
I0
sg10
S'Single non-user'
p2914
sg12
S'User is made invulnerable for one turn, then hits the next turn.'
p2915
sg14
S'Ground'
p2916
sg16
F100
sbsS'Ember'
p2917
(ipokeStructs
Move
p2918
(dp2919
g5
I25
sg6
g2917
sg7
F40
sg8
S'special'
p2920
sg9
I0
sg10
S'Single non-user'
p2921
sg12
S'10% chance to burn the target.'
p2922
sg14
S'Fire'
p2923
sg16
F100
sbsS'Icicle Crash'
p2924
(ipokeStructs
Move
p2925
(dp2926
g5
I10
sg6
g2924
sg7
F85
sg8
S'physical'
p2927
sg9
I0
sg10
S'Single non-user'
p2928
sg12
S'30% chance to flinch the target.'
p2929
sg14
S'Ice'
p2930
sg16
F90
sbsS'Entrainment'
p2931
(ipokeStructs
Move
p2932
(dp2933
g5
I15
sg6
g2931
sg7
Nsg8
S'-'
sg9
I0
sg10
S'Single non-user'
p2934
sg12
S"Changes the target's ability to that of the user."
p2935
sg14
S'Normal'
p2936
sg16
F100
sbsS'Hi Jump Kick'
p2937
(ipokeStructs
Move
p2938
(dp2939
g5
I10
sg6
g2937
sg7
F130
sg8
S'physical'
p2940
sg9
I0
sg10
S'Single non-user'
p2941
sg12
S'User takes 50% recoil if attack misses.'
p2942
sg14
S'Fighting'
p2943
sg16
F90
sbsS'Psybeam'
p2944
(ipokeStructs
Move
p2945
(dp2946
g5
I20
sg6
g2944
sg7
F65
sg8
S'special'
p2947
sg9
I0
sg10
S'Single non-user'
p2948
sg12
S'10% chance to confuse the target.'
p2949
sg14
S'Psychic'
p2950
sg16
F100
sbsS'Follow Me'
p2951
(ipokeStructs
Move
p2952
(dp2953
g5
I20
sg6
g2951
sg7
Nsg8
S'-'
sg9
I3
sg10
S'User'
p2954
sg12
S'All moves target the user.'
p2955
sg14
S'Normal'
p2956
sg16
NsbsS'Glare'
p2957
(ipokeStructs
Move
p2958
(dp2959
g5
I30
sg6
g2957
sg7
Nsg8
S'-'
sg9
I0
sg10
S'Single non-user'
p2960
sg12
S'Paralyzes opponent.'
p2961
sg14
S'Normal'
p2962
sg16
F90
sbsS'Shock Wave'
p2963
(ipokeStructs
Move
p2964
(dp2965
g5
I20
sg6
g2963
sg7
F60
sg8
S'special'
p2966
sg9
I0
sg10
S'Single non-user'
p2967
sg12
S'Ignores evasion modifiers.'
p2968
sg14
S'Electric'
p2969
sg16
NsbsS'Sunny Day'
p2970
(ipokeStructs
Move
p2971
(dp2972
g5
I5
sg6
g2970
sg7
Nsg8
S'-'
sg9
I0
sg10
S'All'
p2973
sg12
S'Summons sunlight for five turns.'
p2974
sg14
S'Fire'
p2975
sg16
NsbsS'Sucker Punch'
p2976
(ipokeStructs
Move
p2977
(dp2978
g5
I5
sg6
g2976
sg7
F80
sg8
S'physical'
p2979
sg9
I1
sg10
S'Single non-user'
p2980
sg12
S'The user always moves first. Will only work if the foe attacks on the same turn.'
p2981
sg14
S'Dark'
p2982
sg16
F100
sbsS'Dragon Dance'
p2983
(ipokeStructs
Move
p2984
(dp2985
g5
I20
sg6
g2983
sg7
Nsg8
S'-'
sg9
I0
sg10
S'User'
p2986
sg12
S"Boosts user's Attack and Speed by 1 stage."
p2987
sg14
S'Dragon'
p2988
sg16
NsbsS'Sludge'
p2989
(ipokeStructs
Move
p2990
(dp2991
g5
I20
sg6
g2989
sg7
F65
sg8
S'special'
p2992
sg9
I0
sg10
S'Single non-user'
p2993
sg12
S'30% chance to poison the target.'
p2994
sg14
S'Poison'
p2995
sg16
F100
sbsS'Recover'
p2996
(ipokeStructs
Move
p2997
(dp2998
g5
I10
sg6
g2996
sg7
Nsg8
S'-'
sg9
I0
sg10
S'User'
p2999
sg12
S"Heals 50% of user's max HP."
p3000
sg14
S'Normal'
p3001
sg16
NsbsS'Struggle'
p3002
(ipokeStructs
Move
p3003
(dp3004
g5
I1
sg6
g3002
sg7
F50
sg8
S'physical'
p3005
sg9
I0
sg10
S'Single non-user'
p3006
sg12
S'User loses 25% of its max HP as recoil.'
p3007
sg14
S'Normal'
p3008
sg16
NsbsS'Helping Hand'
p3009
(ipokeStructs
Move
p3010
(dp3011
g5
I20
sg6
g3009
sg7
Nsg8
S'-'
sg9
I5
sg10
S'Partner'
p3012
sg12
S"Increases Base Power of ally's moves 50%."
p3013
sg14
S'Normal'
p3014
sg16
NsbsS'Scald'
p3015
(ipokeStructs
Move
p3016
(dp3017
g5
I15
sg6
g3015
sg7
F80
sg8
S'special'
p3018
sg9
I0
sg10
S'Single non-user'
p3019
sg12
S'30% chance to burn the target. Thaws the user.'
p3020
sg14
S'Water'
p3021
sg16
F100
sbsS'Lava Plume'
p3022
(ipokeStructs
Move
p3023
(dp3024
g5
I15
sg6
g3022
sg7
F80
sg8
S'special'
p3025
sg9
I0
sg10
S'All others'
p3026
sg12
S'30% chance to burn.'
p3027
sg14
S'Fire'
p3028
sg16
F100
sbsS'Mist Ball'
p3029
(ipokeStructs
Move
p3030
(dp3031
g5
I5
sg6
g3029
sg7
F70
sg8
S'special'
p3032
sg9
I0
sg10
S'Single non-user'
p3033
sg12
S"50% chance to lower target's Special Attack by 1 stage."
p3034
sg14
S'Psychic'
p3035
sg16
F100
sbsS'Thunder'
p3036
(ipokeStructs
Move
p3037
(dp3038
g5
I10
sg6
g3036
sg7
F120
sg8
S'special'
p3039
sg9
I0
sg10
S'Single non-user'
p3040
sg12
S'30% chance to paralyze the target.'
p3041
sg14
S'Electric'
p3042
sg16
F70
sbsS'Aromatherapy'
p3043
(ipokeStructs
Move
p3044
(dp3045
g5
I5
sg6
g3043
sg7
Nsg8
S'-'
sg9
I0
sg10
S'User party'
p3046
sg12
S'Cures status ailments on the user and other party members.'
p3047
sg14
S'Grass'
p3048
sg16
NsbsS'Dual Chop'
p3049
(ipokeStructs
Move
p3050
(dp3051
g5
I15
sg6
g3049
sg7
F40
sg8
S'physical'
p3052
sg9
I0
sg10
S'Single non-user'
p3053
sg12
S'Hits 2 times in one turn.'
p3054
sg14
S'Dragon'
p3055
sg16
F90
sbsS'Sacred Fire'
p3056
(ipokeStructs
Move
p3057
(dp3058
g5
I5
sg6
g3056
sg7
F100
sg8
S'physical'
p3059
sg9
I0
sg10
S'Single non-user'
p3060
sg12
S'50% chance to burn the target. Thaws the user.'
p3061
sg14
S'Fire'
p3062
sg16
F95
sbsS'Bone Club'
p3063
(ipokeStructs
Move
p3064
(dp3065
g5
I20
sg6
g3063
sg7
F65
sg8
S'physical'
p3066
sg9
I0
sg10
S'Single non-user'
p3067
sg12
S'10% chance to flinch the target.'
p3068
sg14
S'Ground'
p3069
sg16
F85
sbsS'Bullet Seed'
p3070
(ipokeStructs
Move
p3071
(dp3072
g5
I30
sg6
g3070
sg7
F25
sg8
S'physical'
p3073
sg9
I0
sg10
S'Single non-user'
p3074
sg12
S'Hits 2-5 times in one turn.'
p3075
sg14
S'Grass'
p3076
sg16
F100
sbsS'Egg Bomb'
p3077
(ipokeStructs
Move
p3078
(dp3079
g5
I10
sg6
g3077
sg7
F100
sg8
S'physical'
p3080
sg9
I0
sg10
S'Single non-user'
p3081
sg12
S'No additional effect.'
p3082
sg14
S'Normal'
p3083
sg16
F75
sbsS'Assurance'
p3084
(ipokeStructs
Move
p3085
(dp3086
g5
I10
sg6
g3084
sg7
F50
sg8
S'physical'
p3087
sg9
I0
sg10
S'Single non-user'
p3088
sg12
S'Base Power doubles if the target takes damage in the same turn, before the attack hits.'
p3089
sg14
S'Dark'
p3090
sg16
F100
sbsS'Cotton Guard'
p3091
(ipokeStructs
Move
p3092
(dp3093
g5
I10
sg6
g3091
sg7
Nsg8
S'-'
sg9
I0
sg10
S'User'
p3094
sg12
S"Boosts user's Defense by 3 stages."
p3095
sg14
S'Grass'
p3096
sg16
NsbsS'Snatch'
p3097
(ipokeStructs
Move
p3098
(dp3099
g5
I10
sg6
g3097
sg7
Nsg8
S'-'
sg9
I4
sg10
S'User'
p3100
sg12
S'If certain moves are used, the user of Snatch uses the moves instead.'
p3101
sg14
S'Dark'
p3102
sg16
NsbsS'Trump Card'
p3103
(ipokeStructs
Move
p3104
(dp3105
g5
I5
sg6
g3103
sg7
F1
sg8
S'special'
p3106
sg9
I0
sg10
S'Single non-user'
p3107
sg12
S'Power increases as PP decreases.'
p3108
sg14
S'Normal'
p3109
sg16
NsbsS'X-Scissor'
p3110
(ipokeStructs
Move
p3111
(dp3112
g5
I15
sg6
g3110
sg7
F80
sg8
S'physical'
p3113
sg9
I0
sg10
S'Single non-user'
p3114
sg12
S'No additional effect.'
p3115
sg14
S'Bug'
p3116
sg16
F100
sbsS'Submission'
p3117
(ipokeStructs
Move
p3118
(dp3119
g5
I25
sg6
g3117
sg7
F80
sg8
S'physical'
p3120
sg9
I0
sg10
S'Single non-user'
p3121
sg12
S'Has 1/4 recoil.'
p3122
sg14
S'Fighting'
p3123
sg16
F80
sbsS'Gust'
p3124
(ipokeStructs
Move
p3125
(dp3126
g5
I35
sg6
g3124
sg7
F40
sg8
S'special'
p3127
sg9
I0
sg10
S'Single non-user'
p3128
sg12
S'Deals damage. Hits Pokemon using Bounce, Fly, or Sky Drop for double Base Power.'
p3129
sg14
S'Flying'
p3130
sg16
F100
sbsS'Fire Spin'
p3131
(ipokeStructs
Move
p3132
(dp3133
g5
I15
sg6
g3131
sg7
F35
sg8
S'special'
p3134
sg9
I0
sg10
S'Single non-user'
p3135
sg12
S'Traps and damages the target for 4-5 turns.'
p3136
sg14
S'Fire'
p3137
sg16
F85
sbsS'Swallow'
p3138
(ipokeStructs
Move
p3139
(dp3140
g5
I10
sg6
g3138
sg7
Nsg8
S'-'
sg9
I0
sg10
S'User'
p3141
sg12
S'Healing varies based on the number of uses of Stockpile.'
p3142
sg14
S'Normal'
p3143
sg16
NsbsS'Odor Sleuth'
p3144
(ipokeStructs
Move
p3145
(dp3146
g5
I40
sg6
g3144
sg7
Nsg8
S'-'
sg9
I0
sg10
S'Single non-user'
p3147
sg12
S"Blocks evasion modifiers. Allows user's Fighting- and Normal-type moves to hit Ghosts."
p3148
sg14
S'Normal'
p3149
sg16
NsbsS'Gyro Ball'
p3150
(ipokeStructs
Move
p3151
(dp3152
g5
I5
sg6
g3150
sg7
F1
sg8
S'physical'
p3153
sg9
I0
sg10
S'Single non-user'
p3154
sg12
S"Does damage based on both the user's and the target's Speed."
p3155
sg14
S'Steel'
p3156
sg16
F100
sbsS'Nature Power'
p3157
(ipokeStructs
Move
p3158
(dp3159
g5
I20
sg6
g3157
sg7
Nsg8
S'-'
sg9
I0
sg10
S'None'
p3160
sg12
S'Attack changes based on terrain. Becomes Earthquake in Wi-Fi battles.'
p3161
sg14
S'Normal'
p3162
sg16
NsbsS'Stored Power'
p3163
(ipokeStructs
Move
p3164
(dp3165
g5
I10
sg6
g3163
sg7
F20
sg8
S'special'
p3166
sg9
I0
sg10
S'Single non-user'
p3167
sg12
S'Varies in power depending on number of boosts accumulated by user.'
p3168
sg14
S'Psychic'
p3169
sg16
F100
sbsS'Low Sweep'
p3170
(ipokeStructs
Move
p3171
(dp3172
g5
I20
sg6
g3170
sg7
F60
sg8
S'physical'
p3173
sg9
I0
sg10
S'Single non-user'
p3174
sg12
S"Lowers target's Speed by 1 stage."
p3175
sg14
S'Fighting'
p3176
sg16
F100
sbsS'Will-O-Wisp'
p3177
(ipokeStructs
Move
p3178
(dp3179
g5
I15
sg6
g3177
sg7
Nsg8
S'-'
sg9
I0
sg10
S'Single non-user'
p3180
sg12
S'Burns the target.'
p3181
sg14
S'Fire'
p3182
sg16
F75
sbsS'Arm Thrust'
p3183
(ipokeStructs
Move
p3184
(dp3185
g5
I20
sg6
g3183
sg7
F15
sg8
S'physical'
p3186
sg9
I0
sg10
S'Single non-user'
p3187
sg12
S'Hits 2-5 times in one turn.'
p3188
sg14
S'Fighting'
p3189
sg16
F100
sbsS'Mud Sport'
p3190
(ipokeStructs
Move
p3191
(dp3192
g5
I15
sg6
g3190
sg7
Nsg8
S'-'
sg9
I0
sg10
S'All'
p3193
sg12
S'Electric-type attacks have their power reduced 0.33x.'
p3194
sg14
S'Ground'
p3195
sg16
NsbsS'Horn Leech'
p3196
(ipokeStructs
Move
p3197
(dp3198
g5
I10
sg6
g3196
sg7
F75
sg8
S'physical'
p3199
sg9
I0
sg10
S'Single non-user'
p3200
sg12
S'Leeches 50% of the damage dealt.'
p3201
sg14
S'Grass'
p3202
sg16
F100
sbsS'Mind Reader'
p3203
(ipokeStructs
Move
p3204
(dp3205
g5
I5
sg6
g3203
sg7
Nsg8
S'-'
sg9
I0
sg10
S'Single non-user'
p3206
sg12
S'The next move used will always hit.'
p3207
sg14
S'Normal'
p3208
sg16
NsbsS'Cut'
p3209
(ipokeStructs
Move
p3210
(dp3211
g5
I30
sg6
g3209
sg7
F50
sg8
S'physical'
p3212
sg9
I0
sg10
S'Single non-user'
p3213
sg12
S'No additional effect.'
p3214
sg14
S'Normal'
p3215
sg16
F95
sbsS'Cosmic Power'
p3216
(ipokeStructs
Move
p3217
(dp3218
g5
I20
sg6
g3216
sg7
Nsg8
S'-'
sg9
I0
sg10
S'User'
p3219
sg12
S"Boosts user's Defense and Special Defense by 1 stage."
p3220
sg14
S'Psychic'
p3221
sg16
NsbsS'Gear Grind'
p3222
(ipokeStructs
Move
p3223
(dp3224
g5
I15
sg6
g3222
sg7
F50
sg8
S'physical'
p3225
sg9
I0
sg10
S'Single non-user'
p3226
sg12
S'Hits 2 times in one turn.'
p3227
sg14
S'Steel'
p3228
sg16
F85
sbsS'Sky Drop'
p3229
(ipokeStructs
Move
p3230
(dp3231
g5
I10
sg6
g3229
sg7
F60
sg8
S'physical'
p3232
sg9
I0
sg10
S'Single non-user'
p3233
sg12
S'Hits the turn after being used. The target cannot move while in the air.'
p3234
sg14
S'Flying'
p3235
sg16
F100
sbsS'Weather Ball'
p3236
(ipokeStructs
Move
p3237
(dp3238
g5
I10
sg6
g3236
sg7
F50
sg8
S'special'
p3239
sg9
I0
sg10
S'Single non-user'
p3240
sg12
S'Changes type depending on the weather.'
p3241
sg14
S'Normal'
p3242
sg16
F100
sbsS'Double Hit'
p3243
(ipokeStructs
Move
p3244
(dp3245
g5
I10
sg6
g3243
sg7
F35
sg8
S'physical'
p3246
sg9
I0
sg10
S'Single non-user'
p3247
sg12
S'Hits 2 times in one turn.'
p3248
sg14
S'Normal'
p3249
sg16
F90
sbsS'Karate Chop'
p3250
(ipokeStructs
Move
p3251
(dp3252
g5
I25
sg6
g3250
sg7
F50
sg8
S'physical'
p3253
sg9
I0
sg10
S'Single non-user'
p3254
sg12
S'Has a high critical hit rate.'
p3255
sg14
S'Fighting'
p3256
sg16
F100
sbsS'Volt Tackle'
p3257
(ipokeStructs
Move
p3258
(dp3259
g5
I15
sg6
g3257
sg7
F120
sg8
S'physical'
p3260
sg9
I0
sg10
S'Single non-user'
p3261
sg12
S'1/3 recoil and 10% chance to paralyze the target.'
p3262
sg14
S'Electric'
p3263
sg16
F100
sbsS'Mirror Shot'
p3264
(ipokeStructs
Move
p3265
(dp3266
g5
I10
sg6
g3264
sg7
F65
sg8
S'special'
p3267
sg9
I0
sg10
S'Single non-user'
p3268
sg12
S"30% chance to lower target's accuracy by 1 stage."
p3269
sg14
S'Steel'
p3270
sg16
F85
sbsS'Swagger'
p3271
(ipokeStructs
Move
p3272
(dp3273
g5
I15
sg6
g3271
sg7
Nsg8
S'-'
sg9
I0
sg10
S'Single non-user'
p3274
sg12
S"Confuses the target and boosts the target's Attack by 2 stages."
p3275
sg14
S'Normal'
p3276
sg16
F90
sbsS'Power Trick'
p3277
(ipokeStructs
Move
p3278
(dp3279
g5
I10
sg6
g3277
sg7
Nsg8
S'-'
sg9
I0
sg10
S'User'
p3280
sg12
S'Switches Attack and Defense stats.'
p3281
sg14
S'Psychic'
p3282
sg16
NsbsS'Kinesis'
p3283
(ipokeStructs
Move
p3284
(dp3285
g5
I15
sg6
g3283
sg7
Nsg8
S'-'
sg9
I0
sg10
S'Single non-user'
p3286
sg12
S"Lowers target's accuracy by 1 stage."
p3287
sg14
S'Psychic'
p3288
sg16
F80
sbsS'Yawn'
p3289
(ipokeStructs
Move
p3290
(dp3291
g5
I10
sg6
g3289
sg7
Nsg8
S'-'
sg9
I0
sg10
S'Single non-user'
p3292
sg12
S'Puts the target to sleep after 2 turns.'
p3293
sg14
S'Normal'
p3294
sg16
NsbsS'Acid Spray'
p3295
(ipokeStructs
Move
p3296
(dp3297
g5
I20
sg6
g3295
sg7
F40
sg8
S'special'
p3298
sg9
I0
sg10
S'Single non-user'
p3299
sg12
S"Lowers target's Special Defense by 2 stages."
p3300
sg14
S'Poison'
p3301
sg16
F100
sbsS'Roost'
p3302
(ipokeStructs
Move
p3303
(dp3304
g5
I10
sg6
g3302
sg7
Nsg8
S'-'
sg9
I0
sg10
S'User'
p3305
sg12
S"Heals 50% HP. Temporarily removes the user's Flying typing."
p3306
sg14
S'Flying'
p3307
sg16
NsbsS'ExtremeSpeed'
p3308
(ipokeStructs
Move
p3309
(dp3310
g5
I5
sg6
g3308
sg7
F80
sg8
S'physical'
p3311
sg9
I2
sg10
S'Single non-user'
p3312
sg12
S'The user always attacks first.'
p3313
sg14
S'Normal'
p3314
sg16
F100
sbsS'Feint'
p3315
(ipokeStructs
Move
p3316
(dp3317
g5
I10
sg6
g3315
sg7
F30
sg8
S'physical'
p3318
sg9
I2
sg10
S'Single non-user'
p3319
sg12
S'Nullifies effect of Detect and Protect.'
p3320
sg14
S'Normal'
p3321
sg16
F100
sbsS'Bestow'
p3322
(ipokeStructs
Move
p3323
(dp3324
g5
I15
sg6
g3322
sg7
Nsg8
S'-'
sg9
I0
sg10
S'Single non-user'
p3325
sg12
S'User passes its held item to the target.'
p3326
sg14
S'Normal'
p3327
sg16
NsbsS'Fusion Flare'
p3328
(ipokeStructs
Move
p3329
(dp3330
g5
I5
sg6
g3328
sg7
F100
sg8
S'special'
p3331
sg9
I0
sg10
S'Single non-user'
p3332
sg12
S'Power doubles if used after Fusion Bolt.'
p3333
sg14
S'Fire'
p3334
sg16
F100
sbsS'Bonemerang'
p3335
(ipokeStructs
Move
p3336
(dp3337
g5
I10
sg6
g3335
sg7
F50
sg8
S'physical'
p3338
sg9
I0
sg10
S'Single non-user'
p3339
sg12
S'Hits 2 times in one turn.'
p3340
sg14
S'Ground'
p3341
sg16
F90
sbsS'Sheer Cold'
p3342
(ipokeStructs
Move
p3343
(dp3344
g5
I5
sg6
g3342
sg7
F1
sg8
S'special'
p3345
sg9
I0
sg10
S'Single non-user'
p3346
sg12
S'Will OHKO the target.'
p3347
sg14
S'Ice'
p3348
sg16
F30
sbsS'Fly'
p3349
(ipokeStructs
Move
p3350
(dp3351
g5
I15
sg6
g3349
sg7
F90
sg8
S'physical'
p3352
sg9
I0
sg10
S'Single non-user'
p3353
sg12
S'User is made invulnerable for one turn, then hits the next turn.'
p3354
sg14
S'Flying'
p3355
sg16
F95
sbsS'Incinerate'
p3356
(ipokeStructs
Move
p3357
(dp3358
g5
I15
sg6
g3356
sg7
F30
sg8
S'special'
p3359
sg9
I0
sg10
S'All enemies'
p3360
sg12
S"Removes the target's Berry."
p3361
sg14
S'Fire'
p3362
sg16
F100
sbsS'Fire Pledge'
p3363
(ipokeStructs
Move
p3364
(dp3365
g5
I10
sg6
g3363
sg7
F50
sg8
S'special'
p3366
sg9
I0
sg10
S'Single non-user'
p3367
sg12
S'Use with Grass Pledge and Water Pledge for additional effect.'
p3368
sg14
S'Fire'
p3369
sg16
F100
sbsS'Relic Song'
p3370
(ipokeStructs
Move
p3371
(dp3372
g5
I10
sg6
g3370
sg7
F75
sg8
S'special'
p3373
sg9
I0
sg10
S'All enemies'
p3374
sg12
S'10% chance to put target to sleep. If used by Meloetta, causes it to change from Aria Forme to Pirouette Forme.'
p3375
sg14
S'Normal'
p3376
sg16
F100
sbsS'Quiver Dance'
p3377
(ipokeStructs
Move
p3378
(dp3379
g5
I20
sg6
g3377
sg7
Nsg8
S'-'
sg9
I0
sg10
S'User'
p3380
sg12
S"Boosts the user's Special Attack, Special Defense, and Speed by 1 stage."
p3381
sg14
S'Bug'
p3382
sg16
NsbsS'Autotomize'
p3383
(ipokeStructs
Move
p3384
(dp3385
g5
I15
sg6
g3383
sg7
Nsg8
S'-'
sg9
I0
sg10
S'User'
p3386
sg12
S"Boosts user's Speed by 2 stages. Reduces user's weight."
p3387
sg14
S'Steel'
p3388
sg16
NsbsS'Foresight'
p3389
(ipokeStructs
Move
p3390
(dp3391
g5
I40
sg6
g3389
sg7
Nsg8
S'-'
sg9
I0
sg10
S'Single non-user'
p3392
sg12
S"Blocks evasion modifiers. Allows user's Fighting- and Normal-type moves to hit Ghosts."
p3393
sg14
S'Normal'
p3394
sg16
NsbsS'DoubleSlap'
p3395
(ipokeStructs
Move
p3396
(dp3397
g5
I10
sg6
g3395
sg7
F15
sg8
S'physical'
p3398
sg9
I0
sg10
S'Single non-user'
p3399
sg12
S'Hits 2-5 times in one turn.'
p3400
sg14
S'Normal'
p3401
sg16
F85
sbsS'Bug Bite'
p3402
(ipokeStructs
Move
p3403
(dp3404
g5
I20
sg6
g3402
sg7
F60
sg8
S'physical'
p3405
sg9
I0
sg10
S'Single non-user'
p3406
sg12
S"User steals the effect of the target's held Berry."
p3407
sg14
S'Bug'
p3408
sg16
F100
sbsS'Take Down'
p3409
(ipokeStructs
Move
p3410
(dp3411
g5
I20
sg6
g3409
sg7
F90
sg8
S'physical'
p3412
sg9
I0
sg10
S'Single non-user'
p3413
sg12
S'Has 1/4 recoil.'
p3414
sg14
S'Normal'
p3415
sg16
F85
sbsS'Rolling Kick'
p3416
(ipokeStructs
Move
p3417
(dp3418
g5
I15
sg6
g3416
sg7
F60
sg8
S'physical'
p3419
sg9
I0
sg10
S'Single non-user'
p3420
sg12
S'30% chance to flinch the target.'
p3421
sg14
S'Fighting'
p3422
sg16
F85
sbsS'Iron Head'
p3423
(ipokeStructs
Move
p3424
(dp3425
g5
I15
sg6
g3423
sg7
F80
sg8
S'physical'
p3426
sg9
I0
sg10
S'Single non-user'
p3427
sg12
S'30% chance to flinch the target.'
p3428
sg14
S'Steel'
p3429
sg16
F100
sbsS'Howl'
p3430
(ipokeStructs
Move
p3431
(dp3432
g5
I40
sg6
g3430
sg7
Nsg8
S'-'
sg9
I0
sg10
S'User'
p3433
sg12
S"Boosts user's Attack by 1 stage."
p3434
sg14
S'Normal'
p3435
sg16
NsbsS'Aqua Ring'
p3436
(ipokeStructs
Move
p3437
(dp3438
g5
I20
sg6
g3436
sg7
Nsg8
S'-'
sg9
I0
sg10
S'User'
p3439
sg12
S'User recovers 1/16th max HP each turn.'
p3440
sg14
S'Water'
p3441
sg16
NsbsS'Blue Flare'
p3442
(ipokeStructs
Move
p3443
(dp3444
g5
I5
sg6
g3442
sg7
F130
sg8
S'special'
p3445
sg9
I0
sg10
S'Single non-user'
p3446
sg12
S'20% chance to burn the target.'
p3447
sg14
S'Fire'
p3448
sg16
F85
sbsS'Softboiled'
p3449
(ipokeStructs
Move
p3450
(dp3451
g5
I10
sg6
g3449
sg7
Nsg8
S'-'
sg9
I0
sg10
S'User'
p3452
sg12
S"Heals 50% of user's max HP."
p3453
sg14
S'Normal'
p3454
sg16
NsbsS'Heat Wave'
p3455
(ipokeStructs
Move
p3456
(dp3457
g5
I10
sg6
g3455
sg7
F100
sg8
S'special'
p3458
sg9
I0
sg10
S'All enemies'
p3459
sg12
S'10% chance to burn the target.'
p3460
sg14
S'Fire'
p3461
sg16
F90
sbsS'Defend Order'
p3462
(ipokeStructs
Move
p3463
(dp3464
g5
I10
sg6
g3462
sg7
Nsg8
S'-'
sg9
I0
sg10
S'User'
p3465
sg12
S"Boosts user's Defense and Special Defense by 1 stage."
p3466
sg14
S'Bug'
p3467
sg16
NsbsS'Scratch'
p3468
(ipokeStructs
Move
p3469
(dp3470
g5
I35
sg6
g3468
sg7
F40
sg8
S'physical'
p3471
sg9
I0
sg10
S'Single non-user'
p3472
sg12
S'No additional effect.'
p3473
sg14
S'Normal'
p3474
sg16
F100
sbsS'Fake Out'
p3475
(ipokeStructs
Move
p3476
(dp3477
g5
I10
sg6
g3475
sg7
F40
sg8
S'physical'
p3478
sg9
I3
sg10
S'Single non-user'
p3479
sg12
S'The user always attacks first, and flinches the foe. Can only be used on the first turn out.'
p3480
sg14
S'Normal'
p3481
sg16
F100
sbsS'Leaf Storm'
p3482
(ipokeStructs
Move
p3483
(dp3484
g5
I5
sg6
g3482
sg7
F140
sg8
S'special'
p3485
sg9
I0
sg10
S'Single non-user'
p3486
sg12
S"Lowers user's Special Attack by 2 stages."
p3487
sg14
S'Grass'
p3488
sg16
F90
sbsS'Overheat'
p3489
(ipokeStructs
Move
p3490
(dp3491
g5
I5
sg6
g3489
sg7
F140
sg8
S'special'
p3492
sg9
I0
sg10
S'Single non-user'
p3493
sg12
S"Lowers user's Special Attack by 2 stages."
p3494
sg14
S'Fire'
p3495
sg16
F90
sbsS'Dragon Rush'
p3496
(ipokeStructs
Move
p3497
(dp3498
g5
I10
sg6
g3496
sg7
F100
sg8
S'physical'
p3499
sg9
I0
sg10
S'Single non-user'
p3500
sg12
S'20% chance to flinch the target.'
p3501
sg14
S'Dragon'
p3502
sg16
F75
sbsS'Struggle Bug'
p3503
(ipokeStructs
Move
p3504
(dp3505
g5
I20
sg6
g3503
sg7
F30
sg8
S'special'
p3506
sg9
I0
sg10
S'All enemies'
p3507
sg12
S"Lowers target's Special Attack by 1 stage."
p3508
sg14
S'Bug'
p3509
sg16
F100
sbsS'Dragon Rage'
p3510
(ipokeStructs
Move
p3511
(dp3512
g5
I10
sg6
g3510
sg7
F1
sg8
S'special'
p3513
sg9
I0
sg10
S'Single non-user'
p3514
sg12
S'Always does 40 HP damage.'
p3515
sg14
S'Dragon'
p3516
sg16
F100
sbsS'Thunder Fang'
p3517
(ipokeStructs
Move
p3518
(dp3519
g5
I15
sg6
g3517
sg7
F65
sg8
S'physical'
p3520
sg9
I0
sg10
S'Single non-user'
p3521
sg12
S'10% chance to paralyze the target. 10% chance to flinch the target.'
p3522
sg14
S'Electric'
p3523
sg16
F95
sbsS'Hyper Fang'
p3524
(ipokeStructs
Move
p3525
(dp3526
g5
I15
sg6
g3524
sg7
F80
sg8
S'physical'
p3527
sg9
I0
sg10
S'Single non-user'
p3528
sg12
S'10% chance to flinch the target.'
p3529
sg14
S'Normal'
p3530
sg16
F90
sbsS'Beat Up'
p3531
(ipokeStructs
Move
p3532
(dp3533
g5
I10
sg6
g3531
sg7
F1
sg8
S'physical'
p3534
sg9
I0
sg10
S'Single non-user'
p3535
sg12
S'All healthy Pokemon aid in damaging the target.'
p3536
sg14
S'Dark'
p3537
sg16
F100
sbsS'Heal Block'
p3538
(ipokeStructs
Move
p3539
(dp3540
g5
I15
sg6
g3538
sg7
Nsg8
S'-'
sg9
I0
sg10
S'All enemies'
p3541
sg12
S'Prevents opponents from healing for 5 turns.'
p3542
sg14
S'Psychic'
p3543
sg16
F100
sbsS'Explosion'
p3544
(ipokeStructs
Move
p3545
(dp3546
g5
I5
sg6
g3544
sg7
F250
sg8
S'physical'
p3547
sg9
I0
sg10
S'All others'
p3548
sg12
S'Faints the user.'
p3549
sg14
S'Normal'
p3550
sg16
F100
sbsS'Barrier'
p3551
(ipokeStructs
Move
p3552
(dp3553
g5
I30
sg6
g3551
sg7
Nsg8
S'-'
sg9
I0
sg10
S'User'
p3554
sg12
S"Boosts user's Defense by 2 stages."
p3555
sg14
S'Psychic'
p3556
sg16
NsbsS'Heal Order'
p3557
(ipokeStructs
Move
p3558
(dp3559
g5
I10
sg6
g3557
sg7
Nsg8
S'-'
sg9
I0
sg10
S'User'
p3560
sg12
S'Heals the user by 50% its max HP.'
p3561
sg14
S'Bug'
p3562
sg16
NsbsS'Heal Pulse'
p3563
(ipokeStructs
Move
p3564
(dp3565
g5
I10
sg6
g3563
sg7
Nsg8
S'-'
sg9
I0
sg10
S'Single non-user'
p3566
sg12
S'Heals the target by 50% its max HP.'
p3567
sg14
S'Psychic'
p3568
sg16
NsbsS'Head Smash'
p3569
(ipokeStructs
Move
p3570
(dp3571
g5
I5
sg6
g3569
sg7
F150
sg8
S'physical'
p3572
sg9
I0
sg10
S'Single non-user'
p3573
sg12
S'Has 50% recoil.'
p3574
sg14
S'Rock'
p3575
sg16
F80
sbsS'Faint Attack'
p3576
(ipokeStructs
Move
p3577
(dp3578
g5
I20
sg6
g3576
sg7
F60
sg8
S'physical'
p3579
sg9
I0
sg10
S'Single non-user'
p3580
sg12
S'Ignores evasion modifiers.'
p3581
sg14
S'Dark'
p3582
sg16
NsbsS'Disable'
p3583
(ipokeStructs
Move
p3584
(dp3585
g5
I20
sg6
g3583
sg7
Nsg8
S'-'
sg9
I0
sg10
S'Single non-user'
p3586
sg12
S'Prevents the last move used from being used again for 4 turns.'
p3587
sg14
S'Normal'
p3588
sg16
F100
sbsS'Fusion Bolt'
p3589
(ipokeStructs
Move
p3590
(dp3591
g5
I5
sg6
g3589
sg7
F100
sg8
S'physical'
p3592
sg9
I0
sg10
S'Single non-user'
p3593
sg12
S'Power doubles if used after Fusion Flare.'
p3594
sg14
S'Electric'
p3595
sg16
F100
sbsS'Rollout'
p3596
(ipokeStructs
Move
p3597
(dp3598
g5
I20
sg6
g3596
sg7
F30
sg8
S'physical'
p3599
sg9
I0
sg10
S'Single non-user'
p3600
sg12
S'Doubles in power with each hit. Repeats for five turns.'
p3601
sg14
S'Rock'
p3602
sg16
F90
sbsS'Knock Off'
p3603
(ipokeStructs
Move
p3604
(dp3605
g5
I20
sg6
g3603
sg7
F20
sg8
S'physical'
p3606
sg9
I0
sg10
S'Single non-user'
p3607
sg12
S"Removes the target's held item."
p3608
sg14
S'Dark'
p3609
sg16
F100
sbsS'BubbleBeam'
p3610
(ipokeStructs
Move
p3611
(dp3612
g5
I20
sg6
g3610
sg7
F65
sg8
S'special'
p3613
sg9
I0
sg10
S'Single non-user'
p3614
sg12
S"10% chance to lower target's Speed by 1 stage."
p3615
sg14
S'Water'
p3616
sg16
F100
sbsS'Psystrike'
p3617
(ipokeStructs
Move
p3618
(dp3619
g5
I10
sg6
g3617
sg7
F100
sg8
S'special'
p3620
sg9
I0
sg10
S'Single non-user'
p3621
sg12
S"Damage is based on the target's Defense stat."
p3622
sg14
S'Psychic'
p3623
sg16
F100
sbsS'Perish Song'
p3624
(ipokeStructs
Move
p3625
(dp3626
g5
I5
sg6
g3624
sg7
Nsg8
S'-'
sg9
I0
sg10
S'All'
p3627
sg12
S'All active Pokemon that hear the song faint after 3 turns.'
p3628
sg14
S'Normal'
p3629
sg16
NsbsS'Air Slash'
p3630
(ipokeStructs
Move
p3631
(dp3632
g5
I20
sg6
g3630
sg7
F75
sg8
S'special'
p3633
sg9
I0
sg10
S'Single non-user'
p3634
sg12
S'30% chance to flinch the target.'
p3635
sg14
S'Flying'
p3636
sg16
F95
sbsS'Sludge Bomb'
p3637
(ipokeStructs
Move
p3638
(dp3639
g5
I10
sg6
g3637
sg7
F90
sg8
S'special'
p3640
sg9
I0
sg10
S'Single non-user'
p3641
sg12
S'30% chance to poison the target.'
p3642
sg14
S'Poison'
p3643
sg16
F100
sbsS'Moonlight'
p3644
(ipokeStructs
Move
p3645
(dp3646
g5
I5
sg6
g3644
sg7
Nsg8
S'-'
sg9
I0
sg10
S'User'
p3647
sg12
S'Heals user variably depending on the weather.'
p3648
sg14
S'Normal'
p3649
sg16
NsbsS'Tail Glow'
p3650
(ipokeStructs
Move
p3651
(dp3652
g5
I20
sg6
g3650
sg7
Nsg8
S'-'
sg9
I0
sg10
S'User'
p3653
sg12
S"Boosts user's Special Attack by 3 stages."
p3654
sg14
S'Bug'
p3655
sg16
NsbsS'Stockpile'
p3656
(ipokeStructs
Move
p3657
(dp3658
g5
I20
sg6
g3656
sg7
Nsg8
S'-'
sg9
I0
sg10
S'User'
p3659
sg12
S"Boosts the user's Defense and Special Defense by 1 stage. Sets the user up to use Spit Up or Swallow."
p3660
sg14
S'Normal'
p3661
sg16
NsbsS'Endure'
p3662
(ipokeStructs
Move
p3663
(dp3664
g5
I10
sg6
g3662
sg7
Nsg8
S'-'
sg9
I4
sg10
S'User'
p3665
sg12
S'The user always survives with at least 1 HP.'
p3666
sg14
S'Normal'
p3667
sg16
NsbsS'Imprison'
p3668
(ipokeStructs
Move
p3669
(dp3670
g5
I10
sg6
g3668
sg7
Nsg8
S'-'
sg9
I0
sg10
S'User'
p3671
sg12
S"No opponent can use any of the user's moves."
p3672
sg14
S'Psychic'
p3673
sg16
NsbsS'Wonder Room'
p3674
(ipokeStructs
Move
p3675
(dp3676
g5
I10
sg6
g3674
sg7
Nsg8
S'-'
sg9
I-7
sg10
S'All'
p3677
sg12
S'Swaps Defense and Special Defense of all Pokemon.'
p3678
sg14
S'Psychic'
p3679
sg16
NsbsS'Giga Impact'
p3680
(ipokeStructs
Move
p3681
(dp3682
g5
I5
sg6
g3680
sg7
F150
sg8
S'physical'
p3683
sg9
I0
sg10
S'Single non-user'
p3684
sg12
S'User cannot move next turn.'
p3685
sg14
S'Normal'
p3686
sg16
F90
sbsS'Blast Burn'
p3687
(ipokeStructs
Move
p3688
(dp3689
g5
I5
sg6
g3687
sg7
F150
sg8
S'special'
p3690
sg9
I0
sg10
S'Single non-user'
p3691
sg12
S'User cannot move next turn.'
p3692
sg14
S'Fire'
p3693
sg16
F90
sbsS'Powder Snow'
p3694
(ipokeStructs
Move
p3695
(dp3696
g5
I25
sg6
g3694
sg7
F40
sg8
S'special'
p3697
sg9
I0
sg10
S'All enemies'
p3698
sg12
S'10% chance to freeze the target.'
p3699
sg14
S'Ice'
p3700
sg16
F100
sbsS'U-turn'
p3701
(ipokeStructs
Move
p3702
(dp3703
g5
I20
sg6
g3701
sg7
F70
sg8
S'physical'
p3704
sg9
I0
sg10
S'Single non-user'
p3705
sg12
S'Forces user to switch.'
p3706
sg14
S'Bug'
p3707
sg16
F100
sbsS'Secret Sword'
p3708
(ipokeStructs
Move
p3709
(dp3710
g5
I10
sg6
g3708
sg7
F85
sg8
S'special'
p3711
sg9
I0
sg10
S'Single non-user'
p3712
sg12
S"Damage is based on the target's Defense stat."
p3713
sg14
S'Fighting'
p3714
sg16
F100
sbsS'Attack Order'
p3715
(ipokeStructs
Move
p3716
(dp3717
g5
I15
sg6
g3715
sg7
F90
sg8
S'physical'
p3718
sg9
I0
sg10
S'Single non-user'
p3719
sg12
S'Has a high critical hit rate.'
p3720
sg14
S'Bug'
p3721
sg16
F100
sbsS'Luster Purge'
p3722
(ipokeStructs
Move
p3723
(dp3724
g5
I5
sg6
g3722
sg7
F70
sg8
S'special'
p3725
sg9
I0
sg10
S'Single non-user'
p3726
sg12
S"50% chance to lower target's Special Defense by 1 stage."
p3727
sg14
S'Psychic'
p3728
sg16
F100
sbs.