(dp1
S'Detect'
p2
(ipokeStructs
Move
p3
(dp4
S'PP'
p5
I5
sS'Name'
p6
g2
sS'Power'
p7
NsS'Damage'
p8
S'non-damaging'
p9
sS'Priority'
p10
I0
sS'Target'
p11
S'self'
p12
sS'Description'
p13
S'Prevents anything from working on the user that turn.'
p14
sS'Type'
p15
S'Fighting'
p16
sS'Accuracy'
p17
NsbsS'Fissure'
p18
(ipokeStructs
Move
p19
(dp20
g5
I5
sg6
g18
sg7
Nsg8
S'physical'
p21
sg10
I0
sg11
g12
sg13
S'Will OHKO the target.'
p22
sg15
S'Ground'
p23
sg17
F30
sbsS'Petal Dance'
p24
(ipokeStructs
Move
p25
(dp26
g5
I10
sg6
g24
sg7
F120
sg8
S'special'
p27
sg10
I0
sg11
g12
sg13
S'Repeats for 2-3 turns. Confuses the user at the end.'
p28
sg15
S'Grass'
p29
sg17
F100
sbsS'Horn Attack'
p30
(ipokeStructs
Move
p31
(dp32
g5
I25
sg6
g30
sg7
F65
sg8
S'physical'
p33
sg10
I0
sg11
g12
sg13
S'No additional effect.'
p34
sg15
S'Normal'
p35
sg17
F100
sbsS'Dragon Claw'
p36
(ipokeStructs
Move
p37
(dp38
g5
I15
sg6
g36
sg7
F80
sg8
S'physical'
p39
sg10
I0
sg11
g12
sg13
S'No additional effect.'
p40
sg15
S'Dragon'
p41
sg17
F100
sbsS'Freeze-Dry'
p42
(ipokeStructs
Move
p43
(dp44
g5
I20
sg6
g42
sg7
F70
sg8
S'special'
p45
sg10
I0
sg11
g12
sg13
S'Deals damage to one adjacent target with a 10% chance to freeze it. Super effective against Water-type Pokemon'
p46
sg15
S'Ice'
p47
sg17
F100
sbsS'Psyshock'
p48
(ipokeStructs
Move
p49
(dp50
g5
I10
sg6
g48
sg7
F80
sg8
S'special'
p51
sg10
I0
sg11
g12
sg13
S"Damage is based on the target's Defense stat."
p52
sg15
S'Psychic'
p53
sg17
F100
sbsS'Bounce'
p54
(ipokeStructs
Move
p55
(dp56
g5
I5
sg6
g54
sg7
F85
sg8
S'physical'
p57
sg10
I0
sg11
g12
sg13
S'User is made invulnerable for one turn, then hits the next turn. 30% chance to paralyze.'
p58
sg15
S'Flying'
p59
sg17
F85
sbsS'Power Whip'
p60
(ipokeStructs
Move
p61
(dp62
g5
I10
sg6
g60
sg7
F120
sg8
S'physical'
p63
sg10
I0
sg11
g12
sg13
S'No additional effect.'
p64
sg15
S'Grass'
p65
sg17
F85
sbsS'Magnet Bomb'
p66
(ipokeStructs
Move
p67
(dp68
g5
I20
sg6
g66
sg7
F60
sg8
S'physical'
p69
sg10
I0
sg11
g12
sg13
S'Ignores accuracy modifiers.'
p70
sg15
S'Steel'
p71
sg17
NsbsS'Poison Fang'
p72
(ipokeStructs
Move
p73
(dp74
g5
I15
sg6
g72
sg7
F50
sg8
S'physical'
p75
sg10
I0
sg11
g12
sg13
S'30% chance to inflict bad poison.'
p76
sg15
S'Poison'
p77
sg17
F100
sbsS'Reflect'
p78
(ipokeStructs
Move
p79
(dp80
g5
I20
sg6
g78
sg7
Nsg8
S'non-damaging'
p81
sg10
I0
sg11
g12
sg13
S'Lowers damage from physical attacks for 5 turns.'
p82
sg15
S'Psychic'
p83
sg17
NsbsS'Confuse Ray'
p84
(ipokeStructs
Move
p85
(dp86
g5
I10
sg6
g84
sg7
Nsg8
S'non-damaging'
p87
sg10
I0
sg11
g12
sg13
S'Confuses the target.'
p88
sg15
S'Ghost'
p89
sg17
F100
sbsS'Soak'
p90
(ipokeStructs
Move
p91
(dp92
g5
I20
sg6
g90
sg7
Nsg8
S'non-damaging'
p93
sg10
I0
sg11
g12
sg13
S"Changes the target's type to Water."
p94
sg15
S'Water'
p95
sg17
F100
sbsS'Brave Bird'
p96
(ipokeStructs
Move
p97
(dp98
g5
I15
sg6
g96
sg7
F120
sg8
S'physical'
p99
sg10
I0
sg11
g12
sg13
S'Has 1/3 recoil damage.'
p100
sg15
S'Flying'
p101
sg17
F100
sbsS'Stomp'
p102
(ipokeStructs
Move
p103
(dp104
g5
I20
sg6
g102
sg7
F65
sg8
S'physical'
p105
sg10
I0
sg11
g12
sg13
S'30% chance to flinch.'
p106
sg15
S'Normal'
p107
sg17
F100
sbsS'Quick Attack'
p108
(ipokeStructs
Move
p109
(dp110
g5
I30
sg6
g108
sg7
F40
sg8
S'physical'
p111
sg10
I0
sg11
g12
sg13
S'The user always attacks first.'
p112
sg15
S'Normal'
p113
sg17
F100
sbsS'Razor Wind'
p114
(ipokeStructs
Move
p115
(dp116
g5
I10
sg6
g114
sg7
F80
sg8
S'special'
p117
sg10
I0
sg11
g12
sg13
S'Charges up the first turn; attacks on the second turn. Has a high critical hit rate.'
p118
sg15
S'Normal'
p119
sg17
F100
sbsS'Rock Polish'
p120
(ipokeStructs
Move
p121
(dp122
g5
I20
sg6
g120
sg7
Nsg8
S'non-damaging'
p123
sg10
I0
sg11
g12
sg13
S'Boosts Speed by 2 stages.'
p124
sg15
S'Rock'
p125
sg17
NsbsS'Power Gem'
p126
(ipokeStructs
Move
p127
(dp128
g5
I20
sg6
g126
sg7
F80
sg8
S'special'
p129
sg10
I0
sg11
g12
sg13
S'No additional effect.'
p130
sg15
S'Rock'
p131
sg17
F100
sbsS'Heal Bell'
p132
(ipokeStructs
Move
p133
(dp134
g5
I5
sg6
g132
sg7
Nsg8
S'non-damaging'
p135
sg10
I0
sg11
g12
sg13
S"Cures status on the user's team."
p136
sg15
S'Normal'
p137
sg17
NsbsS'Infestation'
p138
(ipokeStructs
Move
p139
(dp140
g5
I20
sg6
g138
sg7
F20
sg8
S'special'
p141
sg10
I0
sg11
g12
sg13
S'Traps and damages target for 4-5 turns.'
p142
sg15
S'Bug'
p143
sg17
F100
sbsS'Psywave'
p144
(ipokeStructs
Move
p145
(dp146
g5
I15
sg6
g144
sg7
Nsg8
S'special'
p147
sg10
I0
sg11
g12
sg13
S"Does random damage equal to .5x-1.5x the user's level."
p148
sg15
S'Psychic'
p149
sg17
F80
sbsS'Shadow Claw'
p150
(ipokeStructs
Move
p151
(dp152
g5
I15
sg6
g150
sg7
F70
sg8
S'physical'
p153
sg10
I0
sg11
g12
sg13
S'Has a high critical hit rate.'
p154
sg15
S'Ghost'
p155
sg17
F100
sbsS'Present'
p156
(ipokeStructs
Move
p157
(dp158
g5
I15
sg6
g156
sg7
Nsg8
S'physical'
p159
sg10
I0
sg11
g12
sg13
S'Has random power and a chance to heal the target.'
p160
sg15
S'Normal'
p161
sg17
F90
sbsS'Gastro Acid'
p162
(ipokeStructs
Move
p163
(dp164
g5
I10
sg6
g162
sg7
Nsg8
S'non-damaging'
p165
sg10
I0
sg11
g12
sg13
S"Nullifies the foe's ability."
p166
sg15
S'Poison'
p167
sg17
F100
sbsS'Sweet Kiss'
p168
(ipokeStructs
Move
p169
(dp170
g5
I10
sg6
g168
sg7
Nsg8
S'non-damaging'
p171
sg10
I0
sg11
g12
sg13
S'Confuses the target.'
p172
sg15
S'Fairy'
p173
sg17
F75
sbsS'Refresh'
p174
(ipokeStructs
Move
p175
(dp176
g5
I20
sg6
g174
sg7
Nsg8
S'non-damaging'
p177
sg10
I0
sg11
g12
sg13
S'Removes status.'
p178
sg15
S'Normal'
p179
sg17
NsbsS'Hypnosis'
p180
(ipokeStructs
Move
p181
(dp182
g5
I20
sg6
g180
sg7
Nsg8
S'non-damaging'
p183
sg10
I0
sg11
g12
sg13
S'Puts the foe to sleep.'
p184
sg15
S'Psychic'
p185
sg17
F60
sbsS'Destiny Bond'
p186
(ipokeStructs
Move
p187
(dp188
g5
I5
sg6
g186
sg7
Nsg8
S'non-damaging'
p189
sg10
I0
sg11
g12
sg13
S'If the user faints, the foe faints.'
p190
sg15
S'Ghost'
p191
sg17
NsbsS"King's Shield"
p192
(ipokeStructs
Move
p193
(dp194
g5
I10
sg6
g192
sg7
Nsg8
S'non-damaging'
p195
sg10
I0
sg11
g12
sg13
S'Protects the user from attacks. Contactors get their Attack lowered by 2 stages. Priority +4'
p196
sg15
S'Steel'
p197
sg17
NsbsS'Rock Tomb'
p198
(ipokeStructs
Move
p199
(dp200
g5
I10
sg6
g198
sg7
F60
sg8
S'physical'
p201
sg10
I0
sg11
g12
sg13
S'Lowers Speed by 1 stage.'
p202
sg15
S'Rock'
p203
sg17
F95
sbsS'Trick Room'
p204
(ipokeStructs
Move
p205
(dp206
g5
I5
sg6
g204
sg7
Nsg8
S'non-damaging'
p207
sg10
I0
sg11
g12
sg13
S'Slower Pokemon move first for 5 turns.'
p208
sg15
S'Psychic'
p209
sg17
NsbsS'Punishment'
p210
(ipokeStructs
Move
p211
(dp212
g5
I5
sg6
g210
sg7
Nsg8
S'physical'
p213
sg10
I0
sg11
g12
sg13
S'Does more damage to foes with stat boosts.'
p214
sg15
S'Dark'
p215
sg17
F100
sbsS'Petal Blizzard'
p216
(ipokeStructs
Move
p217
(dp218
g5
I15
sg6
g216
sg7
F90
sg8
S'physical'
p219
sg10
I0
sg11
g12
sg13
S'Hits all adjacent Pokemon.'
p220
sg15
S'Grass'
p221
sg17
F100
sbsS'Rest'
p222
(ipokeStructs
Move
p223
(dp224
g5
I10
sg6
g222
sg7
Nsg8
S'non-damaging'
p225
sg10
I0
sg11
g12
sg13
S'The user goes to sleep for two turns and restores all HP.'
p226
sg15
S'Psychic'
p227
sg17
NsbsS'Hidden Power Steel'
p228
(ipokeStructs
Move
p229
(dp230
g5
I15
sg6
g228
sg7
F60
sg8
S'special'
p231
sg10
I0
sg11
g12
sg13
S"Type is based on the user's IVs."
p232
sg15
S'Steel'
p233
sg17
F100
sbsS'Frenzy Plant'
p234
(ipokeStructs
Move
p235
(dp236
g5
I5
sg6
g234
sg7
F150
sg8
S'special'
p237
sg10
I0
sg11
g12
sg13
S'User cannot move next turn.'
p238
sg15
S'Grass'
p239
sg17
F90
sbsS'Moonblast'
p240
(ipokeStructs
Move
p241
(dp242
g5
I15
sg6
g240
sg7
F95
sg8
S'special'
p243
sg10
I0
sg11
g12
sg13
S'Deals damage to one adjacent target with a 30% chance to lower its Special Attack by 1 stage.'
p244
sg15
S'Fairy'
p245
sg17
F100
sbsS'Magic Room'
p246
(ipokeStructs
Move
p247
(dp248
g5
I10
sg6
g246
sg7
Nsg8
S'non-damaging'
p249
sg10
I0
sg11
g12
sg13
S'Held items have no effect for 5 turns.'
p250
sg15
S'Psychic'
p251
sg17
NsbsS'Endeavor'
p252
(ipokeStructs
Move
p253
(dp254
g5
I5
sg6
g252
sg7
Nsg8
S'physical'
p255
sg10
I0
sg11
g12
sg13
S"Lowers the target's HP to the user's HP."
p256
sg15
S'Normal'
p257
sg17
F100
sbsS'Bulldoze'
p258
(ipokeStructs
Move
p259
(dp260
g5
I20
sg6
g258
sg7
F60
sg8
S'physical'
p261
sg10
I0
sg11
g12
sg13
S"Lowers target's Speed by 1 stage."
p262
sg15
S'Ground'
p263
sg17
F100
sbsS'Attract'
p264
(ipokeStructs
Move
p265
(dp266
g5
I15
sg6
g264
sg7
Nsg8
S'non-damaging'
p267
sg10
I0
sg11
g12
sg13
S'Targets of the opposite gender are infatuated and have a 50% chance to do nothing.'
p268
sg15
S'Normal'
p269
sg17
F100
sbsS'Stun Spore'
p270
(ipokeStructs
Move
p271
(dp272
g5
I30
sg6
g270
sg7
Nsg8
S'non-damaging'
p273
sg10
I0
sg11
g12
sg13
S'Paralyzes the target.'
p274
sg15
S'Grass'
p275
sg17
F75
sbsS'Stealth Rock'
p276
(ipokeStructs
Move
p277
(dp278
g5
I20
sg6
g276
sg7
Nsg8
S'non-damaging'
p279
sg10
I0
sg11
g12
sg13
S"Damages foe's switch-ins."
p280
sg15
S'Rock'
p281
sg17
NsbsS'Nightmare'
p282
(ipokeStructs
Move
p283
(dp284
g5
I15
sg6
g282
sg7
Nsg8
S'non-damaging'
p285
sg10
I0
sg11
g12
sg13
S"Does 1/4 of the target's max HP per turn to a sleeping target."
p286
sg15
S'Ghost'
p287
sg17
F100
sbsS'Hidden Power Rock'
p288
(ipokeStructs
Move
p289
(dp290
g5
I15
sg6
g288
sg7
F60
sg8
S'special'
p291
sg10
I0
sg11
g12
sg13
S"Type is based on the user's IVs."
p292
sg15
S'Rock'
p293
sg17
F100
sbsS'Metal Burst'
p294
(ipokeStructs
Move
p295
(dp296
g5
I10
sg6
g294
sg7
Nsg8
S'physical'
p297
sg10
I0
sg11
g12
sg13
S"Counters foe's attack with 1.5x damage, but must go last."
p298
sg15
S'Steel'
p299
sg17
F100
sbsS'Gravity'
p300
(ipokeStructs
Move
p301
(dp302
g5
I5
sg6
g300
sg7
Nsg8
S'non-damaging'
p303
sg10
I0
sg11
g12
sg13
S'For 5 turns, prevents flying or jumping; also disables Ground immunities.'
p304
sg15
S'Psychic'
p305
sg17
NsbsS'Metal Claw'
p306
(ipokeStructs
Move
p307
(dp308
g5
I35
sg6
g306
sg7
F50
sg8
S'physical'
p309
sg10
I0
sg11
g12
sg13
S'10% chance to boost Attack by 1 stage.'
p310
sg15
S'Steel'
p311
sg17
F95
sbsS'Spacial Rend'
p312
(ipokeStructs
Move
p313
(dp314
g5
I5
sg6
g312
sg7
F100
sg8
S'special'
p315
sg10
I0
sg11
g12
sg13
S'Has a high critical hit rate.'
p316
sg15
S'Dragon'
p317
sg17
F95
sbsS'Topsy-Turvy'
p318
(ipokeStructs
Move
p319
(dp320
g5
I20
sg6
g318
sg7
Nsg8
S'non-damaging'
p321
sg10
I0
sg11
g12
sg13
S"Inverts target's stat stages."
p322
sg15
S'Dark'
p323
sg17
NsbsS'Wake-Up Slap'
p324
(ipokeStructs
Move
p325
(dp326
g5
I10
sg6
g324
sg7
F70
sg8
S'physical'
p327
sg10
I0
sg11
g12
sg13
S'Double Base Power if used on a sleeping foe.'
p328
sg15
S'Fighting'
p329
sg17
F100
sbsS'Mystical Fire'
p330
(ipokeStructs
Move
p331
(dp332
g5
I10
sg6
g330
sg7
F65
sg8
S'special'
p333
sg10
I0
sg11
g12
sg13
S'Deals damage to one adjacent target and lowers its Special Attack by 1 stage.'
p334
sg15
S'Fire'
p335
sg17
F100
sbsS'Smog'
p336
(ipokeStructs
Move
p337
(dp338
g5
I20
sg6
g336
sg7
F30
sg8
S'special'
p339
sg10
I0
sg11
g12
sg13
S'40% chance to poison.'
p340
sg15
S'Poison'
p341
sg17
F70
sbsS'Energy Ball'
p342
(ipokeStructs
Move
p343
(dp344
g5
I10
sg6
g342
sg7
F90
sg8
S'special'
p345
sg10
I0
sg11
g12
sg13
S'10% chance to lower Special Defense by 1 stage.'
p346
sg15
S'Grass'
p347
sg17
F100
sbsS'Hyper Voice'
p348
(ipokeStructs
Move
p349
(dp350
g5
I10
sg6
g348
sg7
F90
sg8
S'special'
p351
sg10
I0
sg11
g12
sg13
S'No additional effect.'
p352
sg15
S'Normal'
p353
sg17
F100
sbsS'Scary Face'
p354
(ipokeStructs
Move
p355
(dp356
g5
I10
sg6
g354
sg7
Nsg8
S'non-damaging'
p357
sg10
I0
sg11
g12
sg13
S'Lowers Speed by 2 stages.'
p358
sg15
S'Normal'
p359
sg17
F90
sbsS'Pluck'
p360
(ipokeStructs
Move
p361
(dp362
g5
I20
sg6
g360
sg7
F60
sg8
S'physical'
p363
sg10
I0
sg11
g12
sg13
S"Uses foe's Berry."
p364
sg15
S'Flying'
p365
sg17
F100
sbsS'Barrage'
p366
(ipokeStructs
Move
p367
(dp368
g5
I20
sg6
g366
sg7
F15
sg8
S'physical'
p369
sg10
I0
sg11
g12
sg13
S'Hits 2-5 times in one turn.'
p370
sg15
S'Normal'
p371
sg17
F85
sbsS'Techno Blast'
p372
(ipokeStructs
Move
p373
(dp374
g5
I5
sg6
g372
sg7
F120
sg8
S'special'
p375
sg10
I0
sg11
g12
sg13
S'Type will change depending on the type of Drive.'
p376
sg15
S'Normal'
p377
sg17
F100
sbsS'Dark Void'
p378
(ipokeStructs
Move
p379
(dp380
g5
I10
sg6
g378
sg7
Nsg8
S'non-damaging'
p381
sg10
I0
sg11
g12
sg13
S'Induces sleep.'
p382
sg15
S'Dark'
p383
sg17
F80
sbsS'Swift'
p384
(ipokeStructs
Move
p385
(dp386
g5
I20
sg6
g384
sg7
F60
sg8
S'special'
p387
sg10
I0
sg11
g12
sg13
S'Always hits.'
p388
sg15
S'Normal'
p389
sg17
NsbsS'Dark Pulse'
p390
(ipokeStructs
Move
p391
(dp392
g5
I15
sg6
g390
sg7
F80
sg8
S'special'
p393
sg10
I0
sg11
g12
sg13
S'20% chance to flinch.'
p394
sg15
S'Dark'
p395
sg17
F100
sbsS'Nuzzle'
p396
(ipokeStructs
Move
p397
(dp398
g5
I20
sg6
g396
sg7
F20
sg8
S'physical'
p399
sg10
I0
sg11
g12
sg13
S'Deals damage and paralyzes the target.'
p400
sg15
S'Electric'
p401
sg17
F100
sbsS'Octazooka'
p402
(ipokeStructs
Move
p403
(dp404
g5
I10
sg6
g402
sg7
F65
sg8
S'special'
p405
sg10
I0
sg11
g12
sg13
S'50% chance to lower accuracy by 1 stage.'
p406
sg15
S'Water'
p407
sg17
F85
sbsS'Thunder Wave'
p408
(ipokeStructs
Move
p409
(dp410
g5
I20
sg6
g408
sg7
Nsg8
S'non-damaging'
p411
sg10
I0
sg11
g12
sg13
S'Paralyzes the foe.'
p412
sg15
S'Electric'
p413
sg17
F100
sbsS'Body Slam'
p414
(ipokeStructs
Move
p415
(dp416
g5
I15
sg6
g414
sg7
F85
sg8
S'physical'
p417
sg10
I0
sg11
g12
sg13
S'30% chance to paralyze.'
p418
sg15
S'Normal'
p419
sg17
F100
sbsS'Heavy Slam'
p420
(ipokeStructs
Move
p421
(dp422
g5
I10
sg6
g420
sg7
Nsg8
S'physical'
p423
sg10
I0
sg11
g12
sg13
S"Deals damage based on both the user's and the target's weight."
p424
sg15
S'Steel'
p425
sg17
F100
sbsS'Mega Kick'
p426
(ipokeStructs
Move
p427
(dp428
g5
I5
sg6
g426
sg7
F120
sg8
S'physical'
p429
sg10
I0
sg11
g12
sg13
S'No additional effect.'
p430
sg15
S'Normal'
p431
sg17
F75
sbsS'Thrash'
p432
(ipokeStructs
Move
p433
(dp434
g5
I10
sg6
g432
sg7
F120
sg8
S'physical'
p435
sg10
I0
sg11
g12
sg13
S'Repeats for 2-3 turns. Confuses the user.'
p436
sg15
S'Normal'
p437
sg17
F100
sbsS'Flame Burst'
p438
(ipokeStructs
Move
p439
(dp440
g5
I15
sg6
g438
sg7
F70
sg8
S'special'
p441
sg10
I0
sg11
g12
sg13
S'Damages Pokemon next to the target as well.'
p442
sg15
S'Fire'
p443
sg17
F100
sbsS'Bide'
p444
(ipokeStructs
Move
p445
(dp446
g5
I10
sg6
g444
sg7
Nsg8
S'physical'
p447
sg10
I0
sg11
g12
sg13
S'Charges for 2-3 turns; returns double the damage received in those turns.'
p448
sg15
S'Normal'
p449
sg17
NsbsS'Roar of Time'
p450
(ipokeStructs
Move
p451
(dp452
g5
I5
sg6
g450
sg7
F150
sg8
S'special'
p453
sg10
I0
sg11
g12
sg13
S'User cannot move next turn.'
p454
sg15
S'Dragon'
p455
sg17
F90
sbsS'V-create'
p456
(ipokeStructs
Move
p457
(dp458
g5
I5
sg6
g456
sg7
F180
sg8
S'physical'
p459
sg10
I0
sg11
g12
sg13
S"Lowers user's Defense, Special Defense, and Speed by 1 stage."
p460
sg15
S'Fire'
p461
sg17
F95
sbsS'Rototiller'
p462
(ipokeStructs
Move
p463
(dp464
g5
I10
sg6
g462
sg7
Nsg8
S'non-damaging'
p465
sg10
I0
sg11
g12
sg13
S'Raises the Attack and Special Attack stats of Grass-type Pokemon.'
p466
sg15
S'Ground'
p467
sg17
NsbsS'Aerial Ace'
p468
(ipokeStructs
Move
p469
(dp470
g5
I20
sg6
g468
sg7
F60
sg8
S'physical'
p471
sg10
I0
sg11
g12
sg13
S'Ignores accuracy modifiers.'
p472
sg15
S'Flying'
p473
sg17
NsbsS'Morning Sun'
p474
(ipokeStructs
Move
p475
(dp476
g5
I5
sg6
g474
sg7
Nsg8
S'non-damaging'
p477
sg10
I0
sg11
g12
sg13
S'Heals variably depending on the weather.'
p478
sg15
S'Normal'
p479
sg17
NsbsS'Hail'
p480
(ipokeStructs
Move
p481
(dp482
g5
I10
sg6
g480
sg7
Nsg8
S'non-damaging'
p483
sg10
I0
sg11
g12
sg13
S'Summons hail for 5 turns.'
p484
sg15
S'Ice'
p485
sg17
NsbsS'Aromatic Mist'
p486
(ipokeStructs
Move
p487
(dp488
g5
I20
sg6
g486
sg7
Nsg8
S'non-damaging'
p489
sg10
I0
sg11
g12
sg13
S'The user raises the Special Defense stat of itself and ally Pokemon by 1.'
p490
sg15
S'Fairy'
p491
sg17
F100
sbsS'Heat Crash'
p492
(ipokeStructs
Move
p493
(dp494
g5
I10
sg6
g492
sg7
Nsg8
S'physical'
p495
sg10
I0
sg11
g12
sg13
S"Deals damage based on both the user's and the target's weight."
p496
sg15
S'Fire'
p497
sg17
F100
sbsS'Poison Sting'
p498
(ipokeStructs
Move
p499
(dp500
g5
I35
sg6
g498
sg7
F15
sg8
S'physical'
p501
sg10
I0
sg11
g12
sg13
S'30% chance to poison.'
p502
sg15
S'Poison'
p503
sg17
F100
sbsS'Poison Jab'
p504
(ipokeStructs
Move
p505
(dp506
g5
I20
sg6
g504
sg7
F80
sg8
S'physical'
p507
sg10
I0
sg11
g12
sg13
S'30% chance to poison.'
p508
sg15
S'Poison'
p509
sg17
F100
sbsS'Shift Gear'
p510
(ipokeStructs
Move
p511
(dp512
g5
I10
sg6
g510
sg7
Nsg8
S'non-damaging'
p513
sg10
I0
sg11
g12
sg13
S'Boosts Speed by 2 stages and Attack by 1 stage.'
p514
sg15
S'Steel'
p515
sg17
NsbsS'Power Split'
p516
(ipokeStructs
Move
p517
(dp518
g5
I10
sg6
g516
sg7
Nsg8
S'non-damaging'
p519
sg10
I0
sg11
g12
sg13
S'Averages Attack and Special Attack with the target.'
p520
sg15
S'Psychic'
p521
sg17
NsbsS'Leer'
p522
(ipokeStructs
Move
p523
(dp524
g5
I30
sg6
g522
sg7
Nsg8
S'non-damaging'
p525
sg10
I0
sg11
g12
sg13
S"Lowers target's Defense by 1 stage."
p526
sg15
S'Normal'
p527
sg17
F100
sbsS'Spite'
p528
(ipokeStructs
Move
p529
(dp530
g5
I10
sg6
g528
sg7
Nsg8
S'non-damaging'
p531
sg10
I0
sg11
g12
sg13
S'Lowers the PP of the move used last by 1-5.'
p532
sg15
S'Ghost'
p533
sg17
F100
sbsS'Focus Energy'
p534
(ipokeStructs
Move
p535
(dp536
g5
I30
sg6
g534
sg7
Nsg8
S'non-damaging'
p537
sg10
I0
sg11
g12
sg13
S'Boosts critical hit rate by 1 stage.'
p538
sg15
S'Normal'
p539
sg17
NsbsS'Captivate'
p540
(ipokeStructs
Move
p541
(dp542
g5
I20
sg6
g540
sg7
Nsg8
S'non-damaging'
p543
sg10
I0
sg11
g12
sg13
S"Lowers an opposite gender foe's Special Attack by 2 stages."
p544
sg15
S'Normal'
p545
sg17
F100
sbsS'Volt Switch'
p546
(ipokeStructs
Move
p547
(dp548
g5
I20
sg6
g546
sg7
F70
sg8
S'special'
p549
sg10
I0
sg11
g12
sg13
S'Forces user to switch.'
p550
sg15
S'Electric'
p551
sg17
F100
sbsS'Rapid Spin'
p552
(ipokeStructs
Move
p553
(dp554
g5
I40
sg6
g552
sg7
F20
sg8
S'physical'
p555
sg10
I0
sg11
g12
sg13
S'Removes Leech Seed and Spikes.'
p556
sg15
S'Normal'
p557
sg17
F100
sbsS'Inferno'
p558
(ipokeStructs
Move
p559
(dp560
g5
I5
sg6
g558
sg7
F100
sg8
S'special'
p561
sg10
I0
sg11
g12
sg13
S'Burns the target.'
p562
sg15
S'Fire'
p563
sg17
F50
sbsS'Sleep Talk'
p564
(ipokeStructs
Move
p565
(dp566
g5
I10
sg6
g564
sg7
Nsg8
S'non-damaging'
p567
sg10
I0
sg11
g12
sg13
S"Picks one of the user's moves at random. Can only be used while sleeping."
p568
sg15
S'Normal'
p569
sg17
NsbsS'Milk Drink'
p570
(ipokeStructs
Move
p571
(dp572
g5
I10
sg6
g570
sg7
Nsg8
S'non-damaging'
p573
sg10
I0
sg11
g12
sg13
S'Heals 50% of max HP.'
p574
sg15
S'Normal'
p575
sg17
NsbsS'Guard Swap'
p576
(ipokeStructs
Move
p577
(dp578
g5
I10
sg6
g576
sg7
Nsg8
S'non-damaging'
p579
sg10
I0
sg11
g12
sg13
S'Swaps Defense and Special Defense boosts and drops.'
p580
sg15
S'Psychic'
p581
sg17
NsbsS'Belch'
p582
(ipokeStructs
Move
p583
(dp584
g5
I10
sg6
g582
sg7
F120
sg8
S'special'
p585
sg10
I0
sg11
g12
sg13
S'The user must eat a Berry to use this move.'
p586
sg15
S'Poison'
p587
sg17
F90
sbsS'Dragon Tail'
p588
(ipokeStructs
Move
p589
(dp590
g5
I10
sg6
g588
sg7
F60
sg8
S'physical'
p591
sg10
I0
sg11
g12
sg13
S'Forces the target to switch to a random Pokemon.'
p592
sg15
S'Dragon'
p593
sg17
F90
sbsS'Acid Armor'
p594
(ipokeStructs
Move
p595
(dp596
g5
I20
sg6
g594
sg7
Nsg8
S'non-damaging'
p597
sg10
I0
sg11
g12
sg13
S'Boosts Defense by 2 stages.'
p598
sg15
S'Poison'
p599
sg17
NsbsS'Flare Blitz'
p600
(ipokeStructs
Move
p601
(dp602
g5
I15
sg6
g600
sg7
F120
sg8
S'physical'
p603
sg10
I0
sg11
g12
sg13
S'Has 1/3 recoil. 10% chance to burn.'
p604
sg15
S'Fire'
p605
sg17
F100
sbsS'Jump Kick'
p606
(ipokeStructs
Move
p607
(dp608
g5
I10
sg6
g606
sg7
F100
sg8
S'physical'
p609
sg10
I0
sg11
g12
sg13
S'If it misses, user loses HP equal to 1/2 the damage that would have been dealt.'
p610
sg15
S'Fighting'
p611
sg17
F95
sbsS'Supersonic'
p612
(ipokeStructs
Move
p613
(dp614
g5
I20
sg6
g612
sg7
Nsg8
S'non-damaging'
p615
sg10
I0
sg11
g12
sg13
S'Confuses the foe.'
p616
sg15
S'Normal'
p617
sg17
F55
sbsS'Reflect Type'
p618
(ipokeStructs
Move
p619
(dp620
g5
I15
sg6
g618
sg7
Nsg8
S'non-damaging'
p621
sg10
I0
sg11
g12
sg13
S'User becomes the same type as the target.'
p622
sg15
S'Normal'
p623
sg17
NsbsS'Dream Eater'
p624
(ipokeStructs
Move
p625
(dp626
g5
I15
sg6
g624
sg7
F100
sg8
S'special'
p627
sg10
I0
sg11
g12
sg13
S'Leeches 50% of the damage dealt. Only works if target is asleep.'
p628
sg15
S'Psychic'
p629
sg17
F100
sbsS'Fire Punch'
p630
(ipokeStructs
Move
p631
(dp632
g5
I15
sg6
g630
sg7
F75
sg8
S'physical'
p633
sg10
I0
sg11
g12
sg13
S'10% chance to burn.'
p634
sg15
S'Fire'
p635
sg17
F100
sbsS'Happy Hour'
p636
(ipokeStructs
Move
p637
(dp638
g5
I30
sg6
g636
sg7
Nsg8
S'non-damaging'
p639
sg10
I0
sg11
g12
sg13
S'No competitive effect. (Doubles the prize money received after battle.)'
p640
sg15
S'Normal'
p641
sg17
NsbsS'Draco Meteor'
p642
(ipokeStructs
Move
p643
(dp644
g5
I5
sg6
g642
sg7
F130
sg8
S'special'
p645
sg10
I0
sg11
g12
sg13
S"Lowers user's Special Attack by 2 stages."
p646
sg15
S'Dragon'
p647
sg17
F90
sbsS'Rain Dance'
p648
(ipokeStructs
Move
p649
(dp650
g5
I5
sg6
g648
sg7
Nsg8
S'non-damaging'
p651
sg10
I0
sg11
g12
sg13
S'Summons rain for 5 turns.'
p652
sg15
S'Water'
p653
sg17
NsbsS'Shadow Punch'
p654
(ipokeStructs
Move
p655
(dp656
g5
I20
sg6
g654
sg7
F60
sg8
S'physical'
p657
sg10
I0
sg11
g12
sg13
S'Ignores accuracy modifiers.'
p658
sg15
S'Ghost'
p659
sg17
NsbsS'Drill Peck'
p660
(ipokeStructs
Move
p661
(dp662
g5
I20
sg6
g660
sg7
F80
sg8
S'physical'
p663
sg10
I0
sg11
g12
sg13
S'No additional effect.'
p664
sg15
S'Flying'
p665
sg17
F100
sbsS'Whirlwind'
p666
(ipokeStructs
Move
p667
(dp668
g5
I20
sg6
g666
sg7
Nsg8
S'non-damaging'
p669
sg10
I0
sg11
g12
sg13
S'Forces the target to switch to a random Pokemon.'
p670
sg15
S'Normal'
p671
sg17
F100
sbsS'Dizzy Punch'
p672
(ipokeStructs
Move
p673
(dp674
g5
I10
sg6
g672
sg7
F70
sg8
S'physical'
p675
sg10
I0
sg11
g12
sg13
S'20% chance to confuse.'
p676
sg15
S'Normal'
p677
sg17
F100
sbsS'Blizzard'
p678
(ipokeStructs
Move
p679
(dp680
g5
I5
sg6
g678
sg7
F110
sg8
S'special'
p681
sg10
I0
sg11
g12
sg13
S'10% chance to freeze.'
p682
sg15
S'Ice'
p683
sg17
F70
sbsS'Flatter'
p684
(ipokeStructs
Move
p685
(dp686
g5
I15
sg6
g684
sg7
Nsg8
S'non-damaging'
p687
sg10
I0
sg11
g12
sg13
S"Confuses the foe. Boosts the foe's Special Attack 1 stage."
p688
sg15
S'Dark'
p689
sg17
F100
sbsS'Torment'
p690
(ipokeStructs
Move
p691
(dp692
g5
I15
sg6
g690
sg7
Nsg8
S'non-damaging'
p693
sg10
I0
sg11
g12
sg13
S'Prevents the target from using the same move twice in a row.'
p694
sg15
S'Dark'
p695
sg17
F100
sbsS'Night Slash'
p696
(ipokeStructs
Move
p697
(dp698
g5
I15
sg6
g696
sg7
F70
sg8
S'physical'
p699
sg10
I0
sg11
g12
sg13
S'Has a high critical hit rate.'
p700
sg15
S'Dark'
p701
sg17
F100
sbsS'Wrap'
p702
(ipokeStructs
Move
p703
(dp704
g5
I20
sg6
g702
sg7
F15
sg8
S'physical'
p705
sg10
I0
sg11
g12
sg13
S'Prevents the opponent from attacking for 2-5 turns.'
p706
sg15
S'Normal'
p707
sg17
F90
sbsS'Feather Dance'
p708
(ipokeStructs
Move
p709
(dp710
g5
I15
sg6
g708
sg7
Nsg8
S'non-damaging'
p711
sg10
I0
sg11
g12
sg13
S'Lowers Attack 2 stages.'
p712
sg15
S'Flying'
p713
sg17
F100
sbsS'Electric Terrain'
p714
(ipokeStructs
Move
p715
(dp716
g5
I10
sg6
g714
sg7
Nsg8
S'non-damaging'
p717
sg10
I0
sg11
g12
sg13
S'For five turns, Pokemon on the ground cannot fall asleep, and will be woken up if already sleeping. Their Electric-type moves are powered up by 50%.'
p718
sg15
S'Electric'
p719
sg17
NsbsS'Aura Sphere'
p720
(ipokeStructs
Move
p721
(dp722
g5
I20
sg6
g720
sg7
F80
sg8
S'special'
p723
sg10
I0
sg11
g12
sg13
S'Ignores accuracy modifiers.'
p724
sg15
S'Fighting'
p725
sg17
NsbsS'Twineedle'
p726
(ipokeStructs
Move
p727
(dp728
g5
I20
sg6
g726
sg7
F25
sg8
S'physical'
p729
sg10
I0
sg11
g12
sg13
S'Hits twice in one turn. Each hit has a 20% chance to poison.'
p730
sg15
S'Bug'
p731
sg17
F100
sbsS'Heart Swap'
p732
(ipokeStructs
Move
p733
(dp734
g5
I10
sg6
g732
sg7
Nsg8
S'non-damaging'
p735
sg10
I0
sg11
g12
sg13
S'Swaps stat boosts and drops.'
p736
sg15
S'Psychic'
p737
sg17
NsbsS'Leaf Tornado'
p738
(ipokeStructs
Move
p739
(dp740
g5
I10
sg6
g738
sg7
F65
sg8
S'special'
p741
sg10
I0
sg11
g12
sg13
S"50% chance to lower target's accuracy by 1 stage."
p742
sg15
S'Grass'
p743
sg17
F90
sbsS'Aurora Beam'
p744
(ipokeStructs
Move
p745
(dp746
g5
I20
sg6
g744
sg7
F65
sg8
S'special'
p747
sg10
I0
sg11
g12
sg13
S'10% chance to lower Attack by 1 stage.'
p748
sg15
S'Ice'
p749
sg17
F100
sbsS'Muddy Water'
p750
(ipokeStructs
Move
p751
(dp752
g5
I10
sg6
g750
sg7
F90
sg8
S'special'
p753
sg10
I0
sg11
g12
sg13
S'30% chance to lower accuracy by 1 stage.'
p754
sg15
S'Water'
p755
sg17
F85
sbsS'Hurricane'
p756
(ipokeStructs
Move
p757
(dp758
g5
I10
sg6
g756
sg7
F110
sg8
S'special'
p759
sg10
I0
sg11
g12
sg13
S'30% chance to confuse the target.'
p760
sg15
S'Flying'
p761
sg17
F70
sbsS'Poison Powder'
p762
(ipokeStructs
Move
p763
(dp764
g5
I35
sg6
g762
sg7
Nsg8
S'non-damaging'
p765
sg10
I0
sg11
g12
sg13
S'Poisons the target.'
p766
sg15
S'Poison'
p767
sg17
F75
sbsS'Twister'
p768
(ipokeStructs
Move
p769
(dp770
g5
I20
sg6
g768
sg7
F40
sg8
S'special'
p771
sg10
I0
sg11
g12
sg13
S'20% chance to flinch.'
p772
sg15
S'Dragon'
p773
sg17
F100
sbsS'Fiery Dance'
p774
(ipokeStructs
Move
p775
(dp776
g5
I10
sg6
g774
sg7
F80
sg8
S'special'
p777
sg10
I0
sg11
g12
sg13
S"50% chance to boost user's Special Attack by 1 stage."
p778
sg15
S'Fire'
p779
sg17
F100
sbsS'Extrasensory'
p780
(ipokeStructs
Move
p781
(dp782
g5
I20
sg6
g780
sg7
F80
sg8
S'special'
p783
sg10
I0
sg11
g12
sg13
S'10% chance to flinch.'
p784
sg15
S'Psychic'
p785
sg17
F100
sbsS'Needle Arm'
p786
(ipokeStructs
Move
p787
(dp788
g5
I15
sg6
g786
sg7
F60
sg8
S'physical'
p789
sg10
I0
sg11
g12
sg13
S'30% chance to flinch.'
p790
sg15
S'Grass'
p791
sg17
F100
sbsS'Hidden Power Flying'
p792
(ipokeStructs
Move
p793
(dp794
g5
I15
sg6
g792
sg7
F60
sg8
S'special'
p795
sg10
I0
sg11
g12
sg13
S"Type is based on the user's IVs."
p796
sg15
S'Flying'
p797
sg17
F100
sbsS'Minimize'
p798
(ipokeStructs
Move
p799
(dp800
g5
I10
sg6
g798
sg7
Nsg8
S'non-damaging'
p801
sg10
I0
sg11
g12
sg13
S'Boosts evasion by 2 stages.'
p802
sg15
S'Normal'
p803
sg17
NsbsS'Brick Break'
p804
(ipokeStructs
Move
p805
(dp806
g5
I15
sg6
g804
sg7
F75
sg8
S'physical'
p807
sg10
I0
sg11
g12
sg13
S'Destroys Light Screen and Reflect, then hits.'
p808
sg15
S'Fighting'
p809
sg17
F100
sbsS'Magical Leaf'
p810
(ipokeStructs
Move
p811
(dp812
g5
I20
sg6
g810
sg7
F60
sg8
S'special'
p813
sg10
I0
sg11
g12
sg13
S'Ignores accuracy modifiers.'
p814
sg15
S'Grass'
p815
sg17
NsbsS'Spark'
p816
(ipokeStructs
Move
p817
(dp818
g5
I20
sg6
g816
sg7
F65
sg8
S'physical'
p819
sg10
I0
sg11
g12
sg13
S'30% chance to paralyze.'
p820
sg15
S'Electric'
p821
sg17
F100
sbsS'Memento'
p822
(ipokeStructs
Move
p823
(dp824
g5
I10
sg6
g822
sg7
Nsg8
S'non-damaging'
p825
sg10
I0
sg11
g12
sg13
S"User faints. Lowers foe's Attack and Special Attack by 2 stages."
p826
sg15
S'Dark'
p827
sg17
F100
sbsS'Night Daze'
p828
(ipokeStructs
Move
p829
(dp830
g5
I10
sg6
g828
sg7
F85
sg8
S'special'
p831
sg10
I0
sg11
g12
sg13
S"40% chance to lower target's accuracy by 1 stage."
p832
sg15
S'Dark'
p833
sg17
F95
sbsS'Hidden Power Fire'
p834
(ipokeStructs
Move
p835
(dp836
g5
I15
sg6
g834
sg7
F60
sg8
S'special'
p837
sg10
I0
sg11
g12
sg13
S"Type is based on the user's IVs."
p838
sg15
S'Fire'
p839
sg17
F100
sbsS'Mean Look'
p840
(ipokeStructs
Move
p841
(dp842
g5
I5
sg6
g840
sg7
Nsg8
S'non-damaging'
p843
sg10
I0
sg11
g12
sg13
S'The target cannot switch out.'
p844
sg15
S'Normal'
p845
sg17
NsbsS'Hidden Power Dragon'
p846
(ipokeStructs
Move
p847
(dp848
g5
I15
sg6
g846
sg7
F60
sg8
S'special'
p849
sg10
I0
sg11
g12
sg13
S"Type is based on the user's IVs."
p850
sg15
S'Dragon'
p851
sg17
F100
sbsS'Sticky Web'
p852
(ipokeStructs
Move
p853
(dp854
g5
I20
sg6
g852
sg7
Nsg8
S'non-damaging'
p855
sg10
I0
sg11
g12
sg13
S"Lowers the Speed stat of the opposing team's Pokemon upon switching into battle."
p856
sg15
S'Bug'
p857
sg17
NsbsS'Force Palm'
p858
(ipokeStructs
Move
p859
(dp860
g5
I10
sg6
g858
sg7
F60
sg8
S'physical'
p861
sg10
I0
sg11
g12
sg13
S'30% chance to paralyze.'
p862
sg15
S'Fighting'
p863
sg17
F100
sbsS'Zap Cannon'
p864
(ipokeStructs
Move
p865
(dp866
g5
I5
sg6
g864
sg7
F120
sg8
S'special'
p867
sg10
I0
sg11
g12
sg13
S'Paralyzes the foe.'
p868
sg15
S'Electric'
p869
sg17
F50
sbsS'Double Team'
p870
(ipokeStructs
Move
p871
(dp872
g5
I15
sg6
g870
sg7
Nsg8
S'non-damaging'
p873
sg10
I0
sg11
g12
sg13
S'Boosts evasion by 1 stage.'
p874
sg15
S'Normal'
p875
sg17
NsbsS'Constrict'
p876
(ipokeStructs
Move
p877
(dp878
g5
I35
sg6
g876
sg7
F10
sg8
S'physical'
p879
sg10
I0
sg11
g12
sg13
S'10% chance to lower Speed by 1 stage.'
p880
sg15
S'Normal'
p881
sg17
F100
sbsS'Double-Edge'
p882
(ipokeStructs
Move
p883
(dp884
g5
I15
sg6
g882
sg7
F120
sg8
S'physical'
p885
sg10
I0
sg11
g12
sg13
S'Has 1/3 recoil.'
p886
sg15
S'Normal'
p887
sg17
F100
sbsS'Magnetic Flux'
p888
(ipokeStructs
Move
p889
(dp890
g5
I20
sg6
g888
sg7
Nsg8
S'non-damaging'
p891
sg10
I0
sg11
g12
sg13
S'Raises the Defense and Special Defense stats of ally Pokemon with the Plus or Minus Ability.'
p892
sg15
S'Electric'
p893
sg17
NsbsS'Future Sight'
p894
(ipokeStructs
Move
p895
(dp896
g5
I10
sg6
g894
sg7
F120
sg8
S'special'
p897
sg10
I0
sg11
g12
sg13
S'Deals damage at the end of the turn after three turns.'
p898
sg15
S'Psychic'
p899
sg17
F100
sbsS'Ominous Wind'
p900
(ipokeStructs
Move
p901
(dp902
g5
I5
sg6
g900
sg7
F60
sg8
S'special'
p903
sg10
I0
sg11
g12
sg13
S'10% chance to boost all stats by 1 stage.'
p904
sg15
S'Ghost'
p905
sg17
F100
sbsS'Pay Day'
p906
(ipokeStructs
Move
p907
(dp908
g5
I20
sg6
g906
sg7
F40
sg8
S'physical'
p909
sg10
I0
sg11
g12
sg13
S'No additional effect.'
p910
sg15
S'Normal'
p911
sg17
F100
sbsS'After You'
p912
(ipokeStructs
Move
p913
(dp914
g5
I15
sg6
g912
sg7
Nsg8
S'non-damaging'
p915
sg10
I0
sg11
g12
sg13
S'The target will attack immediately after the user in the same turn.'
p916
sg15
S'Normal'
p917
sg17
NsbsS'Facade'
p918
(ipokeStructs
Move
p919
(dp920
g5
I20
sg6
g918
sg7
F70
sg8
S'physical'
p921
sg10
I0
sg11
g12
sg13
S'Has 140 Base Power when burned, paralyzed, or poisoned.'
p922
sg15
S'Normal'
p923
sg17
F100
sbsS'Shadow Force'
p924
(ipokeStructs
Move
p925
(dp926
g5
I5
sg6
g924
sg7
F120
sg8
S'physical'
p927
sg10
I0
sg11
g12
sg13
S'User becomes invulnerable, then attacks the next turn. Nullifies Detect and Protect.'
p928
sg15
S'Ghost'
p929
sg17
F100
sbsS'Teleport'
p930
(ipokeStructs
Move
p931
(dp932
g5
I20
sg6
g930
sg7
Nsg8
S'non-damaging'
p933
sg10
I0
sg11
g12
sg13
S'Has no effect.'
p934
sg15
S'Psychic'
p935
sg17
NsbsS'Copycat'
p936
(ipokeStructs
Move
p937
(dp938
g5
I20
sg6
g936
sg7
Nsg8
S'non-damaging'
p939
sg10
I0
sg11
g12
sg13
S'Uses the last move used in the battle.'
p940
sg15
S'Normal'
p941
sg17
NsbsS'Mud Shot'
p942
(ipokeStructs
Move
p943
(dp944
g5
I15
sg6
g942
sg7
F55
sg8
S'special'
p945
sg10
I0
sg11
g12
sg13
S'Lowers Speed by 1 stage.'
p946
sg15
S'Ground'
p947
sg17
F95
sbsS'Tailwind'
p948
(ipokeStructs
Move
p949
(dp950
g5
I30
sg6
g948
sg7
Nsg8
S'non-damaging'
p951
sg10
I0
sg11
g12
sg13
S'Doubles Speed for 3 turns.'
p952
sg15
S'Flying'
p953
sg17
NsbsS'Cross Poison'
p954
(ipokeStructs
Move
p955
(dp956
g5
I20
sg6
g954
sg7
F70
sg8
S'physical'
p957
sg10
I0
sg11
g12
sg13
S'Has a high critical hit rate. 10% chance to poison foe.'
p958
sg15
S'Poison'
p959
sg17
F100
sbsS'Thousand Waves'
p960
(ipokeStructs
Move
p961
(dp962
g5
I10
sg6
g960
sg7
F90
sg8
S'physical'
p963
sg10
I0
sg11
g12
sg13
S'Prevents affected Pokemon from switching.'
p964
sg15
S'Ground'
p965
sg17
F100
sbsS'Revenge'
p966
(ipokeStructs
Move
p967
(dp968
g5
I10
sg6
g966
sg7
F60
sg8
S'physical'
p969
sg10
I0
sg11
g12
sg13
S'Doubles in power if damaged.'
p970
sg15
S'Fighting'
p971
sg17
F100
sbsS'Haze'
p972
(ipokeStructs
Move
p973
(dp974
g5
I30
sg6
g972
sg7
Nsg8
S'non-damaging'
p975
sg10
I0
sg11
g12
sg13
S'Eliminates all stat changes.'
p976
sg15
S'Ice'
p977
sg17
NsbsS'Strength'
p978
(ipokeStructs
Move
p979
(dp980
g5
I15
sg6
g978
sg7
F80
sg8
S'physical'
p981
sg10
I0
sg11
g12
sg13
S'No additional effect.'
p982
sg15
S'Normal'
p983
sg17
F100
sbsS'Water Shuriken'
p984
(ipokeStructs
Move
p985
(dp986
g5
I20
sg6
g984
sg7
F15
sg8
S'physical'
p987
sg10
I0
sg11
g12
sg13
S"Deals damage to one adjacent target and hits two to five times. Has a 1/3 chance to hit two or three times, and a 1/6 chance to hit four or five times. If one of the hits breaks the target's Substitute, it will take damage for the remaining hits. If the user has the Ability Skill Link, this move will always hit five times. Almost always goes first."
p988
sg15
S'Water'
p989
sg17
F100
sbsS'Amnesia'
p990
(ipokeStructs
Move
p991
(dp992
g5
I20
sg6
g990
sg7
Nsg8
S'non-damaging'
p993
sg10
I0
sg11
g12
sg13
S'Boosts Special Defense by 2 stages.'
p994
sg15
S'Psychic'
p995
sg17
NsbsS'Clear Smog'
p996
(ipokeStructs
Move
p997
(dp998
g5
I15
sg6
g996
sg7
F50
sg8
S'special'
p999
sg10
I0
sg11
g12
sg13
S"Eliminates the target's stat changes."
p1000
sg15
S'Poison'
p1001
sg17
NsbsS'Water Spout'
p1002
(ipokeStructs
Move
p1003
(dp1004
g5
I5
sg6
g1002
sg7
F150
sg8
S'special'
p1005
sg10
I0
sg11
g12
sg13
S"Does less damage as the user's HP decreases."
p1006
sg15
S'Water'
p1007
sg17
F100
sbsS'Synthesis'
p1008
(ipokeStructs
Move
p1009
(dp1010
g5
I5
sg6
g1008
sg7
Nsg8
S'non-damaging'
p1011
sg10
I0
sg11
g12
sg13
S'Heals variably depending on the weather.'
p1012
sg15
S'Grass'
p1013
sg17
NsbsS'Fire Blast'
p1014
(ipokeStructs
Move
p1015
(dp1016
g5
I5
sg6
g1014
sg7
F110
sg8
S'special'
p1017
sg10
I0
sg11
g12
sg13
S'10% chance to burn.'
p1018
sg15
S'Fire'
p1019
sg17
F85
sbsS'Leaf Blade'
p1020
(ipokeStructs
Move
p1021
(dp1022
g5
I15
sg6
g1020
sg7
F90
sg8
S'physical'
p1023
sg10
I0
sg11
g12
sg13
S'High critical hit rate.'
p1024
sg15
S'Grass'
p1025
sg17
F100
sbsS'Skull Bash'
p1026
(ipokeStructs
Move
p1027
(dp1028
g5
I15
sg6
g1026
sg7
F130
sg8
S'physical'
p1029
sg10
I0
sg11
g12
sg13
S'Charges up turn one; attacks turn two. Boosts Defense by 1 stage.'
p1030
sg15
S'Normal'
p1031
sg17
F100
sbsS'Absorb'
p1032
(ipokeStructs
Move
p1033
(dp1034
g5
I25
sg6
g1032
sg7
F20
sg8
S'special'
p1035
sg10
I0
sg11
g12
sg13
S'Leeches 50% damage.'
p1036
sg15
S'Grass'
p1037
sg17
F100
sbsS'Assist'
p1038
(ipokeStructs
Move
p1039
(dp1040
g5
I20
sg6
g1038
sg7
Nsg8
S'non-damaging'
p1041
sg10
I0
sg11
g12
sg13
S"Uses a random move from the user's team."
p1042
sg15
S'Normal'
p1043
sg17
NsbsS'Sand Attack'
p1044
(ipokeStructs
Move
p1045
(dp1046
g5
I15
sg6
g1044
sg7
Nsg8
S'non-damaging'
p1047
sg10
I0
sg11
g12
sg13
S"Lowers foe's accuracy by 1 stage."
p1048
sg15
S'Ground'
p1049
sg17
F100
sbsS'Final Gambit'
p1050
(ipokeStructs
Move
p1051
(dp1052
g5
I5
sg6
g1050
sg7
Nsg8
S'special'
p1053
sg10
I0
sg11
g12
sg13
S"Faints the user. Target takes damage equal to the user's HP at the time of use."
p1054
sg15
S'Fighting'
p1055
sg17
F100
sbsS'Sacred Sword'
p1056
(ipokeStructs
Move
p1057
(dp1058
g5
I15
sg6
g1056
sg7
F90
sg8
S'physical'
p1059
sg10
I0
sg11
g12
sg13
S"Ignores the target's stat changes."
p1060
sg15
S'Fighting'
p1061
sg17
F100
sbsS'Snarl'
p1062
(ipokeStructs
Move
p1063
(dp1064
g5
I15
sg6
g1062
sg7
F55
sg8
S'special'
p1065
sg10
I0
sg11
g12
sg13
S"Lowers target's Special Attack by 1 stage."
p1066
sg15
S'Dark'
p1067
sg17
F95
sbsS'Fury Swipes'
p1068
(ipokeStructs
Move
p1069
(dp1070
g5
I15
sg6
g1068
sg7
F18
sg8
S'physical'
p1071
sg10
I0
sg11
g12
sg13
S'Hits 2-5 times in one turn.'
p1072
sg15
S'Normal'
p1073
sg17
F80
sbsS'Sing'
p1074
(ipokeStructs
Move
p1075
(dp1076
g5
I15
sg6
g1074
sg7
Nsg8
S'non-damaging'
p1077
sg10
I0
sg11
g12
sg13
S'Puts the target to sleep.'
p1078
sg15
S'Normal'
p1079
sg17
F55
sbsS'Focus Blast'
p1080
(ipokeStructs
Move
p1081
(dp1082
g5
I5
sg6
g1080
sg7
F120
sg8
S'special'
p1083
sg10
I0
sg11
g12
sg13
S'10% chance to lower Special Defense by 1 stage.'
p1084
sg15
S'Fighting'
p1085
sg17
F70
sbsS'Calm Mind'
p1086
(ipokeStructs
Move
p1087
(dp1088
g5
I20
sg6
g1086
sg7
Nsg8
S'non-damaging'
p1089
sg10
I0
sg11
g12
sg13
S'Boosts Special Attack and Special Defense by 1 stage.'
p1090
sg15
S'Psychic'
p1091
sg17
NsbsS'Hone Claws'
p1092
(ipokeStructs
Move
p1093
(dp1094
g5
I15
sg6
g1092
sg7
Nsg8
S'non-damaging'
p1095
sg10
I0
sg11
g12
sg13
S'Boosts Attack and accuracy one stage.'
p1096
sg15
S'Dark'
p1097
sg17
NsbsS'Metal Sound'
p1098
(ipokeStructs
Move
p1099
(dp1100
g5
I40
sg6
g1098
sg7
Nsg8
S'non-damaging'
p1101
sg10
I0
sg11
g12
sg13
S"Lower's Special Defense by 2 stages."
p1102
sg15
S'Steel'
p1103
sg17
F85
sbsS'High Jump Kick'
p1104
(ipokeStructs
Move
p1105
(dp1106
g5
I10
sg6
g1104
sg7
F130
sg8
S'physical'
p1107
sg10
I0
sg11
g12
sg13
S'If it misses, user loses HP equal to 1/2 the damage that would have been dealt.'
p1108
sg15
S'Fighting'
p1109
sg17
F90
sbsS'Fairy Lock'
p1110
(ipokeStructs
Move
p1111
(dp1112
g5
I10
sg6
g1110
sg7
Nsg8
S'non-damaging'
p1113
sg10
I0
sg11
g12
sg13
S'Keeps all Pokemon from fleeing during the next turn.'
p1114
sg15
S'Fairy'
p1115
sg17
NsbsS'Close Combat'
p1116
(ipokeStructs
Move
p1117
(dp1118
g5
I5
sg6
g1116
sg7
F120
sg8
S'physical'
p1119
sg10
I0
sg11
g12
sg13
S"Lowers user's Defense and Special Defense by 1 stage."
p1120
sg15
S'Fighting'
p1121
sg17
F100
sbsS'Fury Attack'
p1122
(ipokeStructs
Move
p1123
(dp1124
g5
I20
sg6
g1122
sg7
F15
sg8
S'physical'
p1125
sg10
I0
sg11
g12
sg13
S'Hits 2-5 times in one turn.'
p1126
sg15
S'Normal'
p1127
sg17
F85
sbsS'Air Cutter'
p1128
(ipokeStructs
Move
p1129
(dp1130
g5
I25
sg6
g1128
sg7
F60
sg8
S'special'
p1131
sg10
I0
sg11
g12
sg13
S'High critical hit rate.'
p1132
sg15
S'Flying'
p1133
sg17
F95
sbsS'Blaze Kick'
p1134
(ipokeStructs
Move
p1135
(dp1136
g5
I10
sg6
g1134
sg7
F85
sg8
S'physical'
p1137
sg10
I0
sg11
g12
sg13
S'High critical hit rate. 10% chance to burn the target.'
p1138
sg15
S'Fire'
p1139
sg17
F90
sbsS'Work Up'
p1140
(ipokeStructs
Move
p1141
(dp1142
g5
I30
sg6
g1140
sg7
Nsg8
S'non-damaging'
p1143
sg10
I0
sg11
g12
sg13
S"Boosts user's Attack and Special Attack by 1 stage."
p1144
sg15
S'Normal'
p1145
sg17
NsbsS'Fake Tears'
p1146
(ipokeStructs
Move
p1147
(dp1148
g5
I20
sg6
g1146
sg7
Nsg8
S'non-damaging'
p1149
sg10
I0
sg11
g12
sg13
S'Lowers Special Defense by 2 stages.'
p1150
sg15
S'Dark'
p1151
sg17
F100
sbsS'Iron Tail'
p1152
(ipokeStructs
Move
p1153
(dp1154
g5
I15
sg6
g1152
sg7
F100
sg8
S'physical'
p1155
sg10
I0
sg11
g12
sg13
S'30% chance to lower Defense by 1 stage.'
p1156
sg15
S'Steel'
p1157
sg17
F75
sbsS'Spore'
p1158
(ipokeStructs
Move
p1159
(dp1160
g5
I15
sg6
g1158
sg7
Nsg8
S'non-damaging'
p1161
sg10
I0
sg11
g12
sg13
S'Puts the target to sleep.'
p1162
sg15
S'Grass'
p1163
sg17
F100
sbsS'Leech Seed'
p1164
(ipokeStructs
Move
p1165
(dp1166
g5
I10
sg6
g1164
sg7
Nsg8
S'non-damaging'
p1167
sg10
I0
sg11
g12
sg13
S"Leeches 1/8 of the target's HP each turn."
p1168
sg15
S'Grass'
p1169
sg17
F90
sbsS'Nasty Plot'
p1170
(ipokeStructs
Move
p1171
(dp1172
g5
I20
sg6
g1170
sg7
Nsg8
S'non-damaging'
p1173
sg10
I0
sg11
g12
sg13
S'Boosts Special Attack by 2 stages.'
p1174
sg15
S'Dark'
p1175
sg17
NsbsS'Crush Claw'
p1176
(ipokeStructs
Move
p1177
(dp1178
g5
I10
sg6
g1176
sg7
F75
sg8
S'physical'
p1179
sg10
I0
sg11
g12
sg13
S'50% chance to lower Defense by 1 stage.'
p1180
sg15
S'Normal'
p1181
sg17
F95
sbsS'Misty Terrain'
p1182
(ipokeStructs
Move
p1183
(dp1184
g5
I10
sg6
g1182
sg7
Nsg8
S'non-damaging'
p1185
sg10
I0
sg11
g12
sg13
S'For five turns, Grounded Pokemon cannot have major status problems or confusion inflicted on them by other Pokemon. Their Dragon-type moves are weakened by 50%.'
p1186
sg15
S'Fairy'
p1187
sg17
NsbsS'Foul Play'
p1188
(ipokeStructs
Move
p1189
(dp1190
g5
I15
sg6
g1188
sg7
F95
sg8
S'physical'
p1191
sg10
I0
sg11
g12
sg13
S"Uses the target's Attack stat in damage calculation."
p1192
sg15
S'Dark'
p1193
sg17
F100
sbsS'Wring Out'
p1194
(ipokeStructs
Move
p1195
(dp1196
g5
I5
sg6
g1194
sg7
Nsg8
S'special'
p1197
sg10
I0
sg11
g12
sg13
S"Base power depends on the foe's remaining HP."
p1198
sg15
S'Normal'
p1199
sg17
F100
sbsS'Curse'
p1200
(ipokeStructs
Move
p1201
(dp1202
g5
I10
sg6
g1200
sg7
Nsg8
S'non-damaging'
p1203
sg10
I0
sg11
g12
sg13
S"Does 1/4 of max HP damage per turn at the cost of half the user's max HP if the user is a Ghost. Boosts Attack and Defense and lowers Speed by 1 stage otherwise."
p1204
sg15
S'Ghost'
p1205
sg17
NsbsS'Guard Split'
p1206
(ipokeStructs
Move
p1207
(dp1208
g5
I10
sg6
g1206
sg7
Nsg8
S'non-damaging'
p1209
sg10
I0
sg11
g12
sg13
S'Averages Defense and Special Defense stats of the user with the target.'
p1210
sg15
S'Psychic'
p1211
sg17
NsbsS'Hold Hands'
p1212
(ipokeStructs
Move
p1213
(dp1214
g5
I40
sg6
g1212
sg7
Nsg8
S'non-damaging'
p1215
sg10
I0
sg11
g12
sg13
S'No in-game effect.'
p1216
sg15
S'Normal'
p1217
sg17
NsbsS'Chip Away'
p1218
(ipokeStructs
Move
p1219
(dp1220
g5
I20
sg6
g1218
sg7
F70
sg8
S'physical'
p1221
sg10
I0
sg11
g12
sg13
S"Ignores the target's stat changes."
p1222
sg15
S'Normal'
p1223
sg17
F100
sbsS'Mega Punch'
p1224
(ipokeStructs
Move
p1225
(dp1226
g5
I20
sg6
g1224
sg7
F80
sg8
S'physical'
p1227
sg10
I0
sg11
g12
sg13
S'No additional effect.'
p1228
sg15
S'Normal'
p1229
sg17
F85
sbsS'Wide Guard'
p1230
(ipokeStructs
Move
p1231
(dp1232
g5
I10
sg6
g1230
sg7
Nsg8
S'non-damaging'
p1233
sg10
I0
sg11
g12
sg13
S'Protects user and allies from multi-target attacks.'
p1234
sg15
S'Rock'
p1235
sg17
NsbsS'Bulk Up'
p1236
(ipokeStructs
Move
p1237
(dp1238
g5
I20
sg6
g1236
sg7
Nsg8
S'non-damaging'
p1239
sg10
I0
sg11
g12
sg13
S'Boosts Attack and Defense by 1 stage.'
p1240
sg15
S'Fighting'
p1241
sg17
NsbsS'Conversion 2'
p1242
(ipokeStructs
Move
p1243
(dp1244
g5
I30
sg6
g1242
sg7
Nsg8
S'non-damaging'
p1245
sg10
I0
sg11
g12
sg13
S'Changes user into a new type that resists the last attack to hit the user.'
p1246
sg15
S'Normal'
p1247
sg17
NsbsS'Vital Throw'
p1248
(ipokeStructs
Move
p1249
(dp1250
g5
I10
sg6
g1248
sg7
F70
sg8
S'physical'
p1251
sg10
I0
sg11
g12
sg13
S'Moves second, but ignores accuracy modifiers.'
p1252
sg15
S'Fighting'
p1253
sg17
NsbsS'Bubble'
p1254
(ipokeStructs
Move
p1255
(dp1256
g5
I30
sg6
g1254
sg7
F40
sg8
S'special'
p1257
sg10
I0
sg11
g12
sg13
S'10% chance to lower Speed by 1 stage.'
p1258
sg15
S'Water'
p1259
sg17
F100
sbsS'Fusion Bolt'
p1260
(ipokeStructs
Move
p1261
(dp1262
g5
I5
sg6
g1260
sg7
F100
sg8
S'physical'
p1263
sg10
I0
sg11
g12
sg13
S'Power doubles if used after Fusion Flare.'
p1264
sg15
S'Electric'
p1265
sg17
F100
sbsS'Spit Up'
p1266
(ipokeStructs
Move
p1267
(dp1268
g5
I10
sg6
g1266
sg7
Nsg8
S'special'
p1269
sg10
I0
sg11
g12
sg13
S'Varies in power depending on the number of uses of Stockpile.'
p1270
sg15
S'Normal'
p1271
sg17
F100
sbsS'Flame Wheel'
p1272
(ipokeStructs
Move
p1273
(dp1274
g5
I25
sg6
g1272
sg7
F60
sg8
S'physical'
p1275
sg10
I0
sg11
g12
sg13
S'10% chance to burn. Thaws the user.'
p1276
sg15
S'Fire'
p1277
sg17
F100
sbsS'Sweet Scent'
p1278
(ipokeStructs
Move
p1279
(dp1280
g5
I20
sg6
g1278
sg7
Nsg8
S'non-damaging'
p1281
sg10
I0
sg11
g12
sg13
S'Lowers evasion by 1 stage.'
p1282
sg15
S'Normal'
p1283
sg17
F100
sbsS'Hidden Power Electric'
p1284
(ipokeStructs
Move
p1285
(dp1286
g5
I15
sg6
g1284
sg7
F60
sg8
S'special'
p1287
sg10
I0
sg11
g12
sg13
S"Type is based on the user's IVs."
p1288
sg15
S'Electric'
p1289
sg17
F100
sbsS'Icicle Spear'
p1290
(ipokeStructs
Move
p1291
(dp1292
g5
I30
sg6
g1290
sg7
F25
sg8
S'physical'
p1293
sg10
I0
sg11
g12
sg13
S'Hits 2-5 times in one turn.'
p1294
sg15
S'Ice'
p1295
sg17
F100
sbsS'Meditate'
p1296
(ipokeStructs
Move
p1297
(dp1298
g5
I40
sg6
g1296
sg7
Nsg8
S'non-damaging'
p1299
sg10
I0
sg11
g12
sg13
S"Boosts user's Attack by 1 stage."
p1300
sg15
S'Psychic'
p1301
sg17
NsbsS'Drain Punch'
p1302
(ipokeStructs
Move
p1303
(dp1304
g5
I10
sg6
g1302
sg7
F75
sg8
S'physical'
p1305
sg10
I0
sg11
g12
sg13
S'Leeches 50% damage.'
p1306
sg15
S'Fighting'
p1307
sg17
F100
sbsS'Discharge'
p1308
(ipokeStructs
Move
p1309
(dp1310
g5
I15
sg6
g1308
sg7
F80
sg8
S'special'
p1311
sg10
I0
sg11
g12
sg13
S'30% chance to paralyze.'
p1312
sg15
S'Electric'
p1313
sg17
F100
sbsS'Last Resort'
p1314
(ipokeStructs
Move
p1315
(dp1316
g5
I5
sg6
g1314
sg7
F140
sg8
S'physical'
p1317
sg10
I0
sg11
g12
sg13
S'Can only be used if all other moves have been used once.'
p1318
sg15
S'Normal'
p1319
sg17
F100
sbsS'Role Play'
p1320
(ipokeStructs
Move
p1321
(dp1322
g5
I10
sg6
g1320
sg7
Nsg8
S'non-damaging'
p1323
sg10
I0
sg11
g12
sg13
S"Copies the foe's ability and overwrites the user's ability."
p1324
sg15
S'Psychic'
p1325
sg17
NsbsS'Leech Life'
p1326
(ipokeStructs
Move
p1327
(dp1328
g5
I15
sg6
g1326
sg7
F20
sg8
S'physical'
p1329
sg10
I0
sg11
g12
sg13
S'Leeches 50% of the damage dealt.'
p1330
sg15
S'Bug'
p1331
sg17
F100
sbsS'Protect'
p1332
(ipokeStructs
Move
p1333
(dp1334
g5
I10
sg6
g1332
sg7
Nsg8
S'non-damaging'
p1335
sg10
I0
sg11
g12
sg13
S'Prevents anything from working on the user that turn.'
p1336
sg15
S'Normal'
p1337
sg17
NsbsS'Spikes'
p1338
(ipokeStructs
Move
p1339
(dp1340
g5
I20
sg6
g1338
sg7
Nsg8
S'non-damaging'
p1341
sg10
I0
sg11
g12
sg13
S'Causes damage to the enemy whenever they switch.'
p1342
sg15
S'Ground'
p1343
sg17
NsbsS'Thunder Shock'
p1344
(ipokeStructs
Move
p1345
(dp1346
g5
I30
sg6
g1344
sg7
F40
sg8
S'special'
p1347
sg10
I0
sg11
g12
sg13
S'10% chance to paralyze.'
p1348
sg15
S'Electric'
p1349
sg17
F100
sbsS'Covet'
p1350
(ipokeStructs
Move
p1351
(dp1352
g5
I25
sg6
g1350
sg7
F60
sg8
S'physical'
p1353
sg10
I0
sg11
g12
sg13
S"Steals target's item."
p1354
sg15
S'Normal'
p1355
sg17
F100
sbsS'Retaliate'
p1356
(ipokeStructs
Move
p1357
(dp1358
g5
I5
sg6
g1356
sg7
F70
sg8
S'physical'
p1359
sg10
I0
sg11
g12
sg13
S"Power doubles if the user's teammate fainted the previous turn."
p1360
sg15
S'Normal'
p1361
sg17
F100
sbsS'Belly Drum'
p1362
(ipokeStructs
Move
p1363
(dp1364
g5
I10
sg6
g1362
sg7
Nsg8
S'non-damaging'
p1365
sg10
I0
sg11
g12
sg13
S'User loses 50% of max HP. Maximizes Attack.'
p1366
sg15
S'Normal'
p1367
sg17
NsbsS'Hidden Power Dark'
p1368
(ipokeStructs
Move
p1369
(dp1370
g5
I15
sg6
g1368
sg7
F60
sg8
S'special'
p1371
sg10
I0
sg11
g12
sg13
S"Type is based on the user's IVs."
p1372
sg15
S'Dark'
p1373
sg17
F100
sbsS'Block'
p1374
(ipokeStructs
Move
p1375
(dp1376
g5
I5
sg6
g1374
sg7
Nsg8
S'non-damaging'
p1377
sg10
I0
sg11
g12
sg13
S'The target cannot switch out.'
p1378
sg15
S'Normal'
p1379
sg17
NsbsS'Sketch'
p1380
(ipokeStructs
Move
p1381
(dp1382
g5
I1
sg6
g1380
sg7
Nsg8
S'non-damaging'
p1383
sg10
I0
sg11
g12
sg13
S'Permanently copies the last move used by the target.'
p1384
sg15
S'Normal'
p1385
sg17
NsbsS'Psycho Shift'
p1386
(ipokeStructs
Move
p1387
(dp1388
g5
I10
sg6
g1386
sg7
Nsg8
S'non-damaging'
p1389
sg10
I0
sg11
g12
sg13
S"Shifts the user's status effect to the foe."
p1390
sg15
S'Psychic'
p1391
sg17
F100
sbsS'Aqua Tail'
p1392
(ipokeStructs
Move
p1393
(dp1394
g5
I10
sg6
g1392
sg7
F90
sg8
S'physical'
p1395
sg10
I0
sg11
g12
sg13
S'No additional effect.'
p1396
sg15
S'Water'
p1397
sg17
F90
sbsS'Shadow Sneak'
p1398
(ipokeStructs
Move
p1399
(dp1400
g5
I30
sg6
g1398
sg7
F40
sg8
S'physical'
p1401
sg10
I0
sg11
g12
sg13
S'The user always attacks first.'
p1402
sg15
S'Ghost'
p1403
sg17
F100
sbsS'Natural Gift'
p1404
(ipokeStructs
Move
p1405
(dp1406
g5
I15
sg6
g1404
sg7
Nsg8
S'physical'
p1407
sg10
I0
sg11
g12
sg13
S"Power and type depends on the user's held Berry."
p1408
sg15
S'Normal'
p1409
sg17
F100
sbsS'Rock Slide'
p1410
(ipokeStructs
Move
p1411
(dp1412
g5
I10
sg6
g1410
sg7
F75
sg8
S'physical'
p1413
sg10
I0
sg11
g12
sg13
S'30% chance to flinch.'
p1414
sg15
S'Rock'
p1415
sg17
F90
sbsS'Meteor Mash'
p1416
(ipokeStructs
Move
p1417
(dp1418
g5
I10
sg6
g1416
sg7
F90
sg8
S'physical'
p1419
sg10
I0
sg11
g12
sg13
S'20% chance to raise Attack by 1 stage.'
p1420
sg15
S'Steel'
p1421
sg17
F90
sbsS'Megahorn'
p1422
(ipokeStructs
Move
p1423
(dp1424
g5
I10
sg6
g1422
sg7
F120
sg8
S'physical'
p1425
sg10
I0
sg11
g12
sg13
S'No additional effect.'
p1426
sg15
S'Bug'
p1427
sg17
F85
sbsS'Swords Dance'
p1428
(ipokeStructs
Move
p1429
(dp1430
g5
I20
sg6
g1428
sg7
Nsg8
S'non-damaging'
p1431
sg10
I0
sg11
g12
sg13
S'Boosts Attack by 2 stages.'
p1432
sg15
S'Normal'
p1433
sg17
NsbsS'Fire Fang'
p1434
(ipokeStructs
Move
p1435
(dp1436
g5
I15
sg6
g1434
sg7
F65
sg8
S'physical'
p1437
sg10
I0
sg11
g12
sg13
S'10% chance to flinch. 10% chance to burn.'
p1438
sg15
S'Fire'
p1439
sg17
F95
sbsS'Signal Beam'
p1440
(ipokeStructs
Move
p1441
(dp1442
g5
I15
sg6
g1440
sg7
F75
sg8
S'special'
p1443
sg10
I0
sg11
g12
sg13
S'10% chance to confuse.'
p1444
sg15
S'Bug'
p1445
sg17
F100
sbsS'Rock Throw'
p1446
(ipokeStructs
Move
p1447
(dp1448
g5
I15
sg6
g1446
sg7
F50
sg8
S'physical'
p1449
sg10
I0
sg11
g12
sg13
S'No additional effect.'
p1450
sg15
S'Rock'
p1451
sg17
F90
sbsS'Hidden Power Water'
p1452
(ipokeStructs
Move
p1453
(dp1454
g5
I15
sg6
g1452
sg7
F60
sg8
S'special'
p1455
sg10
I0
sg11
g12
sg13
S"Type is based on the user's IVs."
p1456
sg15
S'Water'
p1457
sg17
F100
sbsS'Echoed Voice'
p1458
(ipokeStructs
Move
p1459
(dp1460
g5
I15
sg6
g1458
sg7
F40
sg8
S'special'
p1461
sg10
I0
sg11
g12
sg13
S'Power increases when used consecutively.'
p1462
sg15
S'Normal'
p1463
sg17
F100
sbsS'Powder Snow'
p1464
(ipokeStructs
Move
p1465
(dp1466
g5
I25
sg6
g1464
sg7
F40
sg8
S'special'
p1467
sg10
I0
sg11
g12
sg13
S'10% chance to freeze.'
p1468
sg15
S'Ice'
p1469
sg17
F100
sbsS'Tail Slap'
p1470
(ipokeStructs
Move
p1471
(dp1472
g5
I10
sg6
g1470
sg7
F25
sg8
S'physical'
p1473
sg10
I0
sg11
g12
sg13
S'Hits 2-5 times in one turn.'
p1474
sg15
S'Normal'
p1475
sg17
F85
sbsS'Grass Pledge'
p1476
(ipokeStructs
Move
p1477
(dp1478
g5
I10
sg6
g1476
sg7
F80
sg8
S'special'
p1479
sg10
I0
sg11
g12
sg13
S'Use with Grass Pledge and Water Pledge for additional effect.'
p1480
sg15
S'Grass'
p1481
sg17
F100
sbsS'Hidden Power Psychic'
p1482
(ipokeStructs
Move
p1483
(dp1484
g5
I15
sg6
g1482
sg7
F60
sg8
S'special'
p1485
sg10
I0
sg11
g12
sg13
S"Type is based on the user's IVs."
p1486
sg15
S'Psychic'
p1487
sg17
F100
sbsS'Outrage'
p1488
(ipokeStructs
Move
p1489
(dp1490
g5
I15
sg6
g1488
sg7
F120
sg8
S'physical'
p1491
sg10
I0
sg11
g12
sg13
S'Repeats for 2-3 turns. Confuses at the end.'
p1492
sg15
S'Dragon'
p1493
sg17
F100
sbsS'Whirlpool'
p1494
(ipokeStructs
Move
p1495
(dp1496
g5
I15
sg6
g1494
sg7
F35
sg8
S'special'
p1497
sg10
I0
sg11
g12
sg13
S'Traps and damages target for 4-5 turns.'
p1498
sg15
S'Water'
p1499
sg17
F85
sbsS'Venom Drench'
p1500
(ipokeStructs
Move
p1501
(dp1502
g5
I20
sg6
g1500
sg7
Nsg8
S'non-damaging'
p1503
sg10
I0
sg11
g12
sg13
S'Lowers the Attack, Special Attack, and Speed stats of a poisoned target.'
p1504
sg15
S'Poison'
p1505
sg17
F100
sbsS"Land's Wrath"
p1506
(ipokeStructs
Move
p1507
(dp1508
g5
I10
sg6
g1506
sg7
F90
sg8
S'physical'
p1509
sg10
I0
sg11
g12
sg13
S'Deals damage to one adjacent target.'
p1510
sg15
S'Ground'
p1511
sg17
F100
sbsS'Defense Curl'
p1512
(ipokeStructs
Move
p1513
(dp1514
g5
I40
sg6
g1512
sg7
Nsg8
S'non-damaging'
p1515
sg10
I0
sg11
g12
sg13
S'Boosts Defense by 1 stage.'
p1516
sg15
S'Normal'
p1517
sg17
NsbsS'Taunt'
p1518
(ipokeStructs
Move
p1519
(dp1520
g5
I20
sg6
g1518
sg7
Nsg8
S'non-damaging'
p1521
sg10
I0
sg11
g12
sg13
S'Forces the foe to use damaging moves for 2 turns.'
p1522
sg15
S'Dark'
p1523
sg17
F100
sbsS'Dive'
p1524
(ipokeStructs
Move
p1525
(dp1526
g5
I10
sg6
g1524
sg7
F80
sg8
S'physical'
p1527
sg10
I0
sg11
g12
sg13
S'User is made invulnerable for one turn, then hits the next turn.'
p1528
sg15
S'Water'
p1529
sg17
F100
sbsS'Rage Powder'
p1530
(ipokeStructs
Move
p1531
(dp1532
g5
I20
sg6
g1530
sg7
Nsg8
S'non-damaging'
p1533
sg10
I0
sg11
g12
sg13
S'All moves target the user.'
p1534
sg15
S'Bug'
p1535
sg17
NsbsS'Lovely Kiss'
p1536
(ipokeStructs
Move
p1537
(dp1538
g5
I10
sg6
g1536
sg7
Nsg8
S'non-damaging'
p1539
sg10
I0
sg11
g12
sg13
S'Puts the target to sleep.'
p1540
sg15
S'Normal'
p1541
sg17
F75
sbsS'Skill Swap'
p1542
(ipokeStructs
Move
p1543
(dp1544
g5
I10
sg6
g1542
sg7
Nsg8
S'non-damaging'
p1545
sg10
I0
sg11
g12
sg13
S'The user and the target trade abilities.'
p1546
sg15
S'Psychic'
p1547
sg17
NsbsS'Mirror Coat'
p1548
(ipokeStructs
Move
p1549
(dp1550
g5
I20
sg6
g1548
sg7
Nsg8
S'special'
p1551
sg10
I0
sg11
g12
sg13
S'If hit by a special attack, returns double the damage.'
p1552
sg15
S'Psychic'
p1553
sg17
F100
sbsS'Lock-On'
p1554
(ipokeStructs
Move
p1555
(dp1556
g5
I5
sg6
g1554
sg7
Nsg8
S'non-damaging'
p1557
sg10
I0
sg11
g12
sg13
S'The next move used will always hit.'
p1558
sg15
S'Normal'
p1559
sg17
NsbsS'Safeguard'
p1560
(ipokeStructs
Move
p1561
(dp1562
g5
I25
sg6
g1560
sg7
Nsg8
S'non-damaging'
p1563
sg10
I0
sg11
g12
sg13
S'Blocks status conditions for 5 turns.'
p1564
sg15
S'Normal'
p1565
sg17
NsbsS'Judgment'
p1566
(ipokeStructs
Move
p1567
(dp1568
g5
I10
sg6
g1566
sg7
F100
sg8
S'special'
p1569
sg10
I0
sg11
g12
sg13
S"Type is dependent on the user's held plate item."
p1570
sg15
S'Normal'
p1571
sg17
F100
sbsS'Teeter Dance'
p1572
(ipokeStructs
Move
p1573
(dp1574
g5
I20
sg6
g1572
sg7
Nsg8
S'non-damaging'
p1575
sg10
I0
sg11
g12
sg13
S'Confuses all other active Pokemon.'
p1576
sg15
S'Normal'
p1577
sg17
F100
sbsS'Boomburst'
p1578
(ipokeStructs
Move
p1579
(dp1580
g5
I10
sg6
g1578
sg7
F140
sg8
S'special'
p1581
sg10
I0
sg11
g12
sg13
S'Deals damage to all Pokemon within range, including any allies.'
p1582
sg15
S'Normal'
p1583
sg17
F100
sbsS'Parting Shot'
p1584
(ipokeStructs
Move
p1585
(dp1586
g5
I20
sg6
g1584
sg7
Nsg8
S'non-damaging'
p1587
sg10
I0
sg11
g12
sg13
S"Lowers all adjacent foes' Attack and Special Attack by 1 stage, then the user switches out."
p1588
sg15
S'Dark'
p1589
sg17
F100
sbsS'Roar'
p1590
(ipokeStructs
Move
p1591
(dp1592
g5
I20
sg6
g1590
sg7
Nsg8
S'non-damaging'
p1593
sg10
I0
sg11
g12
sg13
S'Forces a switch to a random Pokemon.'
p1594
sg15
S'Normal'
p1595
sg17
F100
sbsS'Bind'
p1596
(ipokeStructs
Move
p1597
(dp1598
g5
I20
sg6
g1596
sg7
F15
sg8
S'physical'
p1599
sg10
I0
sg11
g12
sg13
S'Prevents the opponent from attacking for 2-5 turns.'
p1600
sg15
S'Normal'
p1601
sg17
F85
sbsS'Headbutt'
p1602
(ipokeStructs
Move
p1603
(dp1604
g5
I15
sg6
g1602
sg7
F70
sg8
S'physical'
p1605
sg10
I0
sg11
g12
sg13
S'30% chance to flinch the target.'
p1606
sg15
S'Normal'
p1607
sg17
F100
sbsS'Payback'
p1608
(ipokeStructs
Move
p1609
(dp1610
g5
I10
sg6
g1608
sg7
F50
sg8
S'physical'
p1611
sg10
I0
sg11
g12
sg13
S'Base Power doubles if the foe has taken its turn.'
p1612
sg15
S'Dark'
p1613
sg17
F100
sbsS'Magnitude'
p1614
(ipokeStructs
Move
p1615
(dp1616
g5
I30
sg6
g1614
sg7
Nsg8
S'physical'
p1617
sg10
I0
sg11
g12
sg13
S'Has variable damage.'
p1618
sg15
S'Ground'
p1619
sg17
F100
sbsS'Sheer Cold'
p1620
(ipokeStructs
Move
p1621
(dp1622
g5
I5
sg6
g1620
sg7
Nsg8
S'special'
p1623
sg10
I0
sg11
g12
sg13
S'Will OHKO the target.'
p1624
sg15
S'Ice'
p1625
sg17
F30
sbsS'Crafty Shield'
p1626
(ipokeStructs
Move
p1627
(dp1628
g5
I10
sg6
g1626
sg7
Nsg8
S'non-damaging'
p1629
sg10
I0
sg11
g12
sg13
S'Protects the user and allies from status moves. Priority +4.'
p1630
sg15
S'Fairy'
p1631
sg17
NsbsS'Steel Wing'
p1632
(ipokeStructs
Move
p1633
(dp1634
g5
I25
sg6
g1632
sg7
F70
sg8
S'physical'
p1635
sg10
I0
sg11
g12
sg13
S"10% chance to raise the user's Defense by 1 stage."
p1636
sg15
S'Steel'
p1637
sg17
F90
sbsS'Thief'
p1638
(ipokeStructs
Move
p1639
(dp1640
g5
I25
sg6
g1638
sg7
F60
sg8
S'physical'
p1641
sg10
I0
sg11
g12
sg13
S"Steals target's item."
p1642
sg15
S'Dark'
p1643
sg17
F100
sbsS'Seed Bomb'
p1644
(ipokeStructs
Move
p1645
(dp1646
g5
I15
sg6
g1644
sg7
F80
sg8
S'physical'
p1647
sg10
I0
sg11
g12
sg13
S'No additional effect.'
p1648
sg15
S'Grass'
p1649
sg17
F100
sbsS'Superpower'
p1650
(ipokeStructs
Move
p1651
(dp1652
g5
I5
sg6
g1650
sg7
F120
sg8
S'physical'
p1653
sg10
I0
sg11
g12
sg13
S"Lowers the user's Attack and Defense by 1 stage."
p1654
sg15
S'Fighting'
p1655
sg17
F100
sbsS'Miracle Eye'
p1656
(ipokeStructs
Move
p1657
(dp1658
g5
I40
sg6
g1656
sg7
Nsg8
S'non-damaging'
p1659
sg10
I0
sg11
g12
sg13
S'Nullifies evasion. Allows Psychic-type moves to hit Darks.'
p1660
sg15
S'Psychic'
p1661
sg17
NsbsS'Phantom Force'
p1662
(ipokeStructs
Move
p1663
(dp1664
g5
I10
sg6
g1662
sg7
F90
sg8
S'physical'
p1665
sg10
I0
sg11
g12
sg13
S'Deals damage to one adjacent target and breaks through Protect and Detect for this turn, allowing other Pokemon to attack the target normally. This attack charges on the first turn and strikes on the second. On the first turn, the user avoids all attacks. The user cannot make a move between turns. If the user is holding a Power Herb, the move completes in one turn. Makes contact.'
p1666
sg15
S'Ghost'
p1667
sg17
F100
sbsS'Ingrain'
p1668
(ipokeStructs
Move
p1669
(dp1670
g5
I20
sg6
g1668
sg7
Nsg8
S'non-damaging'
p1671
sg10
I0
sg11
g12
sg13
S'Heals the user 1/16 its max HP each turn. Prevents the user from switching.'
p1672
sg15
S'Grass'
p1673
sg17
NsbsS'Psychic'
p1674
(ipokeStructs
Move
p1675
(dp1676
g5
I10
sg6
g1674
sg7
F90
sg8
S'special'
p1677
sg10
I0
sg11
g12
sg13
S'10% chance to lower Special Defense 1 stage.'
p1678
sg15
S'Psychic'
p1679
sg17
F100
sbsS'Silver Wind'
p1680
(ipokeStructs
Move
p1681
(dp1682
g5
I5
sg6
g1680
sg7
F60
sg8
S'special'
p1683
sg10
I0
sg11
g12
sg13
S'10% chance to boost all stats by 1 stage.'
p1684
sg15
S'Bug'
p1685
sg17
F100
sbsS'Tickle'
p1686
(ipokeStructs
Move
p1687
(dp1688
g5
I20
sg6
g1686
sg7
Nsg8
S'non-damaging'
p1689
sg10
I0
sg11
g12
sg13
S'Lowers Attack and Defense by 1 stage.'
p1690
sg15
S'Normal'
p1691
sg17
F100
sbsS'Wild Charge'
p1692
(ipokeStructs
Move
p1693
(dp1694
g5
I15
sg6
g1692
sg7
F90
sg8
S'physical'
p1695
sg10
I0
sg11
g12
sg13
S'Has 1/4 recoil.'
p1696
sg15
S'Electric'
p1697
sg17
F100
sbsS'Light Screen'
p1698
(ipokeStructs
Move
p1699
(dp1700
g5
I30
sg6
g1698
sg7
Nsg8
S'non-damaging'
p1701
sg10
I0
sg11
g12
sg13
S'Lowers damage from special attacks for 5 turns.'
p1702
sg15
S'Psychic'
p1703
sg17
NsbsS'Astonish'
p1704
(ipokeStructs
Move
p1705
(dp1706
g5
I15
sg6
g1704
sg7
F30
sg8
S'physical'
p1707
sg10
I0
sg11
g12
sg13
S'30% chance to flinch.'
p1708
sg15
S'Ghost'
p1709
sg17
F100
sbsS'Healing Wish'
p1710
(ipokeStructs
Move
p1711
(dp1712
g5
I10
sg6
g1710
sg7
Nsg8
S'non-damaging'
p1713
sg10
I0
sg11
g12
sg13
S'KOs the user and heals the next Pokemon in.'
p1714
sg15
S'Psychic'
p1715
sg17
NsbsS'Dragon Breath'
p1716
(ipokeStructs
Move
p1717
(dp1718
g5
I20
sg6
g1716
sg7
F60
sg8
S'special'
p1719
sg10
I0
sg11
g12
sg13
S'30% chance to paralyze.'
p1720
sg15
S'Dragon'
p1721
sg17
F100
sbsS'Baby-Doll Eyes'
p1722
(ipokeStructs
Move
p1723
(dp1724
g5
I30
sg6
g1722
sg7
Nsg8
S'non-damaging'
p1725
sg10
I0
sg11
g12
sg13
S"Lowers the target's Attack by 1 stage. Priority +1."
p1726
sg15
S'Fairy'
p1727
sg17
F100
sbsS'Aeroblast'
p1728
(ipokeStructs
Move
p1729
(dp1730
g5
I5
sg6
g1728
sg7
F100
sg8
S'special'
p1731
sg10
I0
sg11
g12
sg13
S'High critical hit rate.'
p1732
sg15
S'Flying'
p1733
sg17
F95
sbsS'Thousand Arrows'
p1734
(ipokeStructs
Move
p1735
(dp1736
g5
I10
sg6
g1734
sg7
F90
sg8
S'physical'
p1737
sg10
I0
sg11
g12
sg13
S'Hits Pokemon in the air and knocks them to the ground.'
p1738
sg15
S'Ground'
p1739
sg17
F100
sbsS'Ice Beam'
p1740
(ipokeStructs
Move
p1741
(dp1742
g5
I10
sg6
g1740
sg7
F90
sg8
S'special'
p1743
sg10
I0
sg11
g12
sg13
S'10% chance to freeze the target.'
p1744
sg15
S'Ice'
p1745
sg17
F100
sbsS'Fairy Wind'
p1746
(ipokeStructs
Move
p1747
(dp1748
g5
I30
sg6
g1746
sg7
F40
sg8
S'special'
p1749
sg10
I0
sg11
g12
sg13
S'Deals damage to one adjacent target.'
p1750
sg15
S'Fairy'
p1751
sg17
F100
sbsS'Confusion'
p1752
(ipokeStructs
Move
p1753
(dp1754
g5
I25
sg6
g1752
sg7
F50
sg8
S'special'
p1755
sg10
I0
sg11
g12
sg13
S'10% chance to confuse.'
p1756
sg15
S'Psychic'
p1757
sg17
F100
sbsS'Pursuit'
p1758
(ipokeStructs
Move
p1759
(dp1760
g5
I20
sg6
g1758
sg7
F40
sg8
S'physical'
p1761
sg10
I0
sg11
g12
sg13
S'Doubles in power if the target switches, and hits them before they can escape.'
p1762
sg15
S'Dark'
p1763
sg17
F100
sbsS'Mach Punch'
p1764
(ipokeStructs
Move
p1765
(dp1766
g5
I30
sg6
g1764
sg7
F40
sg8
S'physical'
p1767
sg10
I0
sg11
g12
sg13
S'The user always attacks first.'
p1768
sg15
S'Fighting'
p1769
sg17
F100
sbsS'Rage'
p1770
(ipokeStructs
Move
p1771
(dp1772
g5
I20
sg6
g1770
sg7
F20
sg8
S'physical'
p1773
sg10
I0
sg11
g12
sg13
S'Boosts Atk 1 stage if hit.'
p1774
sg15
S'Normal'
p1775
sg17
F100
sbsS'Wish'
p1776
(ipokeStructs
Move
p1777
(dp1778
g5
I10
sg6
g1776
sg7
Nsg8
S'non-damaging'
p1779
sg10
I0
sg11
g12
sg13
S'Heals 50% of max HP after 2 turns.'
p1780
sg15
S'Normal'
p1781
sg17
NsbsS'Defog'
p1782
(ipokeStructs
Move
p1783
(dp1784
g5
I15
sg6
g1782
sg7
Nsg8
S'non-damaging'
p1785
sg10
I0
sg11
g12
sg13
S"Lowers target's evasion by 1 stage. Removes various field effects."
p1786
sg15
S'Flying'
p1787
sg17
NsbsS'Screech'
p1788
(ipokeStructs
Move
p1789
(dp1790
g5
I40
sg6
g1788
sg7
Nsg8
S'non-damaging'
p1791
sg10
I0
sg11
g12
sg13
S"Lowers foe's Defense by 2 stages."
p1792
sg15
S'Normal'
p1793
sg17
F85
sbsS'Simple Beam'
p1794
(ipokeStructs
Move
p1795
(dp1796
g5
I15
sg6
g1794
sg7
Nsg8
S'non-damaging'
p1797
sg10
I0
sg11
g12
sg13
S"Changes the target's ability to Simple."
p1798
sg15
S'Normal'
p1799
sg17
F100
sbsS'Mimic'
p1800
(ipokeStructs
Move
p1801
(dp1802
g5
I10
sg6
g1800
sg7
Nsg8
S'non-damaging'
p1803
sg10
I0
sg11
g12
sg13
S'Copies the last move used by the target.'
p1804
sg15
S'Normal'
p1805
sg17
NsbsS'Razor Shell'
p1806
(ipokeStructs
Move
p1807
(dp1808
g5
I10
sg6
g1806
sg7
F75
sg8
S'physical'
p1809
sg10
I0
sg11
g12
sg13
S"50% chance to lower target's Defense by 1 stage."
p1810
sg15
S'Water'
p1811
sg17
F95
sbsS'Focus Punch'
p1812
(ipokeStructs
Move
p1813
(dp1814
g5
I20
sg6
g1812
sg7
F150
sg8
S'physical'
p1815
sg10
I0
sg11
g12
sg13
S'Fails if the user takes damage before it hits.'
p1816
sg15
S'Fighting'
p1817
sg17
F100
sbsS'Encore'
p1818
(ipokeStructs
Move
p1819
(dp1820
g5
I5
sg6
g1818
sg7
Nsg8
S'non-damaging'
p1821
sg10
I0
sg11
g12
sg13
S'Causes the target to repeat the last move for 2-5 turns.'
p1822
sg15
S'Normal'
p1823
sg17
F100
sbsS'Bubble Beam'
p1824
(ipokeStructs
Move
p1825
(dp1826
g5
I20
sg6
g1824
sg7
F65
sg8
S'special'
p1827
sg10
I0
sg11
g12
sg13
S'10% chance to lower Speed by 1 stage.'
p1828
sg15
S'Water'
p1829
sg17
F100
sbsS'Bug Buzz'
p1830
(ipokeStructs
Move
p1831
(dp1832
g5
I10
sg6
g1830
sg7
F90
sg8
S'special'
p1833
sg10
I0
sg11
g12
sg13
S'10% chance to lower Special Defense by 1 stage.'
p1834
sg15
S'Bug'
p1835
sg17
F100
sbsS'Mega Drain'
p1836
(ipokeStructs
Move
p1837
(dp1838
g5
I15
sg6
g1836
sg7
F40
sg8
S'special'
p1839
sg10
I0
sg11
g12
sg13
S'Leeches 50% of the damage dealt.'
p1840
sg15
S'Grass'
p1841
sg17
F100
sbsS'Vacuum Wave'
p1842
(ipokeStructs
Move
p1843
(dp1844
g5
I30
sg6
g1842
sg7
F40
sg8
S'special'
p1845
sg10
I0
sg11
g12
sg13
S'The user always attacks first.'
p1846
sg15
S'Fighting'
p1847
sg17
F100
sbsS'Geomancy'
p1848
(ipokeStructs
Move
p1849
(dp1850
g5
I10
sg6
g1848
sg7
Nsg8
S'non-damaging'
p1851
sg10
I0
sg11
g12
sg13
S'The user charges turn one, then sharply raises Special Attack, Special Defense, and Speed the next turn.'
p1852
sg15
S'Fairy'
p1853
sg17
NsbsS'Slack Off'
p1854
(ipokeStructs
Move
p1855
(dp1856
g5
I10
sg6
g1854
sg7
Nsg8
S'non-damaging'
p1857
sg10
I0
sg11
g12
sg13
S'Heals 50% max HP.'
p1858
sg15
S'Normal'
p1859
sg17
NsbsS'Growth'
p1860
(ipokeStructs
Move
p1861
(dp1862
g5
I40
sg6
g1860
sg7
Nsg8
S'non-damaging'
p1863
sg10
I0
sg11
g12
sg13
S'Boosts Attack and Special Attack by one stage. Boosts Attack and Special Attack by two stages in bright sunlight.'
p1864
sg15
S'Normal'
p1865
sg17
NsbsS'Sludge Wave'
p1866
(ipokeStructs
Move
p1867
(dp1868
g5
I10
sg6
g1866
sg7
F95
sg8
S'special'
p1869
sg10
I0
sg11
g12
sg13
S'10% chance to poison the target.'
p1870
sg15
S'Poison'
p1871
sg17
F100
sbsS'Electro Ball'
p1872
(ipokeStructs
Move
p1873
(dp1874
g5
I10
sg6
g1872
sg7
Nsg8
S'special'
p1875
sg10
I0
sg11
g12
sg13
S'Inflicts more damage the faster the user is compared to the target.'
p1876
sg15
S'Electric'
p1877
sg17
F100
sbsS'Guillotine'
p1878
(ipokeStructs
Move
p1879
(dp1880
g5
I5
sg6
g1878
sg7
Nsg8
S'physical'
p1881
sg10
I0
sg11
g12
sg13
S'Will OHKO the target.'
p1882
sg15
S'Normal'
p1883
sg17
F30
sbsS'Hyper Beam'
p1884
(ipokeStructs
Move
p1885
(dp1886
g5
I5
sg6
g1884
sg7
F150
sg8
S'special'
p1887
sg10
I0
sg11
g12
sg13
S'User cannot move next turn.'
p1888
sg15
S'Normal'
p1889
sg17
F90
sbsS'Acid'
p1890
(ipokeStructs
Move
p1891
(dp1892
g5
I30
sg6
g1890
sg7
F40
sg8
S'special'
p1893
sg10
I0
sg11
g12
sg13
S'10% chance to lower Defense by 1 stage.'
p1894
sg15
S'Poison'
p1895
sg17
F100
sbsS'Substitute'
p1896
(ipokeStructs
Move
p1897
(dp1898
g5
I10
sg6
g1896
sg7
Nsg8
S'non-damaging'
p1899
sg10
I0
sg11
g12
sg13
S"Takes 1/4 the user's max HP to create a Substitute that takes damage for the user."
p1900
sg15
S'Normal'
p1901
sg17
NsbsS'Rock Blast'
p1902
(ipokeStructs
Move
p1903
(dp1904
g5
I10
sg6
g1902
sg7
F25
sg8
S'physical'
p1905
sg10
I0
sg11
g12
sg13
S'Hits 2-5 times in one turn.'
p1906
sg15
S'Rock'
p1907
sg17
F90
sbsS'Flower Shield'
p1908
(ipokeStructs
Move
p1909
(dp1910
g5
I10
sg6
g1908
sg7
Nsg8
S'non-damaging'
p1911
sg10
I0
sg11
g12
sg13
S'The user raises the Defense stat of all Grass-type Pokemon in battle.'
p1912
sg15
S'Fairy'
p1913
sg17
NsbsS'Ion Deluge'
p1914
(ipokeStructs
Move
p1915
(dp1916
g5
I25
sg6
g1914
sg7
Nsg8
S'non-damaging'
p1917
sg10
I0
sg11
g12
sg13
S'Changes Normal-type moves to Electric-type moves.'
p1918
sg15
S'Electric'
p1919
sg17
NsbsS'Gunk Shot'
p1920
(ipokeStructs
Move
p1921
(dp1922
g5
I5
sg6
g1920
sg7
F120
sg8
S'physical'
p1923
sg10
I0
sg11
g12
sg13
S'30% chance to poison.'
p1924
sg15
S'Poison'
p1925
sg17
F80
sbsS'Flash'
p1926
(ipokeStructs
Move
p1927
(dp1928
g5
I20
sg6
g1926
sg7
Nsg8
S'non-damaging'
p1929
sg10
I0
sg11
g12
sg13
S"Lowers foe's accuracy 1 stage."
p1930
sg15
S'Normal'
p1931
sg17
F100
sbsS'Frost Breath'
p1932
(ipokeStructs
Move
p1933
(dp1934
g5
I10
sg6
g1932
sg7
F60
sg8
S'special'
p1935
sg10
I0
sg11
g12
sg13
S'Always results in a critical hit.'
p1936
sg15
S'Ice'
p1937
sg17
F90
sbsS'Camouflage'
p1938
(ipokeStructs
Move
p1939
(dp1940
g5
I20
sg6
g1938
sg7
Nsg8
S'non-damaging'
p1941
sg10
I0
sg11
g12
sg13
S"Changes user's type to Normal in link battles."
p1942
sg15
S'Normal'
p1943
sg17
NsbsS'Crabhammer'
p1944
(ipokeStructs
Move
p1945
(dp1946
g5
I10
sg6
g1944
sg7
F100
sg8
S'physical'
p1947
sg10
I0
sg11
g12
sg13
S'High critical hit rate.'
p1948
sg15
S'Water'
p1949
sg17
F90
sbsS'Quash'
p1950
(ipokeStructs
Move
p1951
(dp1952
g5
I15
sg6
g1950
sg7
Nsg8
S'non-damaging'
p1953
sg10
I0
sg11
g12
sg13
S'Forces the target to move last.'
p1954
sg15
S'Dark'
p1955
sg17
F100
sbsS'Solar Beam'
p1956
(ipokeStructs
Move
p1957
(dp1958
g5
I10
sg6
g1956
sg7
F120
sg8
S'special'
p1959
sg10
I0
sg11
g12
sg13
S'Charges up turn 1; attacks on turn 2.'
p1960
sg15
S'Grass'
p1961
sg17
F100
sbsS'Sharpen'
p1962
(ipokeStructs
Move
p1963
(dp1964
g5
I30
sg6
g1962
sg7
Nsg8
S'non-damaging'
p1965
sg10
I0
sg11
g12
sg13
S'Boosts Attack by 1 stage.'
p1966
sg15
S'Normal'
p1967
sg17
NsbsS'Flame Charge'
p1968
(ipokeStructs
Move
p1969
(dp1970
g5
I20
sg6
g1968
sg7
F50
sg8
S'physical'
p1971
sg10
I0
sg11
g12
sg13
S"Boosts user's Speed by 1 stage."
p1972
sg15
S'Fire'
p1973
sg17
F100
sbsS'Circle Throw'
p1974
(ipokeStructs
Move
p1975
(dp1976
g5
I10
sg6
g1974
sg7
F60
sg8
S'physical'
p1977
sg10
I0
sg11
g12
sg13
S'Forces the target to switch to a random Pokemon.'
p1978
sg15
S'Fighting'
p1979
sg17
F90
sbsS'Switcheroo'
p1980
(ipokeStructs
Move
p1981
(dp1982
g5
I10
sg6
g1980
sg7
Nsg8
S'non-damaging'
p1983
sg10
I0
sg11
g12
sg13
S'Switches items with the target.'
p1984
sg15
S'Dark'
p1985
sg17
F100
sbsS'Crush Grip'
p1986
(ipokeStructs
Move
p1987
(dp1988
g5
I5
sg6
g1986
sg7
Nsg8
S'physical'
p1989
sg10
I0
sg11
g12
sg13
S"Base power depends on the foe's remaining HP."
p1990
sg15
S'Normal'
p1991
sg17
F100
sbsS'Razor Leaf'
p1992
(ipokeStructs
Move
p1993
(dp1994
g5
I25
sg6
g1992
sg7
F55
sg8
S'physical'
p1995
sg10
I0
sg11
g12
sg13
S'Has a high critical hit rate.'
p1996
sg15
S'Grass'
p1997
sg17
F95
sbsS'Drill Run'
p1998
(ipokeStructs
Move
p1999
(dp2000
g5
I10
sg6
g1998
sg7
F80
sg8
S'physical'
p2001
sg10
I0
sg11
g12
sg13
S'Has a high critical hit rate.'
p2002
sg15
S'Ground'
p2003
sg17
F95
sbsS'Trick-or-Treat'
p2004
(ipokeStructs
Move
p2005
(dp2006
g5
I20
sg6
g2004
sg7
Nsg8
S'non-damaging'
p2007
sg10
I0
sg11
g12
sg13
S"Adds Ghost to the target's type(s). If the target already has three types, the third is replaced."
p2008
sg15
S'Ghost'
p2009
sg17
F100
sbsS'Waterfall'
p2010
(ipokeStructs
Move
p2011
(dp2012
g5
I15
sg6
g2010
sg7
F80
sg8
S'physical'
p2013
sg10
I0
sg11
g12
sg13
S'No additional effect.'
p2014
sg15
S'Water'
p2015
sg17
F100
sbsS'Mat Block'
p2016
(ipokeStructs
Move
p2017
(dp2018
g5
I10
sg6
g2016
sg7
Nsg8
S'non-damaging'
p2019
sg10
I0
sg11
g12
sg13
S'The user protects itself and its allies from damaging moves. Only works first turn out.'
p2020
sg15
S'Fighting'
p2021
sg17
NsbsS'Earthquake'
p2022
(ipokeStructs
Move
p2023
(dp2024
g5
I10
sg6
g2022
sg7
F100
sg8
S'physical'
p2025
sg10
I0
sg11
g12
sg13
S'Hits Pokemon using Dig with double Base Power.'
p2026
sg15
S'Ground'
p2027
sg17
F100
sbsS'Celebrate'
p2028
(ipokeStructs
Move
p2029
(dp2030
g5
I40
sg6
g2028
sg7
Nsg8
S'non-damaging'
p2031
sg10
I0
sg11
g12
sg13
S'No in-game effect.'
p2032
sg15
S'Normal'
p2033
sg17
NsbsS'Comet Punch'
p2034
(ipokeStructs
Move
p2035
(dp2036
g5
I15
sg6
g2034
sg7
F18
sg8
S'physical'
p2037
sg10
I0
sg11
g12
sg13
S'Hits 2-5 times in one turn.'
p2038
sg15
S'Normal'
p2039
sg17
F85
sbsS'Embargo'
p2040
(ipokeStructs
Move
p2041
(dp2042
g5
I15
sg6
g2040
sg7
Nsg8
S'non-damaging'
p2043
sg10
I0
sg11
g12
sg13
S'Item use is prevented for five turns.'
p2044
sg15
S'Dark'
p2045
sg17
F100
sbsS'Power-Up Punch'
p2046
(ipokeStructs
Move
p2047
(dp2048
g5
I20
sg6
g2046
sg7
F40
sg8
S'physical'
p2049
sg10
I0
sg11
g12
sg13
S'Hitting a target raises the Attack stat.'
p2050
sg15
S'Fighting'
p2051
sg17
F100
sbsS'Reversal'
p2052
(ipokeStructs
Move
p2053
(dp2054
g5
I15
sg6
g2052
sg7
Nsg8
S'physical'
p2055
sg10
I0
sg11
g12
sg13
S'Does more damage as HP decreases.'
p2056
sg15
S'Fighting'
p2057
sg17
F100
sbsS'Tail Whip'
p2058
(ipokeStructs
Move
p2059
(dp2060
g5
I30
sg6
g2058
sg7
Nsg8
S'non-damaging'
p2061
sg10
I0
sg11
g12
sg13
S"Lowers foe's Defense by 1 stage."
p2062
sg15
S'Normal'
p2063
sg17
F100
sbsS'Zen Headbutt'
p2064
(ipokeStructs
Move
p2065
(dp2066
g5
I15
sg6
g2064
sg7
F80
sg8
S'physical'
p2067
sg10
I0
sg11
g12
sg13
S'20% chance to flinch.'
p2068
sg15
S'Psychic'
p2069
sg17
F90
sbsS'Play Nice'
p2070
(ipokeStructs
Move
p2071
(dp2072
g5
I20
sg6
g2070
sg7
Nsg8
S'non-damaging'
p2073
sg10
I0
sg11
g12
sg13
S"Lowers the target's Attack by 1 stage. Ignores Protect."
p2074
sg15
S'Normal'
p2075
sg17
NsbsS'Smelling Salts'
p2076
(ipokeStructs
Move
p2077
(dp2078
g5
I10
sg6
g2076
sg7
F70
sg8
S'physical'
p2079
sg10
I0
sg11
g12
sg13
S'Has 120 power on a paralyzed target, but cures it of paralysis.'
p2080
sg15
S'Normal'
p2081
sg17
F100
sbsS'Trick'
p2082
(ipokeStructs
Move
p2083
(dp2084
g5
I10
sg6
g2082
sg7
Nsg8
S'non-damaging'
p2085
sg10
I0
sg11
g12
sg13
S'Switches items with the foe.'
p2086
sg15
S'Psychic'
p2087
sg17
F100
sbsS'Pound'
p2088
(ipokeStructs
Move
p2089
(dp2090
g5
I35
sg6
g2088
sg7
F40
sg8
S'physical'
p2091
sg10
I0
sg11
g12
sg13
S'No additional effect.'
p2092
sg15
S'Normal'
p2093
sg17
F100
sbsS'Pain Split'
p2094
(ipokeStructs
Move
p2095
(dp2096
g5
I20
sg6
g2094
sg7
Nsg8
S'non-damaging'
p2097
sg10
I0
sg11
g12
sg13
S"Averages both Pokemon's HP."
p2098
sg15
S'Normal'
p2099
sg17
NsbsS'Psych Up'
p2100
(ipokeStructs
Move
p2101
(dp2102
g5
I10
sg6
g2100
sg7
Nsg8
S'non-damaging'
p2103
sg10
I0
sg11
g12
sg13
S"Copies the foe's stat changes."
p2104
sg15
S'Normal'
p2105
sg17
NsbsS'Ice Fang'
p2106
(ipokeStructs
Move
p2107
(dp2108
g5
I15
sg6
g2106
sg7
F65
sg8
S'physical'
p2109
sg10
I0
sg11
g12
sg13
S'10% chance to flinch. 10% chance to freeze.'
p2110
sg15
S'Ice'
p2111
sg17
F95
sbsS'Sleep Powder'
p2112
(ipokeStructs
Move
p2113
(dp2114
g5
I15
sg6
g2112
sg7
Nsg8
S'non-damaging'
p2115
sg10
I0
sg11
g12
sg13
S'Puts the target to sleep.'
p2116
sg15
S'Grass'
p2117
sg17
F75
sbsS'Vine Whip'
p2118
(ipokeStructs
Move
p2119
(dp2120
g5
I15
sg6
g2118
sg7
F45
sg8
S'physical'
p2121
sg10
I0
sg11
g12
sg13
S'No additional effect.'
p2122
sg15
S'Grass'
p2123
sg17
F100
sbsS'Pin Missile'
p2124
(ipokeStructs
Move
p2125
(dp2126
g5
I20
sg6
g2124
sg7
F25
sg8
S'physical'
p2127
sg10
I0
sg11
g12
sg13
S'Hits 2-5 times in one turn.'
p2128
sg15
S'Bug'
p2129
sg17
F95
sbsS'Smack Down'
p2130
(ipokeStructs
Move
p2131
(dp2132
g5
I15
sg6
g2130
sg7
F50
sg8
S'physical'
p2133
sg10
I0
sg11
g12
sg13
S"Can hit if target is using Fly, Bounce, or Sky Drop. Ends target's airborne moves and its benefits from Flying type or Levitate."
p2134
sg15
S'Rock'
p2135
sg17
F100
sbsS'Hidden Power Ghost'
p2136
(ipokeStructs
Move
p2137
(dp2138
g5
I15
sg6
g2136
sg7
F60
sg8
S'special'
p2139
sg10
I0
sg11
g12
sg13
S"Type is based on the user's IVs."
p2140
sg15
S'Ghost'
p2141
sg17
F100
sbsS'Feint Attack'
p2142
(ipokeStructs
Move
p2143
(dp2144
g5
I20
sg6
g2142
sg7
F60
sg8
S'physical'
p2145
sg10
I0
sg11
g12
sg13
S'Ignores accuracy modifiers.'
p2146
sg15
S'Dark'
p2147
sg17
NsbsS'Growl'
p2148
(ipokeStructs
Move
p2149
(dp2150
g5
I40
sg6
g2148
sg7
Nsg8
S'non-damaging'
p2151
sg10
I0
sg11
g12
sg13
S"Lowers target's Attack by 1 stage."
p2152
sg15
S'Normal'
p2153
sg17
F100
sbsS'Secret Power'
p2154
(ipokeStructs
Move
p2155
(dp2156
g5
I20
sg6
g2154
sg7
F70
sg8
S'physical'
p2157
sg10
I0
sg11
g12
sg13
S'Effects vary with terrain.'
p2158
sg15
S'Normal'
p2159
sg17
F100
sbsS'Water Sport'
p2160
(ipokeStructs
Move
p2161
(dp2162
g5
I15
sg6
g2160
sg7
Nsg8
S'non-damaging'
p2163
sg10
I0
sg11
g12
sg13
S'Fire-type attacks do 50% damage.'
p2164
sg15
S'Water'
p2165
sg17
NsbsS'Bite'
p2166
(ipokeStructs
Move
p2167
(dp2168
g5
I25
sg6
g2166
sg7
F60
sg8
S'physical'
p2169
sg10
I0
sg11
g12
sg13
S'10% chance to flinch.'
p2170
sg15
S'Dark'
p2171
sg17
F100
sbsS'Tri Attack'
p2172
(ipokeStructs
Move
p2173
(dp2174
g5
I10
sg6
g2172
sg7
F80
sg8
S'special'
p2175
sg10
I0
sg11
g12
sg13
S'20% chance to burn, freeze, or paralyze.'
p2176
sg15
S'Normal'
p2177
sg17
F100
sbsS'Hidden Power Bug'
p2178
(ipokeStructs
Move
p2179
(dp2180
g5
I15
sg6
g2178
sg7
F60
sg8
S'special'
p2181
sg10
I0
sg11
g12
sg13
S"Type is based on the user's IVs."
p2182
sg15
S'Bug'
p2183
sg17
F100
sbsS'Hidden Power Ice'
p2184
(ipokeStructs
Move
p2185
(dp2186
g5
I15
sg6
g2184
sg7
F60
sg8
S'special'
p2187
sg10
I0
sg11
g12
sg13
S"Type is based on the user's IVs."
p2188
sg15
S'Ice'
p2189
sg17
F100
sbsS'Acrobatics'
p2190
(ipokeStructs
Move
p2191
(dp2192
g5
I15
sg6
g2190
sg7
F55
sg8
S'physical'
p2193
sg10
I0
sg11
g12
sg13
S'Doubles in power if user has no held item.'
p2194
sg15
S'Flying'
p2195
sg17
F100
sbsS'Earth Power'
p2196
(ipokeStructs
Move
p2197
(dp2198
g5
I10
sg6
g2196
sg7
F90
sg8
S'special'
p2199
sg10
I0
sg11
g12
sg13
S'10% chance to lower Special Defense by 1 stage.'
p2200
sg15
S'Ground'
p2201
sg17
F100
sbsS'Hydro Pump'
p2202
(ipokeStructs
Move
p2203
(dp2204
g5
I5
sg6
g2202
sg7
F110
sg8
S'special'
p2205
sg10
I0
sg11
g12
sg13
S'No additional effect.'
p2206
sg15
S'Water'
p2207
sg17
F80
sbsS'Night Shade'
p2208
(ipokeStructs
Move
p2209
(dp2210
g5
I15
sg6
g2208
sg7
Nsg8
S'special'
p2211
sg10
I0
sg11
g12
sg13
S"Does damage equal to the user's level."
p2212
sg15
S'Ghost'
p2213
sg17
F100
sbsS'Fury Cutter'
p2214
(ipokeStructs
Move
p2215
(dp2216
g5
I20
sg6
g2214
sg7
F40
sg8
S'physical'
p2217
sg10
I0
sg11
g12
sg13
S'Power doubles with each consecutive hit.'
p2218
sg15
S'Bug'
p2219
sg17
F95
sbsS'Peck'
p2220
(ipokeStructs
Move
p2221
(dp2222
g5
I35
sg6
g2220
sg7
F35
sg8
S'physical'
p2223
sg10
I0
sg11
g12
sg13
S'No additional effect.'
p2224
sg15
S'Flying'
p2225
sg17
F100
sbsS'Poison Gas'
p2226
(ipokeStructs
Move
p2227
(dp2228
g5
I40
sg6
g2226
sg7
Nsg8
S'non-damaging'
p2229
sg10
I0
sg11
g12
sg13
S'Poisons the target.'
p2230
sg15
S'Poison'
p2231
sg17
F90
sbsS'Power Swap'
p2232
(ipokeStructs
Move
p2233
(dp2234
g5
I10
sg6
g2232
sg7
Nsg8
S'non-damaging'
p2235
sg10
I0
sg11
g12
sg13
S'Swaps Attack and Special Attack boosts and drops with the foe.'
p2236
sg15
S'Psychic'
p2237
sg17
NsbsS'Ice Burn'
p2238
(ipokeStructs
Move
p2239
(dp2240
g5
I5
sg6
g2238
sg7
F140
sg8
S'special'
p2241
sg10
I0
sg11
g12
sg13
S'Hits the turn after being used. 30% chance to burn the target.'
p2242
sg15
S'Ice'
p2243
sg17
F90
sbsS'Storm Throw'
p2244
(ipokeStructs
Move
p2245
(dp2246
g5
I10
sg6
g2244
sg7
F60
sg8
S'physical'
p2247
sg10
I0
sg11
g12
sg13
S'Always results in a critical hit.'
p2248
sg15
S'Fighting'
p2249
sg17
F100
sbsS'Cotton Spore'
p2250
(ipokeStructs
Move
p2251
(dp2252
g5
I40
sg6
g2250
sg7
Nsg8
S'non-damaging'
p2253
sg10
I0
sg11
g12
sg13
S"Lowers foe's Speed by 2 stages."
p2254
sg15
S'Grass'
p2255
sg17
F100
sbsS'Grass Whistle'
p2256
(ipokeStructs
Move
p2257
(dp2258
g5
I15
sg6
g2256
sg7
Nsg8
S'non-damaging'
p2259
sg10
I0
sg11
g12
sg13
S'Puts the foe to sleep.'
p2260
sg15
S'Grass'
p2261
sg17
F55
sbsS'Counter'
p2262
(ipokeStructs
Move
p2263
(dp2264
g5
I20
sg6
g2262
sg7
Nsg8
S'physical'
p2265
sg10
I0
sg11
g12
sg13
S'If hit by a physical attack, returns double the damage.'
p2266
sg15
S'Fighting'
p2267
sg17
F100
sbsS'Searing Shot'
p2268
(ipokeStructs
Move
p2269
(dp2270
g5
I5
sg6
g2268
sg7
F100
sg8
S'special'
p2271
sg10
I0
sg11
g12
sg13
S'30% chance to burn the target.'
p2272
sg15
S'Fire'
p2273
sg17
F100
sbsS'Harden'
p2274
(ipokeStructs
Move
p2275
(dp2276
g5
I30
sg6
g2274
sg7
Nsg8
S'non-damaging'
p2277
sg10
I0
sg11
g12
sg13
S"Boosts user's Defense by one stage."
p2278
sg15
S'Normal'
p2279
sg17
NsbsS'Uproar'
p2280
(ipokeStructs
Move
p2281
(dp2282
g5
I10
sg6
g2280
sg7
F90
sg8
S'special'
p2283
sg10
I0
sg11
g12
sg13
S'Repeats for 2-5 turns. No Pokemon can sleep during these turns.'
p2284
sg15
S'Normal'
p2285
sg17
F100
sbsS'Ancient Power'
p2286
(ipokeStructs
Move
p2287
(dp2288
g5
I5
sg6
g2286
sg7
F60
sg8
S'special'
p2289
sg10
I0
sg11
g12
sg13
S'10% chance to boost all stats by 1 stage.'
p2290
sg15
S'Rock'
p2291
sg17
F100
sbsS'Iron Defense'
p2292
(ipokeStructs
Move
p2293
(dp2294
g5
I15
sg6
g2292
sg7
Nsg8
S'non-damaging'
p2295
sg10
I0
sg11
g12
sg13
S'Boosts Defense by 2 stages.'
p2296
sg15
S'Steel'
p2297
sg17
NsbsS'Spiky Shield'
p2298
(ipokeStructs
Move
p2299
(dp2300
g5
I10
sg6
g2298
sg7
Nsg8
S'non-damaging'
p2301
sg10
I0
sg11
g12
sg13
S'In addition to protecting the user from attacks, this move also damages any attacker who makes direct contact by 1/8 of their maximum HP.'
p2302
sg15
S'Grass'
p2303
sg17
NsbsS'Venoshock'
p2304
(ipokeStructs
Move
p2305
(dp2306
g5
I10
sg6
g2304
sg7
F65
sg8
S'special'
p2307
sg10
I0
sg11
g12
sg13
S'Hits poisoned targets with double Base Power.'
p2308
sg15
S'Poison'
p2309
sg17
F100
sbsS'Ice Ball'
p2310
(ipokeStructs
Move
p2311
(dp2312
g5
I20
sg6
g2310
sg7
F30
sg8
S'physical'
p2313
sg10
I0
sg11
g12
sg13
S'Doubles in power with each hit. Repeats for 5 turns.'
p2314
sg15
S'Ice'
p2315
sg17
F90
sbsS'Toxic Spikes'
p2316
(ipokeStructs
Move
p2317
(dp2318
g5
I20
sg6
g2316
sg7
Nsg8
S'non-damaging'
p2319
sg10
I0
sg11
g12
sg13
S'Poisons opponents as they switch switch in.'
p2320
sg15
S'Poison'
p2321
sg17
NsbsS'Brine'
p2322
(ipokeStructs
Move
p2323
(dp2324
g5
I10
sg6
g2322
sg7
F65
sg8
S'special'
p2325
sg10
I0
sg11
g12
sg13
S"Base Power doubles if foe's HP is 50% or less."
p2326
sg15
S'Water'
p2327
sg17
F100
sbsS'Magma Storm'
p2328
(ipokeStructs
Move
p2329
(dp2330
g5
I5
sg6
g2328
sg7
F100
sg8
S'special'
p2331
sg10
I0
sg11
g12
sg13
S'Traps and damages over multiple turns.'
p2332
sg15
S'Fire'
p2333
sg17
F75
sbsS'Dragon Pulse'
p2334
(ipokeStructs
Move
p2335
(dp2336
g5
I10
sg6
g2334
sg7
F85
sg8
S'special'
p2337
sg10
I0
sg11
g12
sg13
S'No additional effect.'
p2338
sg15
S'Dragon'
p2339
sg17
F100
sbsS'Freeze Shock'
p2340
(ipokeStructs
Move
p2341
(dp2342
g5
I5
sg6
g2340
sg7
F140
sg8
S'physical'
p2343
sg10
I0
sg11
g12
sg13
S'Hits the turn after being used. 30% chance to paralyze opponent.'
p2344
sg15
S'Ice'
p2345
sg17
F90
sbsS'Spike Cannon'
p2346
(ipokeStructs
Move
p2347
(dp2348
g5
I15
sg6
g2346
sg7
F20
sg8
S'physical'
p2349
sg10
I0
sg11
g12
sg13
S'Hits 2-5 times in one turn.'
p2350
sg15
S'Normal'
p2351
sg17
F100
sbsS'Quick Guard'
p2352
(ipokeStructs
Move
p2353
(dp2354
g5
I15
sg6
g2352
sg7
Nsg8
S'non-damaging'
p2355
sg10
I0
sg11
g12
sg13
S'Protects user and allies from priority attacks.'
p2356
sg15
S'Fighting'
p2357
sg17
NsbsS'Thunder Punch'
p2358
(ipokeStructs
Move
p2359
(dp2360
g5
I15
sg6
g2358
sg7
F75
sg8
S'physical'
p2361
sg10
I0
sg11
g12
sg13
S'10% chance to paralyze.'
p2362
sg15
S'Electric'
p2363
sg17
F100
sbsS'Hex'
p2364
(ipokeStructs
Move
p2365
(dp2366
g5
I10
sg6
g2364
sg7
F65
sg8
S'special'
p2367
sg10
I0
sg11
g12
sg13
S'Base Power doubles if target has a status ailment.'
p2368
sg15
S'Ghost'
p2369
sg17
F100
sbsS'Hyperspace Hole'
p2370
(ipokeStructs
Move
p2371
(dp2372
g5
I5
sg6
g2370
sg7
F80
sg8
S'special'
p2373
sg10
I0
sg11
g12
sg13
S'Ignores the effects of Protect and Detect.'
p2374
sg15
S'Psychic'
p2375
sg17
NsbsS'Acupressure'
p2376
(ipokeStructs
Move
p2377
(dp2378
g5
I30
sg6
g2376
sg7
Nsg8
S'non-damaging'
p2379
sg10
I0
sg11
g12
sg13
S'Boosts a random stat by 2 stages.'
p2380
sg15
S'Normal'
p2381
sg17
NsbsS'Spider Web'
p2382
(ipokeStructs
Move
p2383
(dp2384
g5
I10
sg6
g2382
sg7
Nsg8
S'non-damaging'
p2385
sg10
I0
sg11
g12
sg13
S'The target cannot switch out.'
p2386
sg15
S'Bug'
p2387
sg17
NsbsS'Recycle'
p2388
(ipokeStructs
Move
p2389
(dp2390
g5
I10
sg6
g2388
sg7
Nsg8
S'non-damaging'
p2391
sg10
I0
sg11
g12
sg13
S'Restores a used up item.'
p2392
sg15
S'Normal'
p2393
sg17
NsbsS'Super Fang'
p2394
(ipokeStructs
Move
p2395
(dp2396
g5
I10
sg6
g2394
sg7
Nsg8
S'physical'
p2397
sg10
I0
sg11
g12
sg13
S"Does damage equal to half the foe's current HP."
p2398
sg15
S'Normal'
p2399
sg17
F90
sbsS'Surf'
p2400
(ipokeStructs
Move
p2401
(dp2402
g5
I15
sg6
g2400
sg7
F90
sg8
S'special'
p2403
sg10
I0
sg11
g12
sg13
S'No additional effect.'
p2404
sg15
S'Water'
p2405
sg17
F100
sbsS'Crunch'
p2406
(ipokeStructs
Move
p2407
(dp2408
g5
I15
sg6
g2406
sg7
F80
sg8
S'physical'
p2409
sg10
I0
sg11
g12
sg13
S'20% chance to lower Special Defense by 1 stage.'
p2410
sg15
S'Dark'
p2411
sg17
F100
sbsS'Gyro Ball'
p2412
(ipokeStructs
Move
p2413
(dp2414
g5
I5
sg6
g2412
sg7
Nsg8
S'physical'
p2415
sg10
I0
sg11
g12
sg13
S"Does damage based on the foe's Speed and the user's Speed."
p2416
sg15
S'Steel'
p2417
sg17
F100
sbsS'Synchronoise'
p2418
(ipokeStructs
Move
p2419
(dp2420
g5
I15
sg6
g2418
sg7
F120
sg8
S'special'
p2421
sg10
I0
sg11
g12
sg13
S'Only damages targets of the same type as the user.'
p2422
sg15
S'Psychic'
p2423
sg17
F100
sbsS'Shell Smash'
p2424
(ipokeStructs
Move
p2425
(dp2426
g5
I15
sg6
g2424
sg7
Nsg8
S'non-damaging'
p2427
sg10
I0
sg11
g12
sg13
S"Boosts user's Attack, Special Attack, and Speed by 2 stages and lowers user's Defense and Special Defense by 1 stage."
p2428
sg15
S'Normal'
p2429
sg17
NsbsS'Rock Wrecker'
p2430
(ipokeStructs
Move
p2431
(dp2432
g5
I5
sg6
g2430
sg7
F150
sg8
S'physical'
p2433
sg10
I0
sg11
g12
sg13
S'User cannot move next turn.'
p2434
sg15
S'Rock'
p2435
sg17
F90
sbsS'Sand Tomb'
p2436
(ipokeStructs
Move
p2437
(dp2438
g5
I15
sg6
g2436
sg7
F35
sg8
S'physical'
p2439
sg10
I0
sg11
g12
sg13
S'Traps and damages target for 4-5 turns.'
p2440
sg15
S'Ground'
p2441
sg17
F85
sbsS'Chatter'
p2442
(ipokeStructs
Move
p2443
(dp2444
g5
I20
sg6
g2442
sg7
F65
sg8
S'special'
p2445
sg10
I0
sg11
g12
sg13
S'Confuses the target.'
p2446
sg15
S'Flying'
p2447
sg17
F100
sbsS'Grudge'
p2448
(ipokeStructs
Move
p2449
(dp2450
g5
I5
sg6
g2448
sg7
Nsg8
S'non-damaging'
p2451
sg10
I0
sg11
g12
sg13
S"If the user faints, the foe's attack loses all of its PP."
p2452
sg15
S'Ghost'
p2453
sg17
NsbsS'Metronome'
p2454
(ipokeStructs
Move
p2455
(dp2456
g5
I10
sg6
g2454
sg7
Nsg8
S'non-damaging'
p2457
sg10
I0
sg11
g12
sg13
S'Picks a random move.'
p2458
sg15
S'Normal'
p2459
sg17
NsbsS'Double Kick'
p2460
(ipokeStructs
Move
p2461
(dp2462
g5
I30
sg6
g2460
sg7
F30
sg8
S'physical'
p2463
sg10
I0
sg11
g12
sg13
S'Hits twice in 1 turn.'
p2464
sg15
S'Fighting'
p2465
sg17
F100
sbsS'Shadow Ball'
p2466
(ipokeStructs
Move
p2467
(dp2468
g5
I15
sg6
g2466
sg7
F80
sg8
S'special'
p2469
sg10
I0
sg11
g12
sg13
S'20% chance to lower Special Defense by 1 stage.'
p2470
sg15
S'Ghost'
p2471
sg17
F100
sbsS'Sky Uppercut'
p2472
(ipokeStructs
Move
p2473
(dp2474
g5
I15
sg6
g2472
sg7
F85
sg8
S'physical'
p2475
sg10
I0
sg11
g12
sg13
S'Hits a Bouncing or Flying target.'
p2476
sg15
S'Fighting'
p2477
sg17
F90
sbsS'Grassy Terrain'
p2478
(ipokeStructs
Move
p2479
(dp2480
g5
I10
sg6
g2478
sg7
Nsg8
S'non-damaging'
p2481
sg10
I0
sg11
g12
sg13
S'For five turns, Pokemon on the ground restore 1/16 of their HP each turn. Their Grass-type moves are powered up by 50%.'
p2482
sg15
S'Grass'
p2483
sg17
NsbsS'Water Pulse'
p2484
(ipokeStructs
Move
p2485
(dp2486
g5
I20
sg6
g2484
sg7
F60
sg8
S'special'
p2487
sg10
I0
sg11
g12
sg13
S'20% chance to confuse.'
p2488
sg15
S'Water'
p2489
sg17
F100
sbsS'Round'
p2490
(ipokeStructs
Move
p2491
(dp2492
g5
I15
sg6
g2490
sg7
F60
sg8
S'special'
p2493
sg10
I0
sg11
g12
sg13
S'Power doubles if a teammate uses Round in the same turn.'
p2494
sg15
S'Normal'
p2495
sg17
F100
sbsS'Stone Edge'
p2496
(ipokeStructs
Move
p2497
(dp2498
g5
I5
sg6
g2496
sg7
F100
sg8
S'physical'
p2499
sg10
I0
sg11
g12
sg13
S'Has a high critical hit rate.'
p2500
sg15
S'Rock'
p2501
sg17
F80
sbsS'Disarming Voice'
p2502
(ipokeStructs
Move
p2503
(dp2504
g5
I15
sg6
g2502
sg7
F40
sg8
S'special'
p2505
sg10
I0
sg11
g12
sg13
S'This attack never misses.'
p2506
sg15
S'Fairy'
p2507
sg17
NsbsS'Heart Stamp'
p2508
(ipokeStructs
Move
p2509
(dp2510
g5
I25
sg6
g2508
sg7
F60
sg8
S'physical'
p2511
sg10
I0
sg11
g12
sg13
S'30% chance to flinch the target.'
p2512
sg15
S'Psychic'
p2513
sg17
F100
sbsS'Dynamic Punch'
p2514
(ipokeStructs
Move
p2515
(dp2516
g5
I5
sg6
g2514
sg7
F100
sg8
S'physical'
p2517
sg10
I0
sg11
g12
sg13
S'Confuses the foe.'
p2518
sg15
S'Fighting'
p2519
sg17
F50
sbsS'Splash'
p2520
(ipokeStructs
Move
p2521
(dp2522
g5
I40
sg6
g2520
sg7
Nsg8
S'non-damaging'
p2523
sg10
I0
sg11
g12
sg13
S'No effect whatsoever.'
p2524
sg15
S'Normal'
p2525
sg17
NsbsS'Icy Wind'
p2526
(ipokeStructs
Move
p2527
(dp2528
g5
I15
sg6
g2526
sg7
F55
sg8
S'special'
p2529
sg10
I0
sg11
g12
sg13
S"Lowers foe's Speed by 1 stage."
p2530
sg15
S'Ice'
p2531
sg17
F95
sbsS'Grass Knot'
p2532
(ipokeStructs
Move
p2533
(dp2534
g5
I20
sg6
g2532
sg7
Nsg8
S'special'
p2535
sg10
I0
sg11
g12
sg13
S"Deals damage based on the foe's weight."
p2536
sg15
S'Grass'
p2537
sg17
F100
sbsS'Mist'
p2538
(ipokeStructs
Move
p2539
(dp2540
g5
I30
sg6
g2538
sg7
Nsg8
S'non-damaging'
p2541
sg10
I0
sg11
g12
sg13
S'Prevents moves that lower stats from working for 5 turns.'
p2542
sg15
S'Ice'
p2543
sg17
NsbsS'Lucky Chant'
p2544
(ipokeStructs
Move
p2545
(dp2546
g5
I30
sg6
g2544
sg7
Nsg8
S'non-damaging'
p2547
sg10
I0
sg11
g12
sg13
S'Blocks critical hits for 5 turns.'
p2548
sg15
S'Normal'
p2549
sg17
NsbsS'String Shot'
p2550
(ipokeStructs
Move
p2551
(dp2552
g5
I40
sg6
g2550
sg7
Nsg8
S'non-damaging'
p2553
sg10
I0
sg11
g12
sg13
S"Lowers foe's Speed 1 stage."
p2554
sg15
S'Bug'
p2555
sg17
F95
sbsS'Flail'
p2556
(ipokeStructs
Move
p2557
(dp2558
g5
I15
sg6
g2556
sg7
Nsg8
S'physical'
p2559
sg10
I0
sg11
g12
sg13
S'Does more damage as HP decreases.'
p2560
sg15
S'Normal'
p2561
sg17
F100
sbsS'Magic Coat'
p2562
(ipokeStructs
Move
p2563
(dp2564
g5
I15
sg6
g2562
sg7
Nsg8
S'non-damaging'
p2565
sg10
I0
sg11
g12
sg13
S'Bounces back certain non-damaging moves.'
p2566
sg15
S'Psychic'
p2567
sg17
NsbsS'Hold Back'
p2568
(ipokeStructs
Move
p2569
(dp2570
g5
I40
sg6
g2568
sg7
F40
sg8
S'physical'
p2571
sg10
I0
sg11
g12
sg13
S'Deals damage to one adjacent target but leaves it with at least 1HP. Makes contact.'
p2572
sg15
S'Normal'
p2573
sg17
F100
sbsS'Bolt Strike'
p2574
(ipokeStructs
Move
p2575
(dp2576
g5
I5
sg6
g2574
sg7
F130
sg8
S'physical'
p2577
sg10
I0
sg11
g12
sg13
S'20% chance to paralyze the target.'
p2578
sg15
S'Electric'
p2579
sg17
F85
sbsS'Hydro Cannon'
p2580
(ipokeStructs
Move
p2581
(dp2582
g5
I5
sg6
g2580
sg7
F150
sg8
S'special'
p2583
sg10
I0
sg11
g12
sg13
S'User cannot move next turn.'
p2584
sg15
S'Water'
p2585
sg17
F90
sbsS'Sonic Boom'
p2586
(ipokeStructs
Move
p2587
(dp2588
g5
I20
sg6
g2586
sg7
Nsg8
S'special'
p2589
sg10
I0
sg11
g12
sg13
S'Does 20 damage. Ghosts are immune.'
p2590
sg15
S'Normal'
p2591
sg17
F90
sbsS'Worry Seed'
p2592
(ipokeStructs
Move
p2593
(dp2594
g5
I10
sg6
g2592
sg7
Nsg8
S'non-damaging'
p2595
sg10
I0
sg11
g12
sg13
S"Changes the foe's ability to Insomnia."
p2596
sg15
S'Grass'
p2597
sg17
F100
sbsS'Charge'
p2598
(ipokeStructs
Move
p2599
(dp2600
g5
I20
sg6
g2598
sg7
Nsg8
S'non-damaging'
p2601
sg10
I0
sg11
g12
sg13
S'Doubles power of an Electric-type move used next turn.'
p2602
sg15
S'Electric'
p2603
sg17
NsbsS'Mirror Move'
p2604
(ipokeStructs
Move
p2605
(dp2606
g5
I20
sg6
g2604
sg7
Nsg8
S'non-damaging'
p2607
sg10
I0
sg11
g12
sg13
S'Uses the last move that hit the user.'
p2608
sg15
S'Flying'
p2609
sg17
NsbsS'Slash'
p2610
(ipokeStructs
Move
p2611
(dp2612
g5
I20
sg6
g2610
sg7
F70
sg8
S'physical'
p2613
sg10
I0
sg11
g12
sg13
S'Has a high critical hit rate.'
p2614
sg15
S'Normal'
p2615
sg17
F100
sbsS'Toxic'
p2616
(ipokeStructs
Move
p2617
(dp2618
g5
I10
sg6
g2616
sg7
Nsg8
S'non-damaging'
p2619
sg10
I0
sg11
g12
sg13
S'Inflicts intensifying poison on the target.'
p2620
sg15
S'Poison'
p2621
sg17
F90
sbsS'Snore'
p2622
(ipokeStructs
Move
p2623
(dp2624
g5
I15
sg6
g2622
sg7
F50
sg8
S'special'
p2625
sg10
I0
sg11
g12
sg13
S'Can only be used while sleeping. 30% chance to flinch.'
p2626
sg15
S'Normal'
p2627
sg17
F100
sbsS'Charge Beam'
p2628
(ipokeStructs
Move
p2629
(dp2630
g5
I10
sg6
g2628
sg7
F50
sg8
S'special'
p2631
sg10
I0
sg11
g12
sg13
S'70% chance to boost Special Attack by 1 stage.'
p2632
sg15
S'Electric'
p2633
sg17
F90
sbsS'Glaciate'
p2634
(ipokeStructs
Move
p2635
(dp2636
g5
I10
sg6
g2634
sg7
F65
sg8
S'special'
p2637
sg10
I0
sg11
g12
sg13
S"Lowers target's Speed by 1 stage."
p2638
sg15
S'Ice'
p2639
sg17
F95
sbsS'Return'
p2640
(ipokeStructs
Move
p2641
(dp2642
g5
I20
sg6
g2640
sg7
Nsg8
S'physical'
p2643
sg10
I0
sg11
g12
sg13
S'No additional effect.'
p2644
sg15
S'Normal'
p2645
sg17
F100
sbsS'Beat Up'
p2646
(ipokeStructs
Move
p2647
(dp2648
g5
I10
sg6
g2646
sg7
Nsg8
S'physical'
p2649
sg10
I0
sg11
g12
sg13
S'All healthy Pokemon aid in damaging the target.'
p2650
sg15
S'Dark'
p2651
sg17
F100
sbsS'Magnet Rise'
p2652
(ipokeStructs
Move
p2653
(dp2654
g5
I10
sg6
g2652
sg7
Nsg8
S'non-damaging'
p2655
sg10
I0
sg11
g12
sg13
S'User becomes immune to Ground moves for 5 turns.'
p2656
sg15
S'Electric'
p2657
sg17
NsbsS"Forest's Curse"
p2658
(ipokeStructs
Move
p2659
(dp2660
g5
I20
sg6
g2658
sg7
Nsg8
S'non-damaging'
p2661
sg10
I0
sg11
g12
sg13
S"Adds Grass to the target's type(s). If the target already has three types, the third is replaced."
p2662
sg15
S'Grass'
p2663
sg17
F100
sbsS'Psycho Boost'
p2664
(ipokeStructs
Move
p2665
(dp2666
g5
I5
sg6
g2664
sg7
F140
sg8
S'special'
p2667
sg10
I0
sg11
g12
sg13
S"Lowers user's Special Attack by 2 stages."
p2668
sg15
S'Psychic'
p2669
sg17
F90
sbsS'Charm'
p2670
(ipokeStructs
Move
p2671
(dp2672
g5
I20
sg6
g2670
sg7
Nsg8
S'non-damaging'
p2673
sg10
I0
sg11
g12
sg13
S"Lowers foe's Attack by 2 stages."
p2674
sg15
S'Fairy'
p2675
sg17
F100
sbsS'Aqua Jet'
p2676
(ipokeStructs
Move
p2677
(dp2678
g5
I20
sg6
g2676
sg7
F40
sg8
S'physical'
p2679
sg10
I0
sg11
g12
sg13
S'The user always attacks first.'
p2680
sg15
S'Water'
p2681
sg17
F100
sbsS'Rock Climb'
p2682
(ipokeStructs
Move
p2683
(dp2684
g5
I20
sg6
g2682
sg7
F90
sg8
S'physical'
p2685
sg10
I0
sg11
g12
sg13
S'20% chance to confuse.'
p2686
sg15
S'Normal'
p2687
sg17
F85
sbsS'Hidden Power Poison'
p2688
(ipokeStructs
Move
p2689
(dp2690
g5
I15
sg6
g2688
sg7
F60
sg8
S'special'
p2691
sg10
I0
sg11
g12
sg13
S"Type is based on the user's IVs."
p2692
sg15
S'Poison'
p2693
sg17
F100
sbsS'Soft-Boiled'
p2694
(ipokeStructs
Move
p2695
(dp2696
g5
I10
sg6
g2694
sg7
Nsg8
S'non-damaging'
p2697
sg10
I0
sg11
g12
sg13
S'Heals 50% max HP.'
p2698
sg15
S'Normal'
p2699
sg17
NsbsS'Mud Bomb'
p2700
(ipokeStructs
Move
p2701
(dp2702
g5
I10
sg6
g2700
sg7
F65
sg8
S'special'
p2703
sg10
I0
sg11
g12
sg13
S'30% chance to lower accuracy by 1 stage.'
p2704
sg15
S'Ground'
p2705
sg17
F85
sbsS'Seismic Toss'
p2706
(ipokeStructs
Move
p2707
(dp2708
g5
I20
sg6
g2706
sg7
Nsg8
S'physical'
p2709
sg10
I0
sg11
g12
sg13
S"Does damage equal to the user's level."
p2710
sg15
S'Fighting'
p2711
sg17
F100
sbsS'False Swipe'
p2712
(ipokeStructs
Move
p2713
(dp2714
g5
I40
sg6
g2712
sg7
F40
sg8
S'physical'
p2715
sg10
I0
sg11
g12
sg13
S'Always leaves the foe with at least 1 HP.'
p2716
sg15
S'Normal'
p2717
sg17
F100
sbsS'Baton Pass'
p2718
(ipokeStructs
Move
p2719
(dp2720
g5
I40
sg6
g2718
sg7
Nsg8
S'non-damaging'
p2721
sg10
I0
sg11
g12
sg13
S'User switches, but passes on all stat changes and some special conditions.'
p2722
sg15
S'Normal'
p2723
sg17
NsbsS'Lunar Dance'
p2724
(ipokeStructs
Move
p2725
(dp2726
g5
I10
sg6
g2724
sg7
Nsg8
S'non-damaging'
p2727
sg10
I0
sg11
g12
sg13
S'KOs the user, then heals the next Pokemon in.'
p2728
sg15
S'Psychic'
p2729
sg17
NsbsS'Low Kick'
p2730
(ipokeStructs
Move
p2731
(dp2732
g5
I20
sg6
g2730
sg7
Nsg8
S'physical'
p2733
sg10
I0
sg11
g12
sg13
S"Deals damage based on the foe's weight."
p2734
sg15
S'Fighting'
p2735
sg17
F100
sbsS'Thunderbolt'
p2736
(ipokeStructs
Move
p2737
(dp2738
g5
I15
sg6
g2736
sg7
F90
sg8
S'special'
p2739
sg10
I0
sg11
g12
sg13
S'10% chance to paralyze.'
p2740
sg15
S'Electric'
p2741
sg17
F100
sbsS'Doom Desire'
p2742
(ipokeStructs
Move
p2743
(dp2744
g5
I5
sg6
g2742
sg7
F140
sg8
S'special'
p2745
sg10
I0
sg11
g12
sg13
S'Deals damage at the end of the turn after three turns.'
p2746
sg15
S'Steel'
p2747
sg17
F100
sbsS'Me First'
p2748
(ipokeStructs
Move
p2749
(dp2750
g5
I20
sg6
g2748
sg7
Nsg8
S'non-damaging'
p2751
sg10
I0
sg11
g12
sg13
S"Uses the foe's attack at 1.5x power. Must be faster to work."
p2752
sg15
S'Normal'
p2753
sg17
NsbsS'Sandstorm'
p2754
(ipokeStructs
Move
p2755
(dp2756
g5
I10
sg6
g2754
sg7
Nsg8
S'non-damaging'
p2757
sg10
I0
sg11
g12
sg13
S'Summons a sandstorm for 5 turns.'
p2758
sg15
S'Rock'
p2759
sg17
NsbsS'Lick'
p2760
(ipokeStructs
Move
p2761
(dp2762
g5
I30
sg6
g2760
sg7
F30
sg8
S'physical'
p2763
sg10
I0
sg11
g12
sg13
S'30% chance to paralyze the target.'
p2764
sg15
S'Ghost'
p2765
sg17
F100
sbsS'Mud-Slap'
p2766
(ipokeStructs
Move
p2767
(dp2768
g5
I10
sg6
g2766
sg7
F20
sg8
S'special'
p2769
sg10
I0
sg11
g12
sg13
S'Lowers accuracy by 1 stage.'
p2770
sg15
S'Ground'
p2771
sg17
F100
sbsS'Psycho Cut'
p2772
(ipokeStructs
Move
p2773
(dp2774
g5
I20
sg6
g2772
sg7
F70
sg8
S'physical'
p2775
sg10
I0
sg11
g12
sg13
S'Has a high critical hit rate.'
p2776
sg15
S'Psychic'
p2777
sg17
F100
sbsS'Confide'
p2778
(ipokeStructs
Move
p2779
(dp2780
g5
I20
sg6
g2778
sg7
Nsg8
S'non-damaging'
p2781
sg10
I0
sg11
g12
sg13
S"Lowers the target's Special Attack by 1 stage."
p2782
sg15
S'Normal'
p2783
sg17
NsbsS'Horn Drill'
p2784
(ipokeStructs
Move
p2785
(dp2786
g5
I5
sg6
g2784
sg7
Nsg8
S'physical'
p2787
sg10
I0
sg11
g12
sg13
S'Will OHKO the target.'
p2788
sg15
S'Normal'
p2789
sg17
F30
sbsS'Flash Cannon'
p2790
(ipokeStructs
Move
p2791
(dp2792
g5
I10
sg6
g2790
sg7
F80
sg8
S'special'
p2793
sg10
I0
sg11
g12
sg13
S'10% chance to lower Special Defense by 1 stage.'
p2794
sg15
S'Steel'
p2795
sg17
F100
sbsS'Avalanche'
p2796
(ipokeStructs
Move
p2797
(dp2798
g5
I10
sg6
g2796
sg7
F60
sg8
S'physical'
p2799
sg10
I0
sg11
g12
sg13
S'Doubles in power if damaged by the target.'
p2800
sg15
S'Ice'
p2801
sg17
F100
sbsS'Slam'
p2802
(ipokeStructs
Move
p2803
(dp2804
g5
I20
sg6
g2802
sg7
F80
sg8
S'physical'
p2805
sg10
I0
sg11
g12
sg13
S'No additional effect.'
p2806
sg15
S'Normal'
p2807
sg17
F75
sbsS'Water Gun'
p2808
(ipokeStructs
Move
p2809
(dp2810
g5
I25
sg6
g2808
sg7
F40
sg8
S'special'
p2811
sg10
I0
sg11
g12
sg13
S'No additional effect.'
p2812
sg15
S'Water'
p2813
sg17
F100
sbsS'Head Charge'
p2814
(ipokeStructs
Move
p2815
(dp2816
g5
I15
sg6
g2814
sg7
F120
sg8
S'physical'
p2817
sg10
I0
sg11
g12
sg13
S'Has 25% recoil.'
p2818
sg15
S'Normal'
p2819
sg17
F100
sbsS'Ally Switch'
p2820
(ipokeStructs
Move
p2821
(dp2822
g5
I15
sg6
g2820
sg7
Nsg8
S'non-damaging'
p2823
sg10
I0
sg11
g12
sg13
S"Switches position with another Pokemon on user's side of the field."
p2824
sg15
S'Psychic'
p2825
sg17
NsbsS'Triple Kick'
p2826
(ipokeStructs
Move
p2827
(dp2828
g5
I10
sg6
g2826
sg7
F10
sg8
S'physical'
p2829
sg10
I0
sg11
g12
sg13
S'Attacks up to 3 times in 1 turn.'
p2830
sg15
S'Fighting'
p2831
sg17
F90
sbsS'Conversion'
p2832
(ipokeStructs
Move
p2833
(dp2834
g5
I30
sg6
g2832
sg7
Nsg8
S'non-damaging'
p2835
sg10
I0
sg11
g12
sg13
S'Changes user into the type of its first move.'
p2836
sg15
S'Normal'
p2837
sg17
NsbsS'Telekinesis'
p2838
(ipokeStructs
Move
p2839
(dp2840
g5
I15
sg6
g2838
sg7
Nsg8
S'non-damaging'
p2841
sg10
I0
sg11
g12
sg13
S'Lasts 3 turns and makes all moves hit the target.  Makes target immune to Ground-type moves.'
p2842
sg15
S'Psychic'
p2843
sg17
NsbsS'Withdraw'
p2844
(ipokeStructs
Move
p2845
(dp2846
g5
I40
sg6
g2844
sg7
Nsg8
S'non-damaging'
p2847
sg10
I0
sg11
g12
sg13
S'Boosts Defense by 1 stage.'
p2848
sg15
S'Water'
p2849
sg17
NsbsS'Ice Punch'
p2850
(ipokeStructs
Move
p2851
(dp2852
g5
I15
sg6
g2850
sg7
F75
sg8
S'physical'
p2853
sg10
I0
sg11
g12
sg13
S'10% chance to freeze the target.'
p2854
sg15
S'Ice'
p2855
sg17
F100
sbsS'Electroweb'
p2856
(ipokeStructs
Move
p2857
(dp2858
g5
I15
sg6
g2856
sg7
F55
sg8
S'special'
p2859
sg10
I0
sg11
g12
sg13
S"Lowers target's Speed by 1 stage."
p2860
sg15
S'Electric'
p2861
sg17
F95
sbsS'Diamond Storm'
p2862
(ipokeStructs
Move
p2863
(dp2864
g5
I5
sg6
g2862
sg7
F100
sg8
S'physical'
p2865
sg10
I0
sg11
g12
sg13
S"50% chance to boost user's Defense."
p2866
sg15
S'Rock'
p2867
sg17
F95
sbsS'Water Pledge'
p2868
(ipokeStructs
Move
p2869
(dp2870
g5
I10
sg6
g2868
sg7
F80
sg8
S'special'
p2871
sg10
I0
sg11
g12
sg13
S'Use with Fire Pledge and Grass Pledge for additional effect.'
p2872
sg15
S'Water'
p2873
sg17
F100
sbsS'Seed Flare'
p2874
(ipokeStructs
Move
p2875
(dp2876
g5
I5
sg6
g2874
sg7
F120
sg8
S'special'
p2877
sg10
I0
sg11
g12
sg13
S'40% chance to lower Special Defense by 2 stages.'
p2878
sg15
S'Grass'
p2879
sg17
F85
sbsS'Frustration'
p2880
(ipokeStructs
Move
p2881
(dp2882
g5
I20
sg6
g2880
sg7
Nsg8
S'physical'
p2883
sg10
I0
sg11
g12
sg13
S'No additional effect.'
p2884
sg15
S'Normal'
p2885
sg17
F100
sbsS'Wing Attack'
p2886
(ipokeStructs
Move
p2887
(dp2888
g5
I35
sg6
g2886
sg7
F60
sg8
S'physical'
p2889
sg10
I0
sg11
g12
sg13
S'No additional effect.'
p2890
sg15
S'Flying'
p2891
sg17
F100
sbsS'Sky Attack'
p2892
(ipokeStructs
Move
p2893
(dp2894
g5
I5
sg6
g2892
sg7
F140
sg8
S'physical'
p2895
sg10
I0
sg11
g12
sg13
S'Hits the turn after being used.'
p2896
sg15
S'Flying'
p2897
sg17
F90
sbsS'Flying Press'
p2898
(ipokeStructs
Move
p2899
(dp2900
g5
I10
sg6
g2898
sg7
F80
sg8
S'physical'
p2901
sg10
I0
sg11
g12
sg13
S'Both Fighting-type and Flying-type simultaneously.'
p2902
sg15
S'Fighting'
p2903
sg17
F95
sbsS'Agility'
p2904
(ipokeStructs
Move
p2905
(dp2906
g5
I30
sg6
g2904
sg7
Nsg8
S'non-damaging'
p2907
sg10
I0
sg11
g12
sg13
S'Boosts Speed by 2 stages.'
p2908
sg15
S'Psychic'
p2909
sg17
NsbsS'Fling'
p2910
(ipokeStructs
Move
p2911
(dp2912
g5
I10
sg6
g2910
sg7
Nsg8
S'physical'
p2913
sg10
I0
sg11
g12
sg13
S"Throws the user's hold item at the foe. Power and effect depend on the item."
p2914
sg15
S'Dark'
p2915
sg17
F100
sbsS'Rock Smash'
p2916
(ipokeStructs
Move
p2917
(dp2918
g5
I15
sg6
g2916
sg7
F40
sg8
S'physical'
p2919
sg10
I0
sg11
g12
sg13
S'50% chance to lower Defense by 1 stage.'
p2920
sg15
S'Fighting'
p2921
sg17
F100
sbsS'Noble Roar'
p2922
(ipokeStructs
Move
p2923
(dp2924
g5
I30
sg6
g2922
sg7
Nsg8
S'non-damaging'
p2925
sg10
I0
sg11
g12
sg13
S"Lowers the target's Attack and Special Attack by 1 stage. Pokemon protected by Magic Coat or the Ability Magic Bounce are unaffected and instead use this move themselves."
p2926
sg15
S'Normal'
p2927
sg17
F100
sbsS'Steamroller'
p2928
(ipokeStructs
Move
p2929
(dp2930
g5
I20
sg6
g2928
sg7
F65
sg8
S'physical'
p2931
sg10
I0
sg11
g12
sg13
S'Has a 30% chance to flinch the target.'
p2932
sg15
S'Bug'
p2933
sg17
F100
sbsS'Eruption'
p2934
(ipokeStructs
Move
p2935
(dp2936
g5
I5
sg6
g2934
sg7
F150
sg8
S'special'
p2937
sg10
I0
sg11
g12
sg13
S"Does less damage as the user's HP decreases."
p2938
sg15
S'Fire'
p2939
sg17
F100
sbsS'Bone Rush'
p2940
(ipokeStructs
Move
p2941
(dp2942
g5
I10
sg6
g2940
sg7
F25
sg8
S'physical'
p2943
sg10
I0
sg11
g12
sg13
S'Hits 2-5 times in one turn.'
p2944
sg15
S'Ground'
p2945
sg17
F80
sbsS'Ice Shard'
p2946
(ipokeStructs
Move
p2947
(dp2948
g5
I30
sg6
g2946
sg7
F40
sg8
S'physical'
p2949
sg10
I0
sg11
g12
sg13
S'The user always attacks first.'
p2950
sg15
S'Ice'
p2951
sg17
F100
sbsS'Electrify'
p2952
(ipokeStructs
Move
p2953
(dp2954
g5
I20
sg6
g2952
sg7
Nsg8
S'non-damaging'
p2955
sg10
I0
sg11
g12
sg13
S"If the target is electrified before it uses a move during that turn, the target's move becomes Electric type."
p2956
sg15
S'Electric'
p2957
sg17
NsbsS'Giga Drain'
p2958
(ipokeStructs
Move
p2959
(dp2960
g5
I10
sg6
g2958
sg7
F75
sg8
S'special'
p2961
sg10
I0
sg11
g12
sg13
S'Leeches 50% damage.'
p2962
sg15
S'Grass'
p2963
sg17
F100
sbsS'Tackle'
p2964
(ipokeStructs
Move
p2965
(dp2966
g5
I35
sg6
g2964
sg7
F50
sg8
S'physical'
p2967
sg10
I0
sg11
g12
sg13
S'No additional effect.'
p2968
sg15
S'Normal'
p2969
sg17
F100
sbsS'Coil'
p2970
(ipokeStructs
Move
p2971
(dp2972
g5
I20
sg6
g2970
sg7
Nsg8
S'non-damaging'
p2973
sg10
I0
sg11
g12
sg13
S"Boosts user's Attack, Defense, and accuracy by 1 stage."
p2974
sg15
S'Poison'
p2975
sg17
NsbsS'Hammer Arm'
p2976
(ipokeStructs
Move
p2977
(dp2978
g5
I10
sg6
g2976
sg7
F100
sg8
S'physical'
p2979
sg10
I0
sg11
g12
sg13
S"Lowers user's Speed by 1 stage."
p2980
sg15
S'Fighting'
p2981
sg17
F90
sbsS'Clamp'
p2982
(ipokeStructs
Move
p2983
(dp2984
g5
I10
sg6
g2982
sg7
F35
sg8
S'physical'
p2985
sg10
I0
sg11
g12
sg13
S'Prevents the opponent from attacking for 2-5 turns.'
p2986
sg15
S'Water'
p2987
sg17
F85
sbsS'Bullet Punch'
p2988
(ipokeStructs
Move
p2989
(dp2990
g5
I30
sg6
g2988
sg7
F40
sg8
S'physical'
p2991
sg10
I0
sg11
g12
sg13
S'The user always attacks first.'
p2992
sg15
S'Steel'
p2993
sg17
F100
sbsS'Cross Chop'
p2994
(ipokeStructs
Move
p2995
(dp2996
g5
I5
sg6
g2994
sg7
F100
sg8
S'physical'
p2997
sg10
I0
sg11
g12
sg13
S'High critical hit rate.'
p2998
sg15
S'Fighting'
p2999
sg17
F80
sbsS'Parabolic Charge'
p3000
(ipokeStructs
Move
p3001
(dp3002
g5
I20
sg6
g3000
sg7
F50
sg8
S'special'
p3003
sg10
I0
sg11
g12
sg13
S'Deals damage to all adjacent targets. The user recovers half of the HP lost by the target, rounded up.'
p3004
sg15
S'Electric'
p3005
sg17
F100
sbsS'Dig'
p3006
(ipokeStructs
Move
p3007
(dp3008
g5
I10
sg6
g3006
sg7
F80
sg8
S'physical'
p3009
sg10
I0
sg11
g12
sg13
S'User is made invulnerable for one turn, then hits the next turn.'
p3010
sg15
S'Ground'
p3011
sg17
F100
sbsS'Ember'
p3012
(ipokeStructs
Move
p3013
(dp3014
g5
I25
sg6
g3012
sg7
F40
sg8
S'special'
p3015
sg10
I0
sg11
g12
sg13
S'10% chance to burn.'
p3016
sg15
S'Fire'
p3017
sg17
F100
sbsS'Transform'
p3018
(ipokeStructs
Move
p3019
(dp3020
g5
I10
sg6
g3018
sg7
Nsg8
S'non-damaging'
p3021
sg10
I0
sg11
g12
sg13
S'Transforms into the foe.'
p3022
sg15
S'Normal'
p3023
sg17
NsbsS'Icicle Crash'
p3024
(ipokeStructs
Move
p3025
(dp3026
g5
I10
sg6
g3024
sg7
F85
sg8
S'physical'
p3027
sg10
I0
sg11
g12
sg13
S'30% chance to flinch the target.'
p3028
sg15
S'Ice'
p3029
sg17
F90
sbsS'Entrainment'
p3030
(ipokeStructs
Move
p3031
(dp3032
g5
I15
sg6
g3030
sg7
Nsg8
S'non-damaging'
p3033
sg10
I0
sg11
g12
sg13
S"Changes the target's ability to that of the user."
p3034
sg15
S'Normal'
p3035
sg17
F100
sbsS'Psybeam'
p3036
(ipokeStructs
Move
p3037
(dp3038
g5
I20
sg6
g3036
sg7
F65
sg8
S'special'
p3039
sg10
I0
sg11
g12
sg13
S'10% chance to confuse.'
p3040
sg15
S'Psychic'
p3041
sg17
F100
sbsS'Play Rough'
p3042
(ipokeStructs
Move
p3043
(dp3044
g5
I10
sg6
g3042
sg7
F90
sg8
S'physical'
p3045
sg10
I0
sg11
g12
sg13
S"May lower the target's Attack stat by 1."
p3046
sg15
S'Fairy'
p3047
sg17
F90
sbsS'Follow Me'
p3048
(ipokeStructs
Move
p3049
(dp3050
g5
I20
sg6
g3048
sg7
Nsg8
S'non-damaging'
p3051
sg10
I0
sg11
g12
sg13
S'All moves target the user.'
p3052
sg15
S'Normal'
p3053
sg17
NsbsS'Glare'
p3054
(ipokeStructs
Move
p3055
(dp3056
g5
I30
sg6
g3054
sg7
Nsg8
S'non-damaging'
p3057
sg10
I0
sg11
g12
sg13
S'Paralyzes the target.'
p3058
sg15
S'Normal'
p3059
sg17
F100
sbsS'Light of Ruin'
p3060
(ipokeStructs
Move
p3061
(dp3062
g5
I5
sg6
g3060
sg7
F140
sg8
S'special'
p3063
sg10
I0
sg11
g12
sg13
S'Has 1/2 recoil.'
p3064
sg15
S'Fairy'
p3065
sg17
F90
sbsS'Shock Wave'
p3066
(ipokeStructs
Move
p3067
(dp3068
g5
I20
sg6
g3066
sg7
F60
sg8
S'special'
p3069
sg10
I0
sg11
g12
sg13
S'Ignores accuracy modifiers.'
p3070
sg15
S'Electric'
p3071
sg17
NsbsS'Sunny Day'
p3072
(ipokeStructs
Move
p3073
(dp3074
g5
I5
sg6
g3072
sg7
Nsg8
S'non-damaging'
p3075
sg10
I0
sg11
g12
sg13
S'Summons sun for 5 turns.'
p3076
sg15
S'Fire'
p3077
sg17
NsbsS'Sucker Punch'
p3078
(ipokeStructs
Move
p3079
(dp3080
g5
I5
sg6
g3078
sg7
F80
sg8
S'physical'
p3081
sg10
I0
sg11
g12
sg13
S'The user always moves first. Will only work if the foe attacked.'
p3082
sg15
S'Dark'
p3083
sg17
F100
sbsS'Dragon Dance'
p3084
(ipokeStructs
Move
p3085
(dp3086
g5
I20
sg6
g3084
sg7
Nsg8
S'non-damaging'
p3087
sg10
I0
sg11
g12
sg13
S'Boosts Attack and Speed by 1 stage.'
p3088
sg15
S'Dragon'
p3089
sg17
NsbsS'Sludge'
p3090
(ipokeStructs
Move
p3091
(dp3092
g5
I20
sg6
g3090
sg7
F65
sg8
S'special'
p3093
sg10
I0
sg11
g12
sg13
S'30% chance to poison.'
p3094
sg15
S'Poison'
p3095
sg17
F100
sbsS'Eerie Impulse'
p3096
(ipokeStructs
Move
p3097
(dp3098
g5
I15
sg6
g3096
sg7
Nsg8
S'non-damaging'
p3099
sg10
I0
sg11
g12
sg13
S"Harshly lowers the target's Special Attack stat."
p3100
sg15
S'Electric'
p3101
sg17
F100
sbsS'Recover'
p3102
(ipokeStructs
Move
p3103
(dp3104
g5
I10
sg6
g3102
sg7
Nsg8
S'non-damaging'
p3105
sg10
I0
sg11
g12
sg13
S"Heals 50% of user's max HP."
p3106
sg15
S'Normal'
p3107
sg17
NsbsS'Struggle'
p3108
(ipokeStructs
Move
p3109
(dp3110
g5
I1
sg6
g3108
sg7
F50
sg8
S'physical'
p3111
sg10
I0
sg11
g12
sg13
S'Has 1/2 recoil.'
p3112
sg15
S'Normal'
p3113
sg17
NsbsS'Helping Hand'
p3114
(ipokeStructs
Move
p3115
(dp3116
g5
I20
sg6
g3114
sg7
Nsg8
S'non-damaging'
p3117
sg10
I0
sg11
g12
sg13
S"Increases power of ally's moves by 50%."
p3118
sg15
S'Normal'
p3119
sg17
NsbsS'Scald'
p3120
(ipokeStructs
Move
p3121
(dp3122
g5
I15
sg6
g3120
sg7
F80
sg8
S'special'
p3123
sg10
I0
sg11
g12
sg13
S'30% chance to burn the target. Thaws the user.'
p3124
sg15
S'Water'
p3125
sg17
F100
sbsS'Lava Plume'
p3126
(ipokeStructs
Move
p3127
(dp3128
g5
I15
sg6
g3126
sg7
F80
sg8
S'special'
p3129
sg10
I0
sg11
g12
sg13
S'30% chance to burn.'
p3130
sg15
S'Fire'
p3131
sg17
F100
sbsS'Mist Ball'
p3132
(ipokeStructs
Move
p3133
(dp3134
g5
I5
sg6
g3132
sg7
F70
sg8
S'special'
p3135
sg10
I0
sg11
g12
sg13
S'50% chance to lower Special Attack by 1 stage.'
p3136
sg15
S'Psychic'
p3137
sg17
F100
sbsS'Thunder'
p3138
(ipokeStructs
Move
p3139
(dp3140
g5
I10
sg6
g3138
sg7
F110
sg8
S'special'
p3141
sg10
I0
sg11
g12
sg13
S'30% chance to paralyze.'
p3142
sg15
S'Electric'
p3143
sg17
F70
sbsS'Dazzling Gleam'
p3144
(ipokeStructs
Move
p3145
(dp3146
g5
I10
sg6
g3144
sg7
F80
sg8
S'special'
p3147
sg10
I0
sg11
g12
sg13
S'Deals damage to all adjacent foes.'
p3148
sg15
S'Fairy'
p3149
sg17
F100
sbsS'Aromatherapy'
p3150
(ipokeStructs
Move
p3151
(dp3152
g5
I5
sg6
g3150
sg7
Nsg8
S'non-damaging'
p3153
sg10
I0
sg11
g12
sg13
S"Cures status on the user's team."
p3154
sg15
S'Grass'
p3155
sg17
NsbsS'Dual Chop'
p3156
(ipokeStructs
Move
p3157
(dp3158
g5
I15
sg6
g3156
sg7
F40
sg8
S'physical'
p3159
sg10
I0
sg11
g12
sg13
S'Hits 2 times in one turn.'
p3160
sg15
S'Dragon'
p3161
sg17
F90
sbsS'Hidden Power Fighting'
p3162
(ipokeStructs
Move
p3163
(dp3164
g5
I15
sg6
g3162
sg7
F60
sg8
S'special'
p3165
sg10
I0
sg11
g12
sg13
S"Type is based on the user's IVs."
p3166
sg15
S'Fighting'
p3167
sg17
F100
sbsS'Sacred Fire'
p3168
(ipokeStructs
Move
p3169
(dp3170
g5
I5
sg6
g3168
sg7
F100
sg8
S'physical'
p3171
sg10
I0
sg11
g12
sg13
S'50% chance to burn. Thaws the user.'
p3172
sg15
S'Fire'
p3173
sg17
F95
sbsS'Bone Club'
p3174
(ipokeStructs
Move
p3175
(dp3176
g5
I20
sg6
g3174
sg7
F65
sg8
S'physical'
p3177
sg10
I0
sg11
g12
sg13
S'10% chance to flinch.'
p3178
sg15
S'Ground'
p3179
sg17
F85
sbsS'Bullet Seed'
p3180
(ipokeStructs
Move
p3181
(dp3182
g5
I30
sg6
g3180
sg7
F25
sg8
S'physical'
p3183
sg10
I0
sg11
g12
sg13
S'Hits 2-5 times in one turn.'
p3184
sg15
S'Grass'
p3185
sg17
F100
sbsS'Egg Bomb'
p3186
(ipokeStructs
Move
p3187
(dp3188
g5
I10
sg6
g3186
sg7
F100
sg8
S'physical'
p3189
sg10
I0
sg11
g12
sg13
S'No additional effect.'
p3190
sg15
S'Normal'
p3191
sg17
F75
sbsS'Assurance'
p3192
(ipokeStructs
Move
p3193
(dp3194
g5
I10
sg6
g3192
sg7
F60
sg8
S'physical'
p3195
sg10
I0
sg11
g12
sg13
S'Base Power doubles if the foe takes damage in the same turn, before the attack hits.'
p3196
sg15
S'Dark'
p3197
sg17
F100
sbsS'Self-Destruct'
p3198
(ipokeStructs
Move
p3199
(dp3200
g5
I5
sg6
g3198
sg7
F200
sg8
S'physical'
p3201
sg10
I0
sg11
g12
sg13
S'Faints the user.'
p3202
sg15
S'Normal'
p3203
sg17
F100
sbsS'Cotton Guard'
p3204
(ipokeStructs
Move
p3205
(dp3206
g5
I10
sg6
g3204
sg7
Nsg8
S'non-damaging'
p3207
sg10
I0
sg11
g12
sg13
S"Boosts user's Defense by 3 stages."
p3208
sg15
S'Grass'
p3209
sg17
NsbsS'Snatch'
p3210
(ipokeStructs
Move
p3211
(dp3212
g5
I10
sg6
g3210
sg7
Nsg8
S'non-damaging'
p3213
sg10
I0
sg11
g12
sg13
S'If certain moves are used, the user of Snatch uses the moves instead.'
p3214
sg15
S'Dark'
p3215
sg17
NsbsS'Trump Card'
p3216
(ipokeStructs
Move
p3217
(dp3218
g5
I5
sg6
g3216
sg7
Nsg8
S'special'
p3219
sg10
I0
sg11
g12
sg13
S'Power increases as PP decreases.'
p3220
sg15
S'Normal'
p3221
sg17
NsbsS'Smokescreen'
p3222
(ipokeStructs
Move
p3223
(dp3224
g5
I20
sg6
g3222
sg7
Nsg8
S'non-damaging'
p3225
sg10
I0
sg11
g12
sg13
S"Lowers foe's accuracy by 1 stage."
p3226
sg15
S'Normal'
p3227
sg17
F100
sbsS'Hidden Power Grass'
p3228
(ipokeStructs
Move
p3229
(dp3230
g5
I15
sg6
g3228
sg7
F60
sg8
S'special'
p3231
sg10
I0
sg11
g12
sg13
S"Type is based on the user's IVs."
p3232
sg15
S'Grass'
p3233
sg17
F100
sbsS'X-Scissor'
p3234
(ipokeStructs
Move
p3235
(dp3236
g5
I15
sg6
g3234
sg7
F80
sg8
S'physical'
p3237
sg10
I0
sg11
g12
sg13
S'No additional effect.'
p3238
sg15
S'Bug'
p3239
sg17
F100
sbsS'Submission'
p3240
(ipokeStructs
Move
p3241
(dp3242
g5
I25
sg6
g3240
sg7
F80
sg8
S'physical'
p3243
sg10
I0
sg11
g12
sg13
S'Has 1/4 recoil.'
p3244
sg15
S'Fighting'
p3245
sg17
F80
sbsS'Vice Grip'
p3246
(ipokeStructs
Move
p3247
(dp3248
g5
I30
sg6
g3246
sg7
F55
sg8
S'physical'
p3249
sg10
I0
sg11
g12
sg13
S'No additional effect.'
p3250
sg15
S'Normal'
p3251
sg17
F100
sbsS'Gust'
p3252
(ipokeStructs
Move
p3253
(dp3254
g5
I35
sg6
g3252
sg7
F40
sg8
S'special'
p3255
sg10
I0
sg11
g12
sg13
S'Hits Pokemon using Fly for twice Base Power.'
p3256
sg15
S'Flying'
p3257
sg17
F100
sbsS'Fire Spin'
p3258
(ipokeStructs
Move
p3259
(dp3260
g5
I15
sg6
g3258
sg7
F35
sg8
S'special'
p3261
sg10
I0
sg11
g12
sg13
S'Prevents the opponent from attacking for 2-5 turns.'
p3262
sg15
S'Fire'
p3263
sg17
F85
sbsS'Swallow'
p3264
(ipokeStructs
Move
p3265
(dp3266
g5
I10
sg6
g3264
sg7
Nsg8
S'non-damaging'
p3267
sg10
I0
sg11
g12
sg13
S'Healing varies based on the number of uses of Stockpile.'
p3268
sg15
S'Normal'
p3269
sg17
NsbsS'Odor Sleuth'
p3270
(ipokeStructs
Move
p3271
(dp3272
g5
I40
sg6
g3270
sg7
Nsg8
S'non-damaging'
p3273
sg10
I0
sg11
g12
sg13
S'Blocks evasion modifiers. Allows Fighting- and Normal-type moves to hit Ghosts.'
p3274
sg15
S'Normal'
p3275
sg17
NsbsS'Poison Tail'
p3276
(ipokeStructs
Move
p3277
(dp3278
g5
I25
sg6
g3276
sg7
F50
sg8
S'physical'
p3279
sg10
I0
sg11
g12
sg13
S'Has a high critical hit rate. 10% chance to poison.'
p3280
sg15
S'Poison'
p3281
sg17
F100
sbsS'Nature Power'
p3282
(ipokeStructs
Move
p3283
(dp3284
g5
I20
sg6
g3282
sg7
Nsg8
S'non-damaging'
p3285
sg10
I0
sg11
g12
sg13
S'Attack changes based on terrain.'
p3286
sg15
S'Normal'
p3287
sg17
NsbsS'Stored Power'
p3288
(ipokeStructs
Move
p3289
(dp3290
g5
I10
sg6
g3288
sg7
F20
sg8
S'special'
p3291
sg10
I0
sg11
g12
sg13
S'Varies in power depending on number of boosts accumulated by user.'
p3292
sg15
S'Psychic'
p3293
sg17
F100
sbsS'Low Sweep'
p3294
(ipokeStructs
Move
p3295
(dp3296
g5
I20
sg6
g3294
sg7
F65
sg8
S'physical'
p3297
sg10
I0
sg11
g12
sg13
S"Lowers target's Speed by 1 stage."
p3298
sg15
S'Fighting'
p3299
sg17
F100
sbsS'Stockpile'
p3300
(ipokeStructs
Move
p3301
(dp3302
g5
I20
sg6
g3300
sg7
Nsg8
S'non-damaging'
p3303
sg10
I0
sg11
g12
sg13
S'Sets the user up to use Spit Up and Swallow.'
p3304
sg15
S'Normal'
p3305
sg17
NsbsS'Powder'
p3306
(ipokeStructs
Move
p3307
(dp3308
g5
I20
sg6
g3306
sg7
Nsg8
S'non-damaging'
p3309
sg10
I0
sg11
g12
sg13
S'Covers the target in powder that explodes if the target uses a Fire-type move. +1 Priority.'
p3310
sg15
S'Bug'
p3311
sg17
F100
sbsS'Will-O-Wisp'
p3312
(ipokeStructs
Move
p3313
(dp3314
g5
I15
sg6
g3312
sg7
Nsg8
S'non-damaging'
p3315
sg10
I0
sg11
g12
sg13
S'Burns the foe.'
p3316
sg15
S'Fire'
p3317
sg17
F85
sbsS'Arm Thrust'
p3318
(ipokeStructs
Move
p3319
(dp3320
g5
I20
sg6
g3318
sg7
F15
sg8
S'physical'
p3321
sg10
I0
sg11
g12
sg13
S'Hits 2-5 times in one turn.'
p3322
sg15
S'Fighting'
p3323
sg17
F100
sbsS'Mud Sport'
p3324
(ipokeStructs
Move
p3325
(dp3326
g5
I15
sg6
g3324
sg7
Nsg8
S'non-damaging'
p3327
sg10
I0
sg11
g12
sg13
S'Electric-type attacks do 50% damage.'
p3328
sg15
S'Ground'
p3329
sg17
NsbsS'Horn Leech'
p3330
(ipokeStructs
Move
p3331
(dp3332
g5
I10
sg6
g3330
sg7
F75
sg8
S'physical'
p3333
sg10
I0
sg11
g12
sg13
S'Leeches 50% of the damage dealt.'
p3334
sg15
S'Grass'
p3335
sg17
F100
sbsS'Mind Reader'
p3336
(ipokeStructs
Move
p3337
(dp3338
g5
I5
sg6
g3336
sg7
Nsg8
S'non-damaging'
p3339
sg10
I0
sg11
g12
sg13
S'The next move used will always hit.'
p3340
sg15
S'Normal'
p3341
sg17
NsbsS'Cut'
p3342
(ipokeStructs
Move
p3343
(dp3344
g5
I30
sg6
g3342
sg7
F50
sg8
S'physical'
p3345
sg10
I0
sg11
g12
sg13
S'No additional effect.'
p3346
sg15
S'Normal'
p3347
sg17
F95
sbsS'Cosmic Power'
p3348
(ipokeStructs
Move
p3349
(dp3350
g5
I20
sg6
g3348
sg7
Nsg8
S'non-damaging'
p3351
sg10
I0
sg11
g12
sg13
S'Boosts Defense and Special Defense by 1 stage.'
p3352
sg15
S'Psychic'
p3353
sg17
NsbsS'Gear Grind'
p3354
(ipokeStructs
Move
p3355
(dp3356
g5
I15
sg6
g3354
sg7
F50
sg8
S'physical'
p3357
sg10
I0
sg11
g12
sg13
S'Hits 2 times in one turn.'
p3358
sg15
S'Steel'
p3359
sg17
F85
sbsS'Sky Drop'
p3360
(ipokeStructs
Move
p3361
(dp3362
g5
I10
sg6
g3360
sg7
F60
sg8
S'physical'
p3363
sg10
I0
sg11
g12
sg13
S'Hits the turn after being used. The target cannot move while in the air.'
p3364
sg15
S'Flying'
p3365
sg17
F100
sbsS'Weather Ball'
p3366
(ipokeStructs
Move
p3367
(dp3368
g5
I10
sg6
g3366
sg7
F50
sg8
S'special'
p3369
sg10
I0
sg11
g12
sg13
S'Doubles in power and changes type if there is weather.'
p3370
sg15
S'Normal'
p3371
sg17
F100
sbsS'Double Hit'
p3372
(ipokeStructs
Move
p3373
(dp3374
g5
I10
sg6
g3372
sg7
F35
sg8
S'physical'
p3375
sg10
I0
sg11
g12
sg13
S'Hits 2 times in one turn.'
p3376
sg15
S'Normal'
p3377
sg17
F90
sbsS'Hidden Power Ground'
p3378
(ipokeStructs
Move
p3379
(dp3380
g5
I15
sg6
g3378
sg7
F60
sg8
S'special'
p3381
sg10
I0
sg11
g12
sg13
S"Type is based on the user's IVs."
p3382
sg15
S'Ground'
p3383
sg17
F100
sbsS'Karate Chop'
p3384
(ipokeStructs
Move
p3385
(dp3386
g5
I25
sg6
g3384
sg7
F50
sg8
S'physical'
p3387
sg10
I0
sg11
g12
sg13
S'Has a high critical hit rate.'
p3388
sg15
S'Fighting'
p3389
sg17
F100
sbsS'Volt Tackle'
p3390
(ipokeStructs
Move
p3391
(dp3392
g5
I15
sg6
g3390
sg7
F120
sg8
S'physical'
p3393
sg10
I0
sg11
g12
sg13
S'Has 1/3 recoil.'
p3394
sg15
S'Electric'
p3395
sg17
F100
sbsS'Mirror Shot'
p3396
(ipokeStructs
Move
p3397
(dp3398
g5
I10
sg6
g3396
sg7
F65
sg8
S'special'
p3399
sg10
I0
sg11
g12
sg13
S'30% chance to lower accuracy by 1 stage.'
p3400
sg15
S'Steel'
p3401
sg17
F85
sbsS'Swagger'
p3402
(ipokeStructs
Move
p3403
(dp3404
g5
I15
sg6
g3402
sg7
Nsg8
S'non-damaging'
p3405
sg10
I0
sg11
g12
sg13
S'Confuses the target. Boosts its Attack by 2 stages.'
p3406
sg15
S'Normal'
p3407
sg17
F90
sbsS'Power Trick'
p3408
(ipokeStructs
Move
p3409
(dp3410
g5
I10
sg6
g3408
sg7
Nsg8
S'non-damaging'
p3411
sg10
I0
sg11
g12
sg13
S"Swaps user's Attack and Defense stats."
p3412
sg15
S'Psychic'
p3413
sg17
NsbsS'Kinesis'
p3414
(ipokeStructs
Move
p3415
(dp3416
g5
I15
sg6
g3414
sg7
Nsg8
S'non-damaging'
p3417
sg10
I0
sg11
g12
sg13
S"Lowers target's accuracy by 1 stage."
p3418
sg15
S'Psychic'
p3419
sg17
F80
sbsS'Yawn'
p3420
(ipokeStructs
Move
p3421
(dp3422
g5
I10
sg6
g3420
sg7
Nsg8
S'non-damaging'
p3423
sg10
I0
sg11
g12
sg13
S'Puts the target to sleep after 2 turns.'
p3424
sg15
S'Normal'
p3425
sg17
NsbsS'Double Slap'
p3426
(ipokeStructs
Move
p3427
(dp3428
g5
I10
sg6
g3426
sg7
F15
sg8
S'physical'
p3429
sg10
I0
sg11
g12
sg13
S'Hits 2-5 times in 1 turn.'
p3430
sg15
S'Normal'
p3431
sg17
F85
sbsS'Acid Spray'
p3432
(ipokeStructs
Move
p3433
(dp3434
g5
I20
sg6
g3432
sg7
F40
sg8
S'special'
p3435
sg10
I0
sg11
g12
sg13
S"Lowers target's Special Defense by 2 stages."
p3436
sg15
S'Poison'
p3437
sg17
F100
sbsS'Roost'
p3438
(ipokeStructs
Move
p3439
(dp3440
g5
I10
sg6
g3438
sg7
Nsg8
S'non-damaging'
p3441
sg10
I0
sg11
g12
sg13
S"Heals 50% HP. Temporarily removes the user's Flying-type."
p3442
sg15
S'Flying'
p3443
sg17
NsbsS'Feint'
p3444
(ipokeStructs
Move
p3445
(dp3446
g5
I10
sg6
g3444
sg7
F30
sg8
S'physical'
p3447
sg10
I0
sg11
g12
sg13
S'Only works if the foe uses Detect or Protect; nullifies effects of those moves.'
p3448
sg15
S'Normal'
p3449
sg17
F100
sbsS'Wood Hammer'
p3450
(ipokeStructs
Move
p3451
(dp3452
g5
I15
sg6
g3450
sg7
F120
sg8
S'physical'
p3453
sg10
I0
sg11
g12
sg13
S'Has 1/3 recoil.'
p3454
sg15
S'Grass'
p3455
sg17
F100
sbsS'Bestow'
p3456
(ipokeStructs
Move
p3457
(dp3458
g5
I15
sg6
g3456
sg7
Nsg8
S'non-damaging'
p3459
sg10
I0
sg11
g12
sg13
S'User passes its held item to the target.'
p3460
sg15
S'Normal'
p3461
sg17
NsbsS'Fusion Flare'
p3462
(ipokeStructs
Move
p3463
(dp3464
g5
I5
sg6
g3462
sg7
F100
sg8
S'special'
p3465
sg10
I0
sg11
g12
sg13
S'Power doubles if used after Fusion Bolt.'
p3466
sg15
S'Fire'
p3467
sg17
F100
sbsS'Bonemerang'
p3468
(ipokeStructs
Move
p3469
(dp3470
g5
I10
sg6
g3468
sg7
F50
sg8
S'physical'
p3471
sg10
I0
sg11
g12
sg13
S'Hits twice in one turn.'
p3472
sg15
S'Ground'
p3473
sg17
F90
sbsS'Draining Kiss'
p3474
(ipokeStructs
Move
p3475
(dp3476
g5
I10
sg6
g3474
sg7
F50
sg8
S'special'
p3477
sg10
I0
sg11
g12
sg13
S'Deals damage to one adjacent target. The user recovers 75% of the HP lost by the target, rounded up. If Big Root is held by the user, the HP recovered is 1.3x normal, rounded half down. Makes contact.'
p3478
sg15
S'Fairy'
p3479
sg17
F100
sbsS'Fly'
p3480
(ipokeStructs
Move
p3481
(dp3482
g5
I15
sg6
g3480
sg7
F90
sg8
S'physical'
p3483
sg10
I0
sg11
g12
sg13
S'User is made invulnerable for one turn, then hits the next turn.'
p3484
sg15
S'Flying'
p3485
sg17
F95
sbsS'Incinerate'
p3486
(ipokeStructs
Move
p3487
(dp3488
g5
I15
sg6
g3486
sg7
F60
sg8
S'special'
p3489
sg10
I0
sg11
g12
sg13
S"Removes the target's Berry."
p3490
sg15
S'Fire'
p3491
sg17
F100
sbsS'Fire Pledge'
p3492
(ipokeStructs
Move
p3493
(dp3494
g5
I10
sg6
g3492
sg7
F80
sg8
S'special'
p3495
sg10
I0
sg11
g12
sg13
S'Use with Grass Pledge and Water Pledge for additional effect.'
p3496
sg15
S'Fire'
p3497
sg17
F100
sbsS'Relic Song'
p3498
(ipokeStructs
Move
p3499
(dp3500
g5
I10
sg6
g3498
sg7
F75
sg8
S'special'
p3501
sg10
I0
sg11
g12
sg13
S'10% chance to put target to sleep. If used by Meloetta, causes it to change from Aria Forme to Pirouette Forme.'
p3502
sg15
S'Normal'
p3503
sg17
F100
sbsS'Quiver Dance'
p3504
(ipokeStructs
Move
p3505
(dp3506
g5
I20
sg6
g3504
sg7
Nsg8
S'non-damaging'
p3507
sg10
I0
sg11
g12
sg13
S"Boosts the user's Special Attack, Special Defense, and Speed by 1 stage."
p3508
sg15
S'Bug'
p3509
sg17
NsbsS'Autotomize'
p3510
(ipokeStructs
Move
p3511
(dp3512
g5
I15
sg6
g3510
sg7
Nsg8
S'non-damaging'
p3513
sg10
I0
sg11
g12
sg13
S"Boosts user's Speed by 2 stages. Reduces user's weight."
p3514
sg15
S'Steel'
p3515
sg17
NsbsS'Foresight'
p3516
(ipokeStructs
Move
p3517
(dp3518
g5
I40
sg6
g3516
sg7
Nsg8
S'non-damaging'
p3519
sg10
I0
sg11
g12
sg13
S'Blocks evasion modifiers. Allows Fighting- and Normal-type moves to hit Ghost-types.'
p3520
sg15
S'Normal'
p3521
sg17
NsbsS'Bug Bite'
p3522
(ipokeStructs
Move
p3523
(dp3524
g5
I20
sg6
g3522
sg7
F60
sg8
S'physical'
p3525
sg10
I0
sg11
g12
sg13
S"Uses foe's Berry."
p3526
sg15
S'Bug'
p3527
sg17
F100
sbsS'Take Down'
p3528
(ipokeStructs
Move
p3529
(dp3530
g5
I20
sg6
g3528
sg7
F90
sg8
S'physical'
p3531
sg10
I0
sg11
g12
sg13
S'Has 1/4 recoil.'
p3532
sg15
S'Normal'
p3533
sg17
F85
sbsS'Rolling Kick'
p3534
(ipokeStructs
Move
p3535
(dp3536
g5
I15
sg6
g3534
sg7
F60
sg8
S'physical'
p3537
sg10
I0
sg11
g12
sg13
S'30% chance to flinch.'
p3538
sg15
S'Fighting'
p3539
sg17
F85
sbsS'Iron Head'
p3540
(ipokeStructs
Move
p3541
(dp3542
g5
I15
sg6
g3540
sg7
F80
sg8
S'physical'
p3543
sg10
I0
sg11
g12
sg13
S'30% chance to flinch.'
p3544
sg15
S'Steel'
p3545
sg17
F100
sbsS'Howl'
p3546
(ipokeStructs
Move
p3547
(dp3548
g5
I40
sg6
g3546
sg7
Nsg8
S'non-damaging'
p3549
sg10
I0
sg11
g12
sg13
S'Boosts Attack by 1 stage.'
p3550
sg15
S'Normal'
p3551
sg17
NsbsS'Aqua Ring'
p3552
(ipokeStructs
Move
p3553
(dp3554
g5
I20
sg6
g3552
sg7
Nsg8
S'non-damaging'
p3555
sg10
I0
sg11
g12
sg13
S'User recovers 1/16th of max HP each turn.'
p3556
sg15
S'Water'
p3557
sg17
NsbsS'Blue Flare'
p3558
(ipokeStructs
Move
p3559
(dp3560
g5
I5
sg6
g3558
sg7
F130
sg8
S'special'
p3561
sg10
I0
sg11
g12
sg13
S'20% chance to burn the target.'
p3562
sg15
S'Fire'
p3563
sg17
F85
sbsS'Heat Wave'
p3564
(ipokeStructs
Move
p3565
(dp3566
g5
I10
sg6
g3564
sg7
F95
sg8
S'special'
p3567
sg10
I0
sg11
g12
sg13
S'10% chance to burn.'
p3568
sg15
S'Fire'
p3569
sg17
F90
sbsS'Defend Order'
p3570
(ipokeStructs
Move
p3571
(dp3572
g5
I10
sg6
g3570
sg7
Nsg8
S'non-damaging'
p3573
sg10
I0
sg11
g12
sg13
S'Boosts Defense and Special Defense by 1 stage.'
p3574
sg15
S'Bug'
p3575
sg17
NsbsS'Scratch'
p3576
(ipokeStructs
Move
p3577
(dp3578
g5
I35
sg6
g3576
sg7
F40
sg8
S'physical'
p3579
sg10
I0
sg11
g12
sg13
S'No additional effect.'
p3580
sg15
S'Normal'
p3581
sg17
F100
sbsS'Fake Out'
p3582
(ipokeStructs
Move
p3583
(dp3584
g5
I10
sg6
g3582
sg7
F40
sg8
S'physical'
p3585
sg10
I0
sg11
g12
sg13
S'The user always moves first, and flinches the foe. Can only be used on the first turn out.'
p3586
sg15
S'Normal'
p3587
sg17
F100
sbsS'Leaf Storm'
p3588
(ipokeStructs
Move
p3589
(dp3590
g5
I5
sg6
g3588
sg7
F130
sg8
S'special'
p3591
sg10
I0
sg11
g12
sg13
S"Lowers user's Special Attack by 2 stages."
p3592
sg15
S'Grass'
p3593
sg17
F90
sbsS'Overheat'
p3594
(ipokeStructs
Move
p3595
(dp3596
g5
I5
sg6
g3594
sg7
F130
sg8
S'special'
p3597
sg10
I0
sg11
g12
sg13
S'Lowers Special Attack by 2 stages.'
p3598
sg15
S'Fire'
p3599
sg17
F90
sbsS'Dragon Rush'
p3600
(ipokeStructs
Move
p3601
(dp3602
g5
I10
sg6
g3600
sg7
F100
sg8
S'physical'
p3603
sg10
I0
sg11
g12
sg13
S'20% chance to flinch.'
p3604
sg15
S'Dragon'
p3605
sg17
F75
sbsS'Struggle Bug'
p3606
(ipokeStructs
Move
p3607
(dp3608
g5
I20
sg6
g3606
sg7
F50
sg8
S'special'
p3609
sg10
I0
sg11
g12
sg13
S"Lowers target's Special Attack by 1 stage."
p3610
sg15
S'Bug'
p3611
sg17
F100
sbsS'Dragon Rage'
p3612
(ipokeStructs
Move
p3613
(dp3614
g5
I10
sg6
g3612
sg7
Nsg8
S'special'
p3615
sg10
I0
sg11
g12
sg13
S'Always does 40 HP damage.'
p3616
sg15
S'Dragon'
p3617
sg17
F100
sbsS'Thunder Fang'
p3618
(ipokeStructs
Move
p3619
(dp3620
g5
I15
sg6
g3618
sg7
F65
sg8
S'physical'
p3621
sg10
I0
sg11
g12
sg13
S'10% chance to flinch. 10% chance to paralyze.'
p3622
sg15
S'Electric'
p3623
sg17
F95
sbsS'Fell Stinger'
p3624
(ipokeStructs
Move
p3625
(dp3626
g5
I25
sg6
g3624
sg7
F30
sg8
S'physical'
p3627
sg10
I0
sg11
g12
sg13
S"When the user knocks out a target with this move, the user's Attack stat rises sharply."
p3628
sg15
S'Bug'
p3629
sg17
F100
sbsS'Hyper Fang'
p3630
(ipokeStructs
Move
p3631
(dp3632
g5
I15
sg6
g3630
sg7
F80
sg8
S'physical'
p3633
sg10
I0
sg11
g12
sg13
S'10% chance to flinch the target.'
p3634
sg15
S'Normal'
p3635
sg17
F90
sbsS'Extreme Speed'
p3636
(ipokeStructs
Move
p3637
(dp3638
g5
I5
sg6
g3636
sg7
F80
sg8
S'physical'
p3639
sg10
I0
sg11
g12
sg13
S'The user always attacks first.'
p3640
sg15
S'Normal'
p3641
sg17
F100
sbsS'Heal Block'
p3642
(ipokeStructs
Move
p3643
(dp3644
g5
I15
sg6
g3642
sg7
Nsg8
S'non-damaging'
p3645
sg10
I0
sg11
g12
sg13
S'Prevents the foes from using healing moves for 5 turns.'
p3646
sg15
S'Psychic'
p3647
sg17
F100
sbsS'Explosion'
p3648
(ipokeStructs
Move
p3649
(dp3650
g5
I5
sg6
g3648
sg7
F250
sg8
S'physical'
p3651
sg10
I0
sg11
g12
sg13
S'Faints the user.'
p3652
sg15
S'Normal'
p3653
sg17
F100
sbsS'Barrier'
p3654
(ipokeStructs
Move
p3655
(dp3656
g5
I20
sg6
g3654
sg7
Nsg8
S'non-damaging'
p3657
sg10
I0
sg11
g12
sg13
S'Boosts Defense by 2 stages.'
p3658
sg15
S'Psychic'
p3659
sg17
NsbsS'Heal Order'
p3660
(ipokeStructs
Move
p3661
(dp3662
g5
I10
sg6
g3660
sg7
Nsg8
S'non-damaging'
p3663
sg10
I0
sg11
g12
sg13
S'Heals 50% max HP.'
p3664
sg15
S'Bug'
p3665
sg17
NsbsS'Heal Pulse'
p3666
(ipokeStructs
Move
p3667
(dp3668
g5
I10
sg6
g3666
sg7
Nsg8
S'non-damaging'
p3669
sg10
I0
sg11
g12
sg13
S'Heals the target by 50% its max HP.'
p3670
sg15
S'Psychic'
p3671
sg17
NsbsS'Head Smash'
p3672
(ipokeStructs
Move
p3673
(dp3674
g5
I5
sg6
g3672
sg7
F150
sg8
S'physical'
p3675
sg10
I0
sg11
g12
sg13
S'Has 1/2 recoil.'
p3676
sg15
S'Rock'
p3677
sg17
F80
sbsS'Steam Eruption'
p3678
(ipokeStructs
Move
p3679
(dp3680
g5
I5
sg6
g3678
sg7
F110
sg8
S'special'
p3681
sg10
I0
sg11
g12
sg13
S'30% chance to burn the target.'
p3682
sg15
S'Water'
p3683
sg17
F95
sbsS'Disable'
p3684
(ipokeStructs
Move
p3685
(dp3686
g5
I20
sg6
g3684
sg7
Nsg8
S'non-damaging'
p3687
sg10
I0
sg11
g12
sg13
S'Prevents the last move used from being used again for 2-5 turns.'
p3688
sg15
S'Normal'
p3689
sg17
F100
sbsS'Flamethrower'
p3690
(ipokeStructs
Move
p3691
(dp3692
g5
I15
sg6
g3690
sg7
F90
sg8
S'special'
p3693
sg10
I0
sg11
g12
sg13
S'10% chance to burn.'
p3694
sg15
S'Fire'
p3695
sg17
F100
sbsS'Rollout'
p3696
(ipokeStructs
Move
p3697
(dp3698
g5
I20
sg6
g3696
sg7
F30
sg8
S'physical'
p3699
sg10
I0
sg11
g12
sg13
S'Doubles in power with each hit. Repeats for 5 turns.'
p3700
sg15
S'Rock'
p3701
sg17
F90
sbsS'Knock Off'
p3702
(ipokeStructs
Move
p3703
(dp3704
g5
I20
sg6
g3702
sg7
F65
sg8
S'physical'
p3705
sg10
I0
sg11
g12
sg13
S"Power is boosted 1.5x if user is holding a removable item. Removes the target's item."
p3706
sg15
S'Dark'
p3707
sg17
F100
sbsS'Wonder Room'
p3708
(ipokeStructs
Move
p3709
(dp3710
g5
I10
sg6
g3708
sg7
Nsg8
S'non-damaging'
p3711
sg10
I0
sg11
g12
sg13
S'Swaps Defense and Special Defense of all Pokemon.'
p3712
sg15
S'Psychic'
p3713
sg17
NsbsS'Psystrike'
p3714
(ipokeStructs
Move
p3715
(dp3716
g5
I10
sg6
g3714
sg7
F100
sg8
S'special'
p3717
sg10
I0
sg11
g12
sg13
S"Damage is based on the target's Defense stat."
p3718
sg15
S'Psychic'
p3719
sg17
F100
sbsS'Perish Song'
p3720
(ipokeStructs
Move
p3721
(dp3722
g5
I5
sg6
g3720
sg7
Nsg8
S'non-damaging'
p3723
sg10
I0
sg11
g12
sg13
S'All active Pokemon faint after 3 turns.'
p3724
sg15
S'Normal'
p3725
sg17
NsbsS'Air Slash'
p3726
(ipokeStructs
Move
p3727
(dp3728
g5
I20
sg6
g3726
sg7
F75
sg8
S'special'
p3729
sg10
I0
sg11
g12
sg13
S'High critical hit rate.'
p3730
sg15
S'Flying'
p3731
sg17
F95
sbsS'Sludge Bomb'
p3732
(ipokeStructs
Move
p3733
(dp3734
g5
I10
sg6
g3732
sg7
F90
sg8
S'special'
p3735
sg10
I0
sg11
g12
sg13
S'30% chance to poison.'
p3736
sg15
S'Poison'
p3737
sg17
F100
sbsS'Moonlight'
p3738
(ipokeStructs
Move
p3739
(dp3740
g5
I5
sg6
g3738
sg7
Nsg8
S'non-damaging'
p3741
sg10
I0
sg11
g12
sg13
S'Heals variably depending on the weather.'
p3742
sg15
S'Fairy'
p3743
sg17
NsbsS'Tail Glow'
p3744
(ipokeStructs
Move
p3745
(dp3746
g5
I20
sg6
g3744
sg7
Nsg8
S'non-damaging'
p3747
sg10
I0
sg11
g12
sg13
S'Boosts Special Attack by 2 stages.'
p3748
sg15
S'Bug'
p3749
sg17
NsbsS'Oblivion Wing'
p3750
(ipokeStructs
Move
p3751
(dp3752
g5
I10
sg6
g3750
sg7
F80
sg8
S'special'
p3753
sg10
I0
sg11
g12
sg13
S'Deals damage to one adjacent target. The user recovers 75% of the HP lost by the target, rounded up.'
p3754
sg15
S'Flying'
p3755
sg17
F100
sbsS'Endure'
p3756
(ipokeStructs
Move
p3757
(dp3758
g5
I10
sg6
g3756
sg7
Nsg8
S'non-damaging'
p3759
sg10
I0
sg11
g12
sg13
S'The user always survives with at least 1 HP.'
p3760
sg15
S'Normal'
p3761
sg17
NsbsS'Imprison'
p3762
(ipokeStructs
Move
p3763
(dp3764
g5
I10
sg6
g3762
sg7
Nsg8
S'non-damaging'
p3765
sg10
I0
sg11
g12
sg13
S"No foe can use any of the user's moves."
p3766
sg15
S'Psychic'
p3767
sg17
NsbsS'Giga Impact'
p3768
(ipokeStructs
Move
p3769
(dp3770
g5
I5
sg6
g3768
sg7
F150
sg8
S'physical'
p3771
sg10
I0
sg11
g12
sg13
S'User cannot move next turn.'
p3772
sg15
S'Normal'
p3773
sg17
F90
sbsS'Blast Burn'
p3774
(ipokeStructs
Move
p3775
(dp3776
g5
I5
sg6
g3774
sg7
F150
sg8
S'special'
p3777
sg10
I0
sg11
g12
sg13
S'User cannot move next turn.'
p3778
sg15
S'Fire'
p3779
sg17
F90
sbsS'U-turn'
p3780
(ipokeStructs
Move
p3781
(dp3782
g5
I20
sg6
g3780
sg7
F70
sg8
S'physical'
p3783
sg10
I0
sg11
g12
sg13
S'Attacks, then switches.'
p3784
sg15
S'Bug'
p3785
sg17
F100
sbsS'Secret Sword'
p3786
(ipokeStructs
Move
p3787
(dp3788
g5
I10
sg6
g3786
sg7
F85
sg8
S'special'
p3789
sg10
I0
sg11
g12
sg13
S"Damage is based on the target's Defense stat."
p3790
sg15
S'Fighting'
p3791
sg17
F100
sbsS'Attack Order'
p3792
(ipokeStructs
Move
p3793
(dp3794
g5
I15
sg6
g3792
sg7
F90
sg8
S'physical'
p3795
sg10
I0
sg11
g12
sg13
S'Has a high critical hit rate.'
p3796
sg15
S'Bug'
p3797
sg17
F100
sbsS'Luster Purge'
p3798
(ipokeStructs
Move
p3799
(dp3800
g5
I5
sg6
g3798
sg7
F70
sg8
S'special'
p3801
sg10
I0
sg11
g12
sg13
S'50% chance to lower Special Defense by 1 stage.'
p3802
sg15
S'Psychic'
p3803
sg17
F100
sbs.