(dp1
I1
(ipokeStructs
Pokemon_dex
p2
(dp3
S'Abilities'
p4
(lp5
S'chlorophyll'
p6
aS'overgrow'
p7
asS'Name'
p8
S'Bulbasaur'
p9
sS'Weight'
p10
F69
sS'BaseStats'
p11
(dp12
S'SpA'
p13
F65
sS'HP'
p14
F45
sS'SpD'
p15
F65
sS'Atk'
p16
F49
sS'Def'
p17
F49
sS'Spe'
p18
F45
ssS'Height'
p19
F7
sS'Tier'
p20
S'None'
p21
sS'Type'
p22
(lp23
S'grass'
p24
aS'poison'
p25
asS'ID'
p26
I1
sbsI2
(ipokeStructs
Pokemon_dex
p27
(dp28
g4
(lp29
S'chlorophyll'
p30
aS'overgrow'
p31
asg8
S'Ivysaur'
p32
sg10
F130
sg11
(dp33
g13
F80
sg14
F60
sg15
F80
sg16
F62
sg17
F63
sg18
F60
ssg19
F10
sg20
g21
sg22
(lp34
S'grass'
p35
aS'poison'
p36
asg26
I2
sbsI3
(ipokeStructs
Pokemon_dex
p37
(dp38
g4
(lp39
S'chlorophyll'
p40
aS'overgrow'
p41
asg8
S'Venusaur'
p42
sg10
F1000
sg11
(dp43
g13
F100
sg14
F80
sg15
F100
sg16
F82
sg17
F83
sg18
F80
ssg19
F20
sg20
g21
sg22
(lp44
S'grass'
p45
aS'poison'
p46
asg26
I3
sbsI4
(ipokeStructs
Pokemon_dex
p47
(dp48
g4
(lp49
S'solar-power'
p50
aS'blaze'
p51
asg8
S'Charmander'
p52
sg10
F85
sg11
(dp53
g13
F60
sg14
F39
sg15
F50
sg16
F52
sg17
F43
sg18
F65
ssg19
F6
sg20
g21
sg22
(lp54
S'fire'
p55
asg26
I4
sbsI5
(ipokeStructs
Pokemon_dex
p56
(dp57
g4
(lp58
S'solar-power'
p59
aS'blaze'
p60
asg8
S'Charmeleon'
p61
sg10
F190
sg11
(dp62
g13
F80
sg14
F58
sg15
F65
sg16
F64
sg17
F58
sg18
F80
ssg19
F11
sg20
g21
sg22
(lp63
S'fire'
p64
asg26
I5
sbsI6
(ipokeStructs
Pokemon_dex
p65
(dp66
g4
(lp67
S'solar-power'
p68
aS'blaze'
p69
asg8
S'Charizard'
p70
sg10
F905
sg11
(dp71
g13
F109
sg14
F78
sg15
F85
sg16
F84
sg17
F78
sg18
F100
ssg19
F17
sg20
g21
sg22
(lp72
S'fire'
p73
aS'flying'
p74
asg26
I6
sbsI7
(ipokeStructs
Pokemon_dex
p75
(dp76
g4
(lp77
S'rain-dish'
p78
aS'torrent'
p79
asg8
S'Squirtle'
p80
sg10
F90
sg11
(dp81
g13
F50
sg14
F44
sg15
F64
sg16
F48
sg17
F65
sg18
F43
ssg19
F5
sg20
g21
sg22
(lp82
S'water'
p83
asg26
I7
sbsI8
(ipokeStructs
Pokemon_dex
p84
(dp85
g4
(lp86
S'rain-dish'
p87
aS'torrent'
p88
asg8
S'Wartortle'
p89
sg10
F225
sg11
(dp90
g13
F65
sg14
F59
sg15
F80
sg16
F63
sg17
F80
sg18
F58
ssg19
F10
sg20
g21
sg22
(lp91
S'water'
p92
asg26
I8
sbsI9
(ipokeStructs
Pokemon_dex
p93
(dp94
g4
(lp95
S'rain-dish'
p96
aS'torrent'
p97
asg8
S'Blastoise'
p98
sg10
F855
sg11
(dp99
g13
F85
sg14
F79
sg15
F105
sg16
F83
sg17
F100
sg18
F78
ssg19
F16
sg20
g21
sg22
(lp100
S'water'
p101
asg26
I9
sbsI10
(ipokeStructs
Pokemon_dex
p102
(dp103
g4
(lp104
S'shield-dust'
p105
aS'run-away'
p106
asg8
S'Caterpie'
p107
sg10
F29
sg11
(dp108
g13
F20
sg14
F45
sg15
F20
sg16
F30
sg17
F35
sg18
F45
ssg19
F3
sg20
g21
sg22
(lp109
S'bug'
p110
asg26
I10
sbsI11
(ipokeStructs
Pokemon_dex
p111
(dp112
g4
(lp113
S'shed-skin'
p114
asg8
S'Metapod'
p115
sg10
F99
sg11
(dp116
g13
F25
sg14
F50
sg15
F25
sg16
F20
sg17
F55
sg18
F30
ssg19
F7
sg20
g21
sg22
(lp117
S'bug'
p118
asg26
I11
sbsI12
(ipokeStructs
Pokemon_dex
p119
(dp120
g4
(lp121
S'tinted-lens'
p122
aS'compoundeyes'
p123
asg8
S'Butterfree'
p124
sg10
F320
sg11
(dp125
g13
F90
sg14
F60
sg15
F80
sg16
F45
sg17
F50
sg18
F70
ssg19
F11
sg20
g21
sg22
(lp126
S'flying'
p127
aS'bug'
p128
asg26
I12
sbsI13
(ipokeStructs
Pokemon_dex
p129
(dp130
g4
(lp131
S'shield-dust'
p132
aS'run-away'
p133
asg8
S'Weedle'
p134
sg10
F32
sg11
(dp135
g13
F20
sg14
F40
sg15
F20
sg16
F35
sg17
F30
sg18
F50
ssg19
F3
sg20
g21
sg22
(lp136
S'bug'
p137
aS'poison'
p138
asg26
I13
sbsI14
(ipokeStructs
Pokemon_dex
p139
(dp140
g4
(lp141
S'shed-skin'
p142
asg8
S'Kakuna'
p143
sg10
F100
sg11
(dp144
g13
F25
sg14
F45
sg15
F25
sg16
F25
sg17
F50
sg18
F35
ssg19
F6
sg20
g21
sg22
(lp145
S'bug'
p146
aS'poison'
p147
asg26
I14
sbsI15
(ipokeStructs
Pokemon_dex
p148
(dp149
g4
(lp150
S'swarm'
p151
aS'sniper'
p152
asg8
S'Beedrill'
p153
sg10
F295
sg11
(dp154
g13
F45
sg14
F65
sg15
F80
sg16
F90
sg17
F40
sg18
F75
ssg19
F10
sg20
g21
sg22
(lp155
S'bug'
p156
aS'poison'
p157
asg26
I15
sbsI16
(ipokeStructs
Pokemon_dex
p158
(dp159
g4
(lp160
S'big-pecks'
p161
aS'tangled-feet'
p162
aS'keen-eye'
p163
asg8
S'Pidgey'
p164
sg10
F18
sg11
(dp165
g13
F35
sg14
F40
sg15
F35
sg16
F45
sg17
F40
sg18
F56
ssg19
F3
sg20
g21
sg22
(lp166
S'flying'
p167
aS'normal'
p168
asg26
I16
sbsI17
(ipokeStructs
Pokemon_dex
p169
(dp170
g4
(lp171
S'big-pecks'
p172
aS'tangled-feet'
p173
aS'keen-eye'
p174
asg8
S'Pidgeotto'
p175
sg10
F300
sg11
(dp176
g13
F50
sg14
F63
sg15
F50
sg16
F60
sg17
F55
sg18
F71
ssg19
F11
sg20
g21
sg22
(lp177
S'flying'
p178
aS'normal'
p179
asg26
I17
sbsI18
(ipokeStructs
Pokemon_dex
p180
(dp181
g4
(lp182
S'big-pecks'
p183
aS'tangled-feet'
p184
aS'keen-eye'
p185
asg8
S'Pidgeot'
p186
sg10
F395
sg11
(dp187
g13
F70
sg14
F83
sg15
F70
sg16
F80
sg17
F75
sg18
F101
ssg19
F15
sg20
g21
sg22
(lp188
S'flying'
p189
aS'normal'
p190
asg26
I18
sbsI19
(ipokeStructs
Pokemon_dex
p191
(dp192
g4
(lp193
S'guts'
p194
aS'run-away'
p195
aS'hustle'
p196
asg8
S'Rattata'
p197
sg10
F35
sg11
(dp198
g13
F25
sg14
F30
sg15
F35
sg16
F56
sg17
F35
sg18
F72
ssg19
F3
sg20
g21
sg22
(lp199
S'normal'
p200
asg26
I19
sbsI20
(ipokeStructs
Pokemon_dex
p201
(dp202
g4
(lp203
S'guts'
p204
aS'run-away'
p205
aS'hustle'
p206
asg8
S'Raticate'
p207
sg10
F185
sg11
(dp208
g13
F50
sg14
F55
sg15
F70
sg16
F81
sg17
F60
sg18
F97
ssg19
F7
sg20
g21
sg22
(lp209
S'normal'
p210
asg26
I20
sbsI21
(ipokeStructs
Pokemon_dex
p211
(dp212
g4
(lp213
S'keen-eye'
p214
aS'sniper'
p215
asg8
S'Spearow'
p216
sg10
F20
sg11
(dp217
g13
F31
sg14
F40
sg15
F31
sg16
F60
sg17
F30
sg18
F70
ssg19
F3
sg20
g21
sg22
(lp218
S'flying'
p219
aS'normal'
p220
asg26
I21
sbsI22
(ipokeStructs
Pokemon_dex
p221
(dp222
g4
(lp223
S'keen-eye'
p224
aS'sniper'
p225
asg8
S'Fearow'
p226
sg10
F380
sg11
(dp227
g13
F61
sg14
F65
sg15
F61
sg16
F90
sg17
F65
sg18
F100
ssg19
F12
sg20
g21
sg22
(lp228
S'flying'
p229
aS'normal'
p230
asg26
I22
sbsI23
(ipokeStructs
Pokemon_dex
p231
(dp232
g4
(lp233
S'intimidate'
p234
aS'shed-skin'
p235
aS'unnerve'
p236
asg8
S'Ekans'
p237
sg10
F69
sg11
(dp238
g13
F40
sg14
F35
sg15
F54
sg16
F60
sg17
F44
sg18
F55
ssg19
F20
sg20
g21
sg22
(lp239
S'poison'
p240
asg26
I23
sbsI24
(ipokeStructs
Pokemon_dex
p241
(dp242
g4
(lp243
S'intimidate'
p244
aS'shed-skin'
p245
aS'unnerve'
p246
asg8
S'Arbok'
p247
sg10
F650
sg11
(dp248
g13
F65
sg14
F60
sg15
F79
sg16
F85
sg17
F69
sg18
F80
ssg19
F35
sg20
g21
sg22
(lp249
S'poison'
p250
asg26
I24
sbsI25
(ipokeStructs
Pokemon_dex
p251
(dp252
g4
(lp253
S'static'
p254
aS'lightningrod'
p255
asg8
S'Pikachu'
p256
sg10
F60
sg11
(dp257
g13
F50
sg14
F35
sg15
F50
sg16
F55
sg17
F40
sg18
F90
ssg19
F4
sg20
g21
sg22
(lp258
S'electric'
p259
asg26
I25
sbsI26
(ipokeStructs
Pokemon_dex
p260
(dp261
g4
(lp262
S'static'
p263
aS'lightningrod'
p264
asg8
S'Raichu'
p265
sg10
F300
sg11
(dp266
g13
F90
sg14
F60
sg15
F80
sg16
F90
sg17
F55
sg18
F110
ssg19
F8
sg20
g21
sg22
(lp267
S'electric'
p268
asg26
I26
sbsI27
(ipokeStructs
Pokemon_dex
p269
(dp270
g4
(lp271
S'sand-rush'
p272
aS'sand-veil'
p273
asg8
S'Sandshrew'
p274
sg10
F120
sg11
(dp275
g13
F20
sg14
F50
sg15
F30
sg16
F75
sg17
F85
sg18
F40
ssg19
F6
sg20
g21
sg22
(lp276
S'ground'
p277
asg26
I27
sbsI28
(ipokeStructs
Pokemon_dex
p278
(dp279
g4
(lp280
S'sand-rush'
p281
aS'sand-veil'
p282
asg8
S'Sandslash'
p283
sg10
F295
sg11
(dp284
g13
F45
sg14
F75
sg15
F55
sg16
F100
sg17
F110
sg18
F65
ssg19
F10
sg20
g21
sg22
(lp285
S'ground'
p286
asg26
I28
sbsI29
(ipokeStructs
Pokemon_dex
p287
(dp288
g4
(lp289
S'poison-point'
p290
aS'rivalry'
p291
aS'hustle'
p292
asg8
S'Nidoran-f'
p293
sg10
F70
sg11
(dp294
g13
F40
sg14
F55
sg15
F40
sg16
F47
sg17
F52
sg18
F41
ssg19
F4
sg20
g21
sg22
(lp295
S'poison'
p296
asg26
I29
sbsI30
(ipokeStructs
Pokemon_dex
p297
(dp298
g4
(lp299
S'poison-point'
p300
aS'rivalry'
p301
aS'hustle'
p302
asg8
S'Nidorina'
p303
sg10
F200
sg11
(dp304
g13
F55
sg14
F70
sg15
F55
sg16
F62
sg17
F67
sg18
F56
ssg19
F8
sg20
g21
sg22
(lp305
S'poison'
p306
asg26
I30
sbsI31
(ipokeStructs
Pokemon_dex
p307
(dp308
g4
(lp309
S'poison-point'
p310
aS'sheer-force'
p311
aS'rivalry'
p312
asg8
S'Nidoqueen'
p313
sg10
F600
sg11
(dp314
g13
F75
sg14
F90
sg15
F85
sg16
F92
sg17
F87
sg18
F76
ssg19
F13
sg20
g21
sg22
(lp315
S'poison'
p316
aS'ground'
p317
asg26
I31
sbsI32
(ipokeStructs
Pokemon_dex
p318
(dp319
g4
(lp320
S'poison-point'
p321
aS'rivalry'
p322
aS'hustle'
p323
asg8
S'Nidoran-m'
p324
sg10
F90
sg11
(dp325
g13
F40
sg14
F46
sg15
F40
sg16
F57
sg17
F40
sg18
F50
ssg19
F5
sg20
g21
sg22
(lp326
S'poison'
p327
asg26
I32
sbsI33
(ipokeStructs
Pokemon_dex
p328
(dp329
g4
(lp330
S'poison-point'
p331
aS'rivalry'
p332
aS'hustle'
p333
asg8
S'Nidorino'
p334
sg10
F195
sg11
(dp335
g13
F55
sg14
F61
sg15
F55
sg16
F72
sg17
F57
sg18
F65
ssg19
F9
sg20
g21
sg22
(lp336
S'poison'
p337
asg26
I33
sbsI34
(ipokeStructs
Pokemon_dex
p338
(dp339
g4
(lp340
S'poison-point'
p341
aS'sheer-force'
p342
aS'rivalry'
p343
asg8
S'Nidoking'
p344
sg10
F620
sg11
(dp345
g13
F85
sg14
F81
sg15
F75
sg16
F102
sg17
F77
sg18
F85
ssg19
F14
sg20
g21
sg22
(lp346
S'poison'
p347
aS'ground'
p348
asg26
I34
sbsI35
(ipokeStructs
Pokemon_dex
p349
(dp350
g4
(lp351
S'friend-guard'
p352
aS'magic-guard'
p353
aS'cute-charm'
p354
asg8
S'Clefairy'
p355
sg10
F75
sg11
(dp356
g13
F60
sg14
F70
sg15
F65
sg16
F45
sg17
F48
sg18
F35
ssg19
F6
sg20
g21
sg22
(lp357
S'fairy'
p358
asg26
I35
sbsI36
(ipokeStructs
Pokemon_dex
p359
(dp360
g4
(lp361
S'magic-guard'
p362
aS'cute-charm'
p363
aS'unaware'
p364
asg8
S'Clefable'
p365
sg10
F400
sg11
(dp366
g13
F95
sg14
F95
sg15
F90
sg16
F70
sg17
F73
sg18
F60
ssg19
F13
sg20
g21
sg22
(lp367
S'fairy'
p368
asg26
I36
sbsI37
(ipokeStructs
Pokemon_dex
p369
(dp370
g4
(lp371
S'flash-fire'
p372
aS'drought'
p373
asg8
S'Vulpix'
p374
sg10
F99
sg11
(dp375
g13
F50
sg14
F38
sg15
F65
sg16
F41
sg17
F40
sg18
F65
ssg19
F6
sg20
g21
sg22
(lp376
S'fire'
p377
asg26
I37
sbsI38
(ipokeStructs
Pokemon_dex
p378
(dp379
g4
(lp380
S'flash-fire'
p381
aS'drought'
p382
asg8
S'Ninetales'
p383
sg10
F199
sg11
(dp384
g13
F81
sg14
F73
sg15
F100
sg16
F76
sg17
F75
sg18
F100
ssg19
F11
sg20
g21
sg22
(lp385
S'fire'
p386
asg26
I38
sbsI39
(ipokeStructs
Pokemon_dex
p387
(dp388
g4
(lp389
S'friend-guard'
p390
aS'cute-charm'
p391
asg8
S'Jigglypuff'
p392
sg10
F55
sg11
(dp393
g13
F45
sg14
F115
sg15
F25
sg16
F45
sg17
F20
sg18
F20
ssg19
F5
sg20
g21
sg22
(lp394
S'fairy'
p395
aS'normal'
p396
asg26
I39
sbsI40
(ipokeStructs
Pokemon_dex
p397
(dp398
g4
(lp399
S'cute-charm'
p400
aS'frisk'
p401
asg8
S'Wigglytuff'
p402
sg10
F120
sg11
(dp403
g13
F85
sg14
F140
sg15
F50
sg16
F70
sg17
F45
sg18
F45
ssg19
F10
sg20
g21
sg22
(lp404
S'fairy'
p405
aS'normal'
p406
asg26
I40
sbsI41
(ipokeStructs
Pokemon_dex
p407
(dp408
g4
(lp409
S'inner-focus'
p410
aS'infiltrator'
p411
asg8
S'Zubat'
p412
sg10
F75
sg11
(dp413
g13
F30
sg14
F40
sg15
F40
sg16
F45
sg17
F35
sg18
F55
ssg19
F8
sg20
g21
sg22
(lp414
S'flying'
p415
aS'poison'
p416
asg26
I41
sbsI42
(ipokeStructs
Pokemon_dex
p417
(dp418
g4
(lp419
S'inner-focus'
p420
aS'infiltrator'
p421
asg8
S'Golbat'
p422
sg10
F550
sg11
(dp423
g13
F65
sg14
F75
sg15
F75
sg16
F80
sg17
F70
sg18
F90
ssg19
F16
sg20
g21
sg22
(lp424
S'flying'
p425
aS'poison'
p426
asg26
I42
sbsI43
(ipokeStructs
Pokemon_dex
p427
(dp428
g4
(lp429
S'chlorophyll'
p430
aS'run-away'
p431
asg8
S'Oddish'
p432
sg10
F54
sg11
(dp433
g13
F75
sg14
F45
sg15
F65
sg16
F50
sg17
F55
sg18
F30
ssg19
F5
sg20
g21
sg22
(lp434
S'grass'
p435
aS'poison'
p436
asg26
I43
sbsI44
(ipokeStructs
Pokemon_dex
p437
(dp438
g4
(lp439
S'chlorophyll'
p440
aS'stench'
p441
asg8
S'Gloom'
p442
sg10
F86
sg11
(dp443
g13
F85
sg14
F60
sg15
F75
sg16
F65
sg17
F70
sg18
F40
ssg19
F8
sg20
g21
sg22
(lp444
S'grass'
p445
aS'poison'
p446
asg26
I44
sbsI45
(ipokeStructs
Pokemon_dex
p447
(dp448
g4
(lp449
S'chlorophyll'
p450
aS'effect-spore'
p451
asg8
S'Vileplume'
p452
sg10
F186
sg11
(dp453
g13
F110
sg14
F75
sg15
F90
sg16
F80
sg17
F85
sg18
F50
ssg19
F12
sg20
g21
sg22
(lp454
S'grass'
p455
aS'poison'
p456
asg26
I45
sbsI46
(ipokeStructs
Pokemon_dex
p457
(dp458
g4
(lp459
S'damp'
p460
aS'dry-skin'
p461
aS'effect-spore'
p462
asg8
S'Paras'
p463
sg10
F54
sg11
(dp464
g13
F45
sg14
F35
sg15
F55
sg16
F70
sg17
F55
sg18
F25
ssg19
F3
sg20
g21
sg22
(lp465
S'grass'
p466
aS'bug'
p467
asg26
I46
sbsI47
(ipokeStructs
Pokemon_dex
p468
(dp469
g4
(lp470
S'damp'
p471
aS'dry-skin'
p472
aS'effect-spore'
p473
asg8
S'Parasect'
p474
sg10
F295
sg11
(dp475
g13
F60
sg14
F60
sg15
F80
sg16
F95
sg17
F80
sg18
F30
ssg19
F10
sg20
g21
sg22
(lp476
S'grass'
p477
aS'bug'
p478
asg26
I47
sbsI48
(ipokeStructs
Pokemon_dex
p479
(dp480
g4
(lp481
S'tinted-lens'
p482
aS'compoundeyes'
p483
aS'run-away'
p484
asg8
S'Venonat'
p485
sg10
F300
sg11
(dp486
g13
F40
sg14
F60
sg15
F55
sg16
F55
sg17
F50
sg18
F45
ssg19
F10
sg20
g21
sg22
(lp487
S'bug'
p488
aS'poison'
p489
asg26
I48
sbsI49
(ipokeStructs
Pokemon_dex
p490
(dp491
g4
(lp492
S'tinted-lens'
p493
aS'shield-dust'
p494
aS'wonder-skin'
p495
asg8
S'Venomoth'
p496
sg10
F125
sg11
(dp497
g13
F90
sg14
F70
sg15
F75
sg16
F65
sg17
F60
sg18
F90
ssg19
F15
sg20
g21
sg22
(lp498
S'bug'
p499
aS'poison'
p500
asg26
I49
sbsI50
(ipokeStructs
Pokemon_dex
p501
(dp502
g4
(lp503
S'sand-veil'
p504
aS'arena-trap'
p505
aS'sand-force'
p506
asg8
S'Diglett'
p507
sg10
F8
sg11
(dp508
g13
F35
sg14
F10
sg15
F45
sg16
F55
sg17
F25
sg18
F95
ssg19
F2
sg20
g21
sg22
(lp509
S'ground'
p510
asg26
I50
sbsI51
(ipokeStructs
Pokemon_dex
p511
(dp512
g4
(lp513
S'sand-veil'
p514
aS'arena-trap'
p515
aS'sand-force'
p516
asg8
S'Dugtrio'
p517
sg10
F333
sg11
(dp518
g13
F50
sg14
F35
sg15
F70
sg16
F80
sg17
F50
sg18
F120
ssg19
F7
sg20
g21
sg22
(lp519
S'ground'
p520
asg26
I51
sbsI52
(ipokeStructs
Pokemon_dex
p521
(dp522
g4
(lp523
S'technician'
p524
aS'pickup'
p525
aS'unnerve'
p526
asg8
S'Meowth'
p527
sg10
F42
sg11
(dp528
g13
F40
sg14
F40
sg15
F40
sg16
F45
sg17
F35
sg18
F90
ssg19
F4
sg20
g21
sg22
(lp529
S'normal'
p530
asg26
I52
sbsI53
(ipokeStructs
Pokemon_dex
p531
(dp532
g4
(lp533
S'technician'
p534
aS'unnerve'
p535
aS'limber'
p536
asg8
S'Persian'
p537
sg10
F320
sg11
(dp538
g13
F65
sg14
F65
sg15
F65
sg16
F70
sg17
F60
sg18
F115
ssg19
F10
sg20
g21
sg22
(lp539
S'normal'
p540
asg26
I53
sbsI54
(ipokeStructs
Pokemon_dex
p541
(dp542
g4
(lp543
S'swift-swim'
p544
aS'damp'
p545
aS'cloud-nine'
p546
asg8
S'Psyduck'
p547
sg10
F196
sg11
(dp548
g13
F65
sg14
F50
sg15
F50
sg16
F52
sg17
F48
sg18
F55
ssg19
F8
sg20
g21
sg22
(lp549
S'water'
p550
asg26
I54
sbsI55
(ipokeStructs
Pokemon_dex
p551
(dp552
g4
(lp553
S'swift-swim'
p554
aS'damp'
p555
aS'cloud-nine'
p556
asg8
S'Golduck'
p557
sg10
F766
sg11
(dp558
g13
F95
sg14
F80
sg15
F80
sg16
F82
sg17
F78
sg18
F85
ssg19
F17
sg20
g21
sg22
(lp559
S'water'
p560
asg26
I55
sbsI56
(ipokeStructs
Pokemon_dex
p561
(dp562
g4
(lp563
S'anger-point'
p564
aS'vital-spirit'
p565
aS'defiant'
p566
asg8
S'Mankey'
p567
sg10
F280
sg11
(dp568
g13
F35
sg14
F40
sg15
F45
sg16
F80
sg17
F35
sg18
F70
ssg19
F5
sg20
g21
sg22
(lp569
S'fighting'
p570
asg26
I56
sbsI57
(ipokeStructs
Pokemon_dex
p571
(dp572
g4
(lp573
S'anger-point'
p574
aS'vital-spirit'
p575
aS'defiant'
p576
asg8
S'Primeape'
p577
sg10
F320
sg11
(dp578
g13
F60
sg14
F65
sg15
F70
sg16
F105
sg17
F60
sg18
F95
ssg19
F10
sg20
g21
sg22
(lp579
S'fighting'
p580
asg26
I57
sbsI58
(ipokeStructs
Pokemon_dex
p581
(dp582
g4
(lp583
S'intimidate'
p584
aS'flash-fire'
p585
aS'justified'
p586
asg8
S'Growlithe'
p587
sg10
F190
sg11
(dp588
g13
F70
sg14
F55
sg15
F50
sg16
F70
sg17
F45
sg18
F60
ssg19
F7
sg20
g21
sg22
(lp589
S'fire'
p590
asg26
I58
sbsI59
(ipokeStructs
Pokemon_dex
p591
(dp592
g4
(lp593
S'intimidate'
p594
aS'flash-fire'
p595
aS'justified'
p596
asg8
S'Arcanine'
p597
sg10
F1550
sg11
(dp598
g13
F100
sg14
F90
sg15
F80
sg16
F110
sg17
F80
sg18
F95
ssg19
F19
sg20
g21
sg22
(lp599
S'fire'
p600
asg26
I59
sbsI60
(ipokeStructs
Pokemon_dex
p601
(dp602
g4
(lp603
S'swift-swim'
p604
aS'water-absorb'
p605
aS'damp'
p606
asg8
S'Poliwag'
p607
sg10
F124
sg11
(dp608
g13
F40
sg14
F40
sg15
F40
sg16
F50
sg17
F40
sg18
F90
ssg19
F6
sg20
g21
sg22
(lp609
S'water'
p610
asg26
I60
sbsI61
(ipokeStructs
Pokemon_dex
p611
(dp612
g4
(lp613
S'swift-swim'
p614
aS'water-absorb'
p615
aS'damp'
p616
asg8
S'Poliwhirl'
p617
sg10
F200
sg11
(dp618
g13
F50
sg14
F65
sg15
F50
sg16
F65
sg17
F65
sg18
F90
ssg19
F10
sg20
g21
sg22
(lp619
S'water'
p620
asg26
I61
sbsI62
(ipokeStructs
Pokemon_dex
p621
(dp622
g4
(lp623
S'swift-swim'
p624
aS'water-absorb'
p625
aS'damp'
p626
asg8
S'Poliwrath'
p627
sg10
F540
sg11
(dp628
g13
F70
sg14
F90
sg15
F90
sg16
F95
sg17
F95
sg18
F70
ssg19
F13
sg20
g21
sg22
(lp629
S'water'
p630
aS'fighting'
p631
asg26
I62
sbsI63
(ipokeStructs
Pokemon_dex
p632
(dp633
g4
(lp634
S'inner-focus'
p635
aS'synchronize'
p636
aS'magic-guard'
p637
asg8
S'Abra'
p638
sg10
F195
sg11
(dp639
g13
F105
sg14
F25
sg15
F55
sg16
F20
sg17
F15
sg18
F90
ssg19
F9
sg20
g21
sg22
(lp640
S'psychic'
p641
asg26
I63
sbsI64
(ipokeStructs
Pokemon_dex
p642
(dp643
g4
(lp644
S'inner-focus'
p645
aS'synchronize'
p646
aS'magic-guard'
p647
asg8
S'Kadabra'
p648
sg10
F565
sg11
(dp649
g13
F120
sg14
F40
sg15
F70
sg16
F35
sg17
F30
sg18
F105
ssg19
F13
sg20
g21
sg22
(lp650
S'psychic'
p651
asg26
I64
sbsI65
(ipokeStructs
Pokemon_dex
p652
(dp653
g4
(lp654
S'inner-focus'
p655
aS'synchronize'
p656
aS'magic-guard'
p657
asg8
S'Alakazam'
p658
sg10
F480
sg11
(dp659
g13
F135
sg14
F55
sg15
F95
sg16
F50
sg17
F45
sg18
F120
ssg19
F15
sg20
g21
sg22
(lp660
S'psychic'
p661
asg26
I65
sbsI66
(ipokeStructs
Pokemon_dex
p662
(dp663
g4
(lp664
S'guts'
p665
aS'no-guard'
p666
aS'steadfast'
p667
asg8
S'Machop'
p668
sg10
F195
sg11
(dp669
g13
F35
sg14
F70
sg15
F35
sg16
F80
sg17
F50
sg18
F35
ssg19
F8
sg20
g21
sg22
(lp670
S'fighting'
p671
asg26
I66
sbsI67
(ipokeStructs
Pokemon_dex
p672
(dp673
g4
(lp674
S'guts'
p675
aS'no-guard'
p676
aS'steadfast'
p677
asg8
S'Machoke'
p678
sg10
F705
sg11
(dp679
g13
F50
sg14
F80
sg15
F60
sg16
F100
sg17
F70
sg18
F45
ssg19
F15
sg20
g21
sg22
(lp680
S'fighting'
p681
asg26
I67
sbsI68
(ipokeStructs
Pokemon_dex
p682
(dp683
g4
(lp684
S'guts'
p685
aS'no-guard'
p686
aS'steadfast'
p687
asg8
S'Machamp'
p688
sg10
F1300
sg11
(dp689
g13
F65
sg14
F90
sg15
F85
sg16
F130
sg17
F80
sg18
F55
ssg19
F16
sg20
g21
sg22
(lp690
S'fighting'
p691
asg26
I68
sbsI69
(ipokeStructs
Pokemon_dex
p692
(dp693
g4
(lp694
S'gluttony'
p695
aS'chlorophyll'
p696
asg8
S'Bellsprout'
p697
sg10
F40
sg11
(dp698
g13
F70
sg14
F50
sg15
F30
sg16
F75
sg17
F35
sg18
F40
ssg19
F7
sg20
g21
sg22
(lp699
S'grass'
p700
aS'poison'
p701
asg26
I69
sbsI70
(ipokeStructs
Pokemon_dex
p702
(dp703
g4
(lp704
S'gluttony'
p705
aS'chlorophyll'
p706
asg8
S'Weepinbell'
p707
sg10
F64
sg11
(dp708
g13
F85
sg14
F65
sg15
F45
sg16
F90
sg17
F50
sg18
F55
ssg19
F10
sg20
g21
sg22
(lp709
S'grass'
p710
aS'poison'
p711
asg26
I70
sbsI71
(ipokeStructs
Pokemon_dex
p712
(dp713
g4
(lp714
S'gluttony'
p715
aS'chlorophyll'
p716
asg8
S'Victreebel'
p717
sg10
F155
sg11
(dp718
g13
F100
sg14
F80
sg15
F70
sg16
F105
sg17
F65
sg18
F70
ssg19
F17
sg20
g21
sg22
(lp719
S'grass'
p720
aS'poison'
p721
asg26
I71
sbsI72
(ipokeStructs
Pokemon_dex
p722
(dp723
g4
(lp724
S'rain-dish'
p725
aS'liquid-ooze'
p726
aS'clear-body'
p727
asg8
S'Tentacool'
p728
sg10
F455
sg11
(dp729
g13
F50
sg14
F40
sg15
F100
sg16
F40
sg17
F35
sg18
F70
ssg19
F9
sg20
g21
sg22
(lp730
S'water'
p731
aS'poison'
p732
asg26
I72
sbsI73
(ipokeStructs
Pokemon_dex
p733
(dp734
g4
(lp735
S'rain-dish'
p736
aS'liquid-ooze'
p737
aS'clear-body'
p738
asg8
S'Tentacruel'
p739
sg10
F550
sg11
(dp740
g13
F80
sg14
F80
sg15
F120
sg16
F70
sg17
F65
sg18
F100
ssg19
F16
sg20
g21
sg22
(lp741
S'water'
p742
aS'poison'
p743
asg26
I73
sbsI74
(ipokeStructs
Pokemon_dex
p744
(dp745
g4
(lp746
S'sand-veil'
p747
aS'rock-head'
p748
aS'sturdy'
p749
asg8
S'Geodude'
p750
sg10
F200
sg11
(dp751
g13
F30
sg14
F40
sg15
F30
sg16
F80
sg17
F100
sg18
F20
ssg19
F4
sg20
g21
sg22
(lp752
S'rock'
p753
aS'ground'
p754
asg26
I74
sbsI75
(ipokeStructs
Pokemon_dex
p755
(dp756
g4
(lp757
S'sand-veil'
p758
aS'rock-head'
p759
aS'sturdy'
p760
asg8
S'Graveler'
p761
sg10
F1050
sg11
(dp762
g13
F45
sg14
F55
sg15
F45
sg16
F95
sg17
F115
sg18
F35
ssg19
F10
sg20
g21
sg22
(lp763
S'rock'
p764
aS'ground'
p765
asg26
I75
sbsI76
(ipokeStructs
Pokemon_dex
p766
(dp767
g4
(lp768
S'sand-veil'
p769
aS'rock-head'
p770
aS'sturdy'
p771
asg8
S'Golem'
p772
sg10
F3000
sg11
(dp773
g13
F55
sg14
F80
sg15
F65
sg16
F120
sg17
F130
sg18
F45
ssg19
F14
sg20
g21
sg22
(lp774
S'rock'
p775
aS'ground'
p776
asg26
I76
sbsI77
(ipokeStructs
Pokemon_dex
p777
(dp778
g4
(lp779
S'flame-body'
p780
aS'flash-fire'
p781
aS'run-away'
p782
asg8
S'Ponyta'
p783
sg10
F300
sg11
(dp784
g13
F65
sg14
F50
sg15
F65
sg16
F85
sg17
F55
sg18
F90
ssg19
F10
sg20
g21
sg22
(lp785
S'fire'
p786
asg26
I77
sbsI78
(ipokeStructs
Pokemon_dex
p787
(dp788
g4
(lp789
S'flame-body'
p790
aS'flash-fire'
p791
aS'run-away'
p792
asg8
S'Rapidash'
p793
sg10
F950
sg11
(dp794
g13
F80
sg14
F65
sg15
F80
sg16
F100
sg17
F70
sg18
F105
ssg19
F17
sg20
g21
sg22
(lp795
S'fire'
p796
asg26
I78
sbsI79
(ipokeStructs
Pokemon_dex
p797
(dp798
g4
(lp799
S'oblivious'
p800
aS'regenerator'
p801
aS'own-tempo'
p802
asg8
S'Slowpoke'
p803
sg10
F360
sg11
(dp804
g13
F40
sg14
F90
sg15
F40
sg16
F65
sg17
F65
sg18
F15
ssg19
F12
sg20
g21
sg22
(lp805
S'water'
p806
aS'psychic'
p807
asg26
I79
sbsI80
(ipokeStructs
Pokemon_dex
p808
(dp809
g4
(lp810
S'oblivious'
p811
aS'regenerator'
p812
aS'own-tempo'
p813
asg8
S'Slowbro'
p814
sg10
F785
sg11
(dp815
g13
F100
sg14
F95
sg15
F80
sg16
F75
sg17
F110
sg18
F30
ssg19
F16
sg20
g21
sg22
(lp816
S'water'
p817
aS'psychic'
p818
asg26
I80
sbsI81
(ipokeStructs
Pokemon_dex
p819
(dp820
g4
(lp821
S'magnet-pull'
p822
aS'analytic'
p823
aS'sturdy'
p824
asg8
S'Magnemite'
p825
sg10
F60
sg11
(dp826
g13
F95
sg14
F25
sg15
F55
sg16
F35
sg17
F70
sg18
F45
ssg19
F3
sg20
g21
sg22
(lp827
S'steel'
p828
aS'electric'
p829
asg26
I81
sbsI82
(ipokeStructs
Pokemon_dex
p830
(dp831
g4
(lp832
S'magnet-pull'
p833
aS'analytic'
p834
aS'sturdy'
p835
asg8
S'Magneton'
p836
sg10
F600
sg11
(dp837
g13
F120
sg14
F50
sg15
F70
sg16
F60
sg17
F95
sg18
F70
ssg19
F10
sg20
g21
sg22
(lp838
S'steel'
p839
aS'electric'
p840
asg26
I82
sbsI83
(ipokeStructs
Pokemon_dex
p841
(dp842
g4
(lp843
S'inner-focus'
p844
aS'keen-eye'
p845
aS'defiant'
p846
asg8
S'Farfetchd'
p847
sg10
F150
sg11
(dp848
g13
F58
sg14
F52
sg15
F62
sg16
F65
sg17
F55
sg18
F60
ssg19
F8
sg20
g21
sg22
(lp849
S'flying'
p850
aS'normal'
p851
asg26
I83
sbsI84
(ipokeStructs
Pokemon_dex
p852
(dp853
g4
(lp854
S'early-bird'
p855
aS'tangled-feet'
p856
aS'run-away'
p857
asg8
S'Doduo'
p858
sg10
F392
sg11
(dp859
g13
F35
sg14
F35
sg15
F35
sg16
F85
sg17
F45
sg18
F75
ssg19
F14
sg20
g21
sg22
(lp860
S'flying'
p861
aS'normal'
p862
asg26
I84
sbsI85
(ipokeStructs
Pokemon_dex
p863
(dp864
g4
(lp865
S'early-bird'
p866
aS'tangled-feet'
p867
aS'run-away'
p868
asg8
S'Dodrio'
p869
sg10
F852
sg11
(dp870
g13
F60
sg14
F60
sg15
F60
sg16
F110
sg17
F70
sg18
F100
ssg19
F18
sg20
g21
sg22
(lp871
S'flying'
p872
aS'normal'
p873
asg26
I85
sbsI86
(ipokeStructs
Pokemon_dex
p874
(dp875
g4
(lp876
S'hydration'
p877
aS'thick-fat'
p878
aS'ice-body'
p879
asg8
S'Seel'
p880
sg10
F900
sg11
(dp881
g13
F45
sg14
F65
sg15
F70
sg16
F45
sg17
F55
sg18
F45
ssg19
F11
sg20
g21
sg22
(lp882
S'water'
p883
asg26
I86
sbsI87
(ipokeStructs
Pokemon_dex
p884
(dp885
g4
(lp886
S'hydration'
p887
aS'thick-fat'
p888
aS'ice-body'
p889
asg8
S'Dewgong'
p890
sg10
F1200
sg11
(dp891
g13
F70
sg14
F90
sg15
F95
sg16
F70
sg17
F80
sg18
F70
ssg19
F17
sg20
g21
sg22
(lp892
S'water'
p893
aS'ice'
p894
asg26
I87
sbsI88
(ipokeStructs
Pokemon_dex
p895
(dp896
g4
(lp897
S'sticky-hold'
p898
aS'poison-touch'
p899
aS'stench'
p900
asg8
S'Grimer'
p901
sg10
F300
sg11
(dp902
g13
F40
sg14
F80
sg15
F50
sg16
F80
sg17
F50
sg18
F25
ssg19
F9
sg20
g21
sg22
(lp903
S'poison'
p904
asg26
I88
sbsI89
(ipokeStructs
Pokemon_dex
p905
(dp906
g4
(lp907
S'sticky-hold'
p908
aS'poison-touch'
p909
aS'stench'
p910
asg8
S'Muk'
p911
sg10
F300
sg11
(dp912
g13
F65
sg14
F105
sg15
F100
sg16
F105
sg17
F75
sg18
F50
ssg19
F12
sg20
g21
sg22
(lp913
S'poison'
p914
asg26
I89
sbsI90
(ipokeStructs
Pokemon_dex
p915
(dp916
g4
(lp917
S'skill-link'
p918
aS'overcoat'
p919
aS'shell-armor'
p920
asg8
S'Shellder'
p921
sg10
F40
sg11
(dp922
g13
F45
sg14
F30
sg15
F25
sg16
F65
sg17
F100
sg18
F40
ssg19
F3
sg20
g21
sg22
(lp923
S'water'
p924
asg26
I90
sbsI91
(ipokeStructs
Pokemon_dex
p925
(dp926
g4
(lp927
S'skill-link'
p928
aS'overcoat'
p929
aS'shell-armor'
p930
asg8
S'Cloyster'
p931
sg10
F1325
sg11
(dp932
g13
F85
sg14
F50
sg15
F45
sg16
F95
sg17
F180
sg18
F70
ssg19
F15
sg20
g21
sg22
(lp933
S'water'
p934
aS'ice'
p935
asg26
I91
sbsI92
(ipokeStructs
Pokemon_dex
p936
(dp937
g4
(lp938
S'levitate'
p939
asg8
S'Gastly'
p940
sg10
F1
sg11
(dp941
g13
F100
sg14
F30
sg15
F35
sg16
F35
sg17
F30
sg18
F80
ssg19
F13
sg20
g21
sg22
(lp942
S'ghost'
p943
aS'poison'
p944
asg26
I92
sbsI93
(ipokeStructs
Pokemon_dex
p945
(dp946
g4
(lp947
S'levitate'
p948
asg8
S'Haunter'
p949
sg10
F1
sg11
(dp950
g13
F115
sg14
F45
sg15
F55
sg16
F50
sg17
F45
sg18
F95
ssg19
F16
sg20
g21
sg22
(lp951
S'ghost'
p952
aS'poison'
p953
asg26
I93
sbsI94
(ipokeStructs
Pokemon_dex
p954
(dp955
g4
(lp956
S'levitate'
p957
asg8
S'Gengar'
p958
sg10
F405
sg11
(dp959
g13
F130
sg14
F60
sg15
F75
sg16
F65
sg17
F60
sg18
F110
ssg19
F15
sg20
g21
sg22
(lp960
S'ghost'
p961
aS'poison'
p962
asg26
I94
sbsI95
(ipokeStructs
Pokemon_dex
p963
(dp964
g4
(lp965
S'weak-armor'
p966
aS'rock-head'
p967
aS'sturdy'
p968
asg8
S'Onix'
p969
sg10
F2100
sg11
(dp970
g13
F30
sg14
F35
sg15
F45
sg16
F45
sg17
F160
sg18
F70
ssg19
F88
sg20
g21
sg22
(lp971
S'rock'
p972
aS'ground'
p973
asg26
I95
sbsI96
(ipokeStructs
Pokemon_dex
p974
(dp975
g4
(lp976
S'inner-focus'
p977
aS'forewarn'
p978
aS'insomnia'
p979
asg8
S'Drowzee'
p980
sg10
F324
sg11
(dp981
g13
F43
sg14
F60
sg15
F90
sg16
F48
sg17
F45
sg18
F42
ssg19
F10
sg20
g21
sg22
(lp982
S'psychic'
p983
asg26
I96
sbsI97
(ipokeStructs
Pokemon_dex
p984
(dp985
g4
(lp986
S'inner-focus'
p987
aS'forewarn'
p988
aS'insomnia'
p989
asg8
S'Hypno'
p990
sg10
F756
sg11
(dp991
g13
F73
sg14
F85
sg15
F115
sg16
F73
sg17
F70
sg18
F67
ssg19
F16
sg20
g21
sg22
(lp992
S'psychic'
p993
asg26
I97
sbsI98
(ipokeStructs
Pokemon_dex
p994
(dp995
g4
(lp996
S'sheer-force'
p997
aS'hyper-cutter'
p998
aS'shell-armor'
p999
asg8
S'Krabby'
p1000
sg10
F65
sg11
(dp1001
g13
F25
sg14
F30
sg15
F25
sg16
F105
sg17
F90
sg18
F50
ssg19
F4
sg20
g21
sg22
(lp1002
S'water'
p1003
asg26
I98
sbsI99
(ipokeStructs
Pokemon_dex
p1004
(dp1005
g4
(lp1006
S'sheer-force'
p1007
aS'hyper-cutter'
p1008
aS'shell-armor'
p1009
asg8
S'Kingler'
p1010
sg10
F600
sg11
(dp1011
g13
F50
sg14
F55
sg15
F50
sg16
F130
sg17
F115
sg18
F75
ssg19
F13
sg20
g21
sg22
(lp1012
S'water'
p1013
asg26
I99
sbsI100
(ipokeStructs
Pokemon_dex
p1014
(dp1015
g4
(lp1016
S'aftermath'
p1017
aS'static'
p1018
aS'soundproof'
p1019
asg8
S'Voltorb'
p1020
sg10
F104
sg11
(dp1021
g13
F55
sg14
F40
sg15
F55
sg16
F30
sg17
F50
sg18
F100
ssg19
F5
sg20
g21
sg22
(lp1022
S'electric'
p1023
asg26
I100
sbsI101
(ipokeStructs
Pokemon_dex
p1024
(dp1025
g4
(lp1026
S'aftermath'
p1027
aS'static'
p1028
aS'soundproof'
p1029
asg8
S'Electrode'
p1030
sg10
F666
sg11
(dp1031
g13
F80
sg14
F60
sg15
F80
sg16
F50
sg17
F70
sg18
F140
ssg19
F12
sg20
g21
sg22
(lp1032
S'electric'
p1033
asg26
I101
sbsI102
(ipokeStructs
Pokemon_dex
p1034
(dp1035
g4
(lp1036
S'chlorophyll'
p1037
aS'harvest'
p1038
asg8
S'Exeggcute'
p1039
sg10
F25
sg11
(dp1040
g13
F60
sg14
F60
sg15
F45
sg16
F40
sg17
F80
sg18
F40
ssg19
F4
sg20
g21
sg22
(lp1041
S'psychic'
p1042
aS'grass'
p1043
asg26
I102
sbsI103
(ipokeStructs
Pokemon_dex
p1044
(dp1045
g4
(lp1046
S'chlorophyll'
p1047
aS'harvest'
p1048
asg8
S'Exeggutor'
p1049
sg10
F1200
sg11
(dp1050
g13
F125
sg14
F95
sg15
F65
sg16
F95
sg17
F85
sg18
F55
ssg19
F20
sg20
g21
sg22
(lp1051
S'psychic'
p1052
aS'grass'
p1053
asg26
I103
sbsI104
(ipokeStructs
Pokemon_dex
p1054
(dp1055
g4
(lp1056
S'battle-armor'
p1057
aS'rock-head'
p1058
aS'lightningrod'
p1059
asg8
S'Cubone'
p1060
sg10
F65
sg11
(dp1061
g13
F40
sg14
F50
sg15
F50
sg16
F50
sg17
F95
sg18
F35
ssg19
F4
sg20
g21
sg22
(lp1062
S'ground'
p1063
asg26
I104
sbsI105
(ipokeStructs
Pokemon_dex
p1064
(dp1065
g4
(lp1066
S'battle-armor'
p1067
aS'rock-head'
p1068
aS'lightningrod'
p1069
asg8
S'Marowak'
p1070
sg10
F450
sg11
(dp1071
g13
F50
sg14
F60
sg15
F80
sg16
F80
sg17
F110
sg18
F45
ssg19
F10
sg20
g21
sg22
(lp1072
S'ground'
p1073
asg26
I105
sbsI106
(ipokeStructs
Pokemon_dex
p1074
(dp1075
g4
(lp1076
S'unburden'
p1077
aS'reckless'
p1078
aS'limber'
p1079
asg8
S'Hitmonlee'
p1080
sg10
F498
sg11
(dp1081
g13
F35
sg14
F50
sg15
F110
sg16
F120
sg17
F53
sg18
F87
ssg19
F15
sg20
g21
sg22
(lp1082
S'fighting'
p1083
asg26
I106
sbsI107
(ipokeStructs
Pokemon_dex
p1084
(dp1085
g4
(lp1086
S'inner-focus'
p1087
aS'iron-fist'
p1088
aS'keen-eye'
p1089
asg8
S'Hitmonchan'
p1090
sg10
F502
sg11
(dp1091
g13
F35
sg14
F50
sg15
F110
sg16
F105
sg17
F79
sg18
F76
ssg19
F14
sg20
g21
sg22
(lp1092
S'fighting'
p1093
asg26
I107
sbsI108
(ipokeStructs
Pokemon_dex
p1094
(dp1095
g4
(lp1096
S'oblivious'
p1097
aS'cloud-nine'
p1098
aS'own-tempo'
p1099
asg8
S'Lickitung'
p1100
sg10
F655
sg11
(dp1101
g13
F60
sg14
F90
sg15
F75
sg16
F55
sg17
F75
sg18
F30
ssg19
F12
sg20
g21
sg22
(lp1102
S'normal'
p1103
asg26
I108
sbsI109
(ipokeStructs
Pokemon_dex
p1104
(dp1105
g4
(lp1106
S'levitate'
p1107
asg8
S'Koffing'
p1108
sg10
F10
sg11
(dp1109
g13
F60
sg14
F40
sg15
F45
sg16
F65
sg17
F95
sg18
F35
ssg19
F6
sg20
g21
sg22
(lp1110
S'poison'
p1111
asg26
I109
sbsI110
(ipokeStructs
Pokemon_dex
p1112
(dp1113
g4
(lp1114
S'levitate'
p1115
asg8
S'Weezing'
p1116
sg10
F95
sg11
(dp1117
g13
F85
sg14
F65
sg15
F70
sg16
F90
sg17
F120
sg18
F60
ssg19
F12
sg20
g21
sg22
(lp1118
S'poison'
p1119
asg26
I110
sbsI111
(ipokeStructs
Pokemon_dex
p1120
(dp1121
g4
(lp1122
S'rock-head'
p1123
aS'lightningrod'
p1124
aS'reckless'
p1125
asg8
S'Rhyhorn'
p1126
sg10
F1150
sg11
(dp1127
g13
F30
sg14
F80
sg15
F30
sg16
F85
sg17
F95
sg18
F25
ssg19
F10
sg20
g21
sg22
(lp1128
S'rock'
p1129
aS'ground'
p1130
asg26
I111
sbsI112
(ipokeStructs
Pokemon_dex
p1131
(dp1132
g4
(lp1133
S'rock-head'
p1134
aS'lightningrod'
p1135
aS'reckless'
p1136
asg8
S'Rhydon'
p1137
sg10
F1200
sg11
(dp1138
g13
F45
sg14
F105
sg15
F45
sg16
F130
sg17
F120
sg18
F40
ssg19
F19
sg20
g21
sg22
(lp1139
S'rock'
p1140
aS'ground'
p1141
asg26
I112
sbsI113
(ipokeStructs
Pokemon_dex
p1142
(dp1143
g4
(lp1144
S'healer'
p1145
aS'serene-grace'
p1146
aS'natural-cure'
p1147
asg8
S'Chansey'
p1148
sg10
F346
sg11
(dp1149
g13
F35
sg14
F250
sg15
F105
sg16
F5
sg17
F5
sg18
F50
ssg19
F11
sg20
g21
sg22
(lp1150
S'normal'
p1151
asg26
I113
sbsI114
(ipokeStructs
Pokemon_dex
p1152
(dp1153
g4
(lp1154
S'regenerator'
p1155
aS'chlorophyll'
p1156
aS'leaf-guard'
p1157
asg8
S'Tangela'
p1158
sg10
F350
sg11
(dp1159
g13
F100
sg14
F65
sg15
F40
sg16
F55
sg17
F115
sg18
F60
ssg19
F10
sg20
g21
sg22
(lp1160
S'grass'
p1161
asg26
I114
sbsI115
(ipokeStructs
Pokemon_dex
p1162
(dp1163
g4
(lp1164
S'inner-focus'
p1165
aS'early-bird'
p1166
aS'scrappy'
p1167
asg8
S'Kangaskhan'
p1168
sg10
F800
sg11
(dp1169
g13
F40
sg14
F105
sg15
F80
sg16
F95
sg17
F80
sg18
F90
ssg19
F22
sg20
g21
sg22
(lp1170
S'normal'
p1171
asg26
I115
sbsI116
(ipokeStructs
Pokemon_dex
p1172
(dp1173
g4
(lp1174
S'swift-swim'
p1175
aS'damp'
p1176
aS'sniper'
p1177
asg8
S'Horsea'
p1178
sg10
F80
sg11
(dp1179
g13
F70
sg14
F30
sg15
F25
sg16
F40
sg17
F70
sg18
F60
ssg19
F4
sg20
g21
sg22
(lp1180
S'water'
p1181
asg26
I116
sbsI117
(ipokeStructs
Pokemon_dex
p1182
(dp1183
g4
(lp1184
S'poison-point'
p1185
aS'damp'
p1186
aS'sniper'
p1187
asg8
S'Seadra'
p1188
sg10
F250
sg11
(dp1189
g13
F95
sg14
F55
sg15
F45
sg16
F65
sg17
F95
sg18
F85
ssg19
F12
sg20
g21
sg22
(lp1190
S'water'
p1191
asg26
I117
sbsI118
(ipokeStructs
Pokemon_dex
p1192
(dp1193
g4
(lp1194
S'swift-swim'
p1195
aS'water-veil'
p1196
aS'lightningrod'
p1197
asg8
S'Goldeen'
p1198
sg10
F150
sg11
(dp1199
g13
F35
sg14
F45
sg15
F50
sg16
F67
sg17
F60
sg18
F63
ssg19
F6
sg20
g21
sg22
(lp1200
S'water'
p1201
asg26
I118
sbsI119
(ipokeStructs
Pokemon_dex
p1202
(dp1203
g4
(lp1204
S'swift-swim'
p1205
aS'water-veil'
p1206
aS'lightningrod'
p1207
asg8
S'Seaking'
p1208
sg10
F390
sg11
(dp1209
g13
F65
sg14
F80
sg15
F80
sg16
F92
sg17
F65
sg18
F68
ssg19
F13
sg20
g21
sg22
(lp1210
S'water'
p1211
asg26
I119
sbsI120
(ipokeStructs
Pokemon_dex
p1212
(dp1213
g4
(lp1214
S'analytic'
p1215
aS'illuminate'
p1216
aS'natural-cure'
p1217
asg8
S'Staryu'
p1218
sg10
F345
sg11
(dp1219
g13
F70
sg14
F30
sg15
F55
sg16
F45
sg17
F55
sg18
F85
ssg19
F8
sg20
g21
sg22
(lp1220
S'water'
p1221
asg26
I120
sbsI121
(ipokeStructs
Pokemon_dex
p1222
(dp1223
g4
(lp1224
S'analytic'
p1225
aS'illuminate'
p1226
aS'natural-cure'
p1227
asg8
S'Starmie'
p1228
sg10
F800
sg11
(dp1229
g13
F100
sg14
F60
sg15
F85
sg16
F75
sg17
F85
sg18
F115
ssg19
F11
sg20
g21
sg22
(lp1230
S'water'
p1231
aS'psychic'
p1232
asg26
I121
sbsI122
(ipokeStructs
Pokemon_dex
p1233
(dp1234
g4
(lp1235
S'technician'
p1236
aS'filter'
p1237
aS'soundproof'
p1238
asg8
S'Mr-mime'
p1239
sg10
F545
sg11
(dp1240
g13
F100
sg14
F40
sg15
F120
sg16
F45
sg17
F65
sg18
F90
ssg19
F13
sg20
g21
sg22
(lp1241
S'fairy'
p1242
aS'psychic'
p1243
asg26
I122
sbsI123
(ipokeStructs
Pokemon_dex
p1244
(dp1245
g4
(lp1246
S'technician'
p1247
aS'swarm'
p1248
aS'steadfast'
p1249
asg8
S'Scyther'
p1250
sg10
F560
sg11
(dp1251
g13
F55
sg14
F70
sg15
F80
sg16
F110
sg17
F80
sg18
F105
ssg19
F15
sg20
g21
sg22
(lp1252
S'flying'
p1253
aS'bug'
p1254
asg26
I123
sbsI124
(ipokeStructs
Pokemon_dex
p1255
(dp1256
g4
(lp1257
S'oblivious'
p1258
aS'forewarn'
p1259
aS'dry-skin'
p1260
asg8
S'Jynx'
p1261
sg10
F406
sg11
(dp1262
g13
F115
sg14
F65
sg15
F95
sg16
F50
sg17
F35
sg18
F95
ssg19
F14
sg20
g21
sg22
(lp1263
S'psychic'
p1264
aS'ice'
p1265
asg26
I124
sbsI125
(ipokeStructs
Pokemon_dex
p1266
(dp1267
g4
(lp1268
S'vital-spirit'
p1269
aS'static'
p1270
asg8
S'Electabuzz'
p1271
sg10
F300
sg11
(dp1272
g13
F95
sg14
F65
sg15
F85
sg16
F83
sg17
F57
sg18
F105
ssg19
F11
sg20
g21
sg22
(lp1273
S'electric'
p1274
asg26
I125
sbsI126
(ipokeStructs
Pokemon_dex
p1275
(dp1276
g4
(lp1277
S'flame-body'
p1278
aS'vital-spirit'
p1279
asg8
S'Magmar'
p1280
sg10
F445
sg11
(dp1281
g13
F100
sg14
F65
sg15
F85
sg16
F95
sg17
F57
sg18
F93
ssg19
F13
sg20
g21
sg22
(lp1282
S'fire'
p1283
asg26
I126
sbsI127
(ipokeStructs
Pokemon_dex
p1284
(dp1285
g4
(lp1286
S'moxie'
p1287
aS'mold-breaker'
p1288
aS'hyper-cutter'
p1289
asg8
S'Pinsir'
p1290
sg10
F550
sg11
(dp1291
g13
F55
sg14
F65
sg15
F70
sg16
F125
sg17
F100
sg18
F85
ssg19
F15
sg20
g21
sg22
(lp1292
S'bug'
p1293
asg26
I127
sbsI128
(ipokeStructs
Pokemon_dex
p1294
(dp1295
g4
(lp1296
S'intimidate'
p1297
aS'sheer-force'
p1298
aS'anger-point'
p1299
asg8
S'Tauros'
p1300
sg10
F884
sg11
(dp1301
g13
F40
sg14
F75
sg15
F70
sg16
F100
sg17
F95
sg18
F110
ssg19
F14
sg20
g21
sg22
(lp1302
S'normal'
p1303
asg26
I128
sbsI129
(ipokeStructs
Pokemon_dex
p1304
(dp1305
g4
(lp1306
S'swift-swim'
p1307
aS'rattled'
p1308
asg8
S'Magikarp'
p1309
sg10
F100
sg11
(dp1310
g13
F15
sg14
F20
sg15
F20
sg16
F10
sg17
F55
sg18
F80
ssg19
F9
sg20
g21
sg22
(lp1311
S'water'
p1312
asg26
I129
sbsI130
(ipokeStructs
Pokemon_dex
p1313
(dp1314
g4
(lp1315
S'intimidate'
p1316
aS'moxie'
p1317
asg8
S'Gyarados'
p1318
sg10
F2350
sg11
(dp1319
g13
F60
sg14
F95
sg15
F100
sg16
F125
sg17
F79
sg18
F81
ssg19
F65
sg20
g21
sg22
(lp1320
S'water'
p1321
aS'flying'
p1322
asg26
I130
sbsI131
(ipokeStructs
Pokemon_dex
p1323
(dp1324
g4
(lp1325
S'water-absorb'
p1326
aS'hydration'
p1327
aS'shell-armor'
p1328
asg8
S'Lapras'
p1329
sg10
F2200
sg11
(dp1330
g13
F85
sg14
F130
sg15
F95
sg16
F85
sg17
F80
sg18
F60
ssg19
F25
sg20
g21
sg22
(lp1331
S'water'
p1332
aS'ice'
p1333
asg26
I131
sbsI132
(ipokeStructs
Pokemon_dex
p1334
(dp1335
g4
(lp1336
S'imposter'
p1337
aS'limber'
p1338
asg8
S'Ditto'
p1339
sg10
F40
sg11
(dp1340
g13
F48
sg14
F48
sg15
F48
sg16
F48
sg17
F48
sg18
F48
ssg19
F3
sg20
g21
sg22
(lp1341
S'normal'
p1342
asg26
I132
sbsI133
(ipokeStructs
Pokemon_dex
p1343
(dp1344
g4
(lp1345
S'anticipation'
p1346
aS'adaptability'
p1347
aS'run-away'
p1348
asg8
S'Eevee'
p1349
sg10
F65
sg11
(dp1350
g13
F45
sg14
F55
sg15
F65
sg16
F55
sg17
F50
sg18
F55
ssg19
F3
sg20
g21
sg22
(lp1351
S'normal'
p1352
asg26
I133
sbsI134
(ipokeStructs
Pokemon_dex
p1353
(dp1354
g4
(lp1355
S'water-absorb'
p1356
aS'hydration'
p1357
asg8
S'Vaporeon'
p1358
sg10
F290
sg11
(dp1359
g13
F110
sg14
F130
sg15
F95
sg16
F65
sg17
F60
sg18
F65
ssg19
F10
sg20
g21
sg22
(lp1360
S'water'
p1361
asg26
I134
sbsI135
(ipokeStructs
Pokemon_dex
p1362
(dp1363
g4
(lp1364
S'quick-feet'
p1365
aS'volt-absorb'
p1366
asg8
S'Jolteon'
p1367
sg10
F245
sg11
(dp1368
g13
F110
sg14
F65
sg15
F95
sg16
F65
sg17
F60
sg18
F130
ssg19
F8
sg20
g21
sg22
(lp1369
S'electric'
p1370
asg26
I135
sbsI136
(ipokeStructs
Pokemon_dex
p1371
(dp1372
g4
(lp1373
S'flash-fire'
p1374
aS'guts'
p1375
asg8
S'Flareon'
p1376
sg10
F250
sg11
(dp1377
g13
F95
sg14
F65
sg15
F110
sg16
F130
sg17
F60
sg18
F65
ssg19
F9
sg20
g21
sg22
(lp1378
S'fire'
p1379
asg26
I136
sbsI137
(ipokeStructs
Pokemon_dex
p1380
(dp1381
g4
(lp1382
S'download'
p1383
aS'analytic'
p1384
aS'trace'
p1385
asg8
S'Porygon'
p1386
sg10
F365
sg11
(dp1387
g13
F85
sg14
F65
sg15
F75
sg16
F60
sg17
F70
sg18
F40
ssg19
F8
sg20
g21
sg22
(lp1388
S'normal'
p1389
asg26
I137
sbsI138
(ipokeStructs
Pokemon_dex
p1390
(dp1391
g4
(lp1392
S'swift-swim'
p1393
aS'weak-armor'
p1394
aS'shell-armor'
p1395
asg8
S'Omanyte'
p1396
sg10
F75
sg11
(dp1397
g13
F90
sg14
F35
sg15
F55
sg16
F40
sg17
F100
sg18
F35
ssg19
F4
sg20
g21
sg22
(lp1398
S'water'
p1399
aS'rock'
p1400
asg26
I138
sbsI139
(ipokeStructs
Pokemon_dex
p1401
(dp1402
g4
(lp1403
S'swift-swim'
p1404
aS'weak-armor'
p1405
aS'shell-armor'
p1406
asg8
S'Omastar'
p1407
sg10
F350
sg11
(dp1408
g13
F115
sg14
F70
sg15
F70
sg16
F60
sg17
F125
sg18
F55
ssg19
F10
sg20
g21
sg22
(lp1409
S'water'
p1410
aS'rock'
p1411
asg26
I139
sbsI140
(ipokeStructs
Pokemon_dex
p1412
(dp1413
g4
(lp1414
S'battle-armor'
p1415
aS'swift-swim'
p1416
aS'weak-armor'
p1417
asg8
S'Kabuto'
p1418
sg10
F115
sg11
(dp1419
g13
F55
sg14
F30
sg15
F45
sg16
F80
sg17
F90
sg18
F55
ssg19
F5
sg20
g21
sg22
(lp1420
S'water'
p1421
aS'rock'
p1422
asg26
I140
sbsI141
(ipokeStructs
Pokemon_dex
p1423
(dp1424
g4
(lp1425
S'battle-armor'
p1426
aS'swift-swim'
p1427
aS'weak-armor'
p1428
asg8
S'Kabutops'
p1429
sg10
F405
sg11
(dp1430
g13
F65
sg14
F60
sg15
F70
sg16
F115
sg17
F105
sg18
F80
ssg19
F13
sg20
g21
sg22
(lp1431
S'water'
p1432
aS'rock'
p1433
asg26
I141
sbsI142
(ipokeStructs
Pokemon_dex
p1434
(dp1435
g4
(lp1436
S'pressure'
p1437
aS'rock-head'
p1438
aS'unnerve'
p1439
asg8
S'Aerodactyl'
p1440
sg10
F590
sg11
(dp1441
g13
F60
sg14
F80
sg15
F75
sg16
F105
sg17
F65
sg18
F130
ssg19
F18
sg20
g21
sg22
(lp1442
S'flying'
p1443
aS'rock'
p1444
asg26
I142
sbsI143
(ipokeStructs
Pokemon_dex
p1445
(dp1446
g4
(lp1447
S'gluttony'
p1448
aS'thick-fat'
p1449
aS'immunity'
p1450
asg8
S'Snorlax'
p1451
sg10
F4600
sg11
(dp1452
g13
F65
sg14
F160
sg15
F110
sg16
F110
sg17
F65
sg18
F30
ssg19
F21
sg20
g21
sg22
(lp1453
S'normal'
p1454
asg26
I143
sbsI144
(ipokeStructs
Pokemon_dex
p1455
(dp1456
g4
(lp1457
S'pressure'
p1458
aS'snow-cloak'
p1459
asg8
S'Articuno'
p1460
sg10
F554
sg11
(dp1461
g13
F95
sg14
F90
sg15
F125
sg16
F85
sg17
F100
sg18
F85
ssg19
F17
sg20
g21
sg22
(lp1462
S'flying'
p1463
aS'ice'
p1464
asg26
I144
sbsI145
(ipokeStructs
Pokemon_dex
p1465
(dp1466
g4
(lp1467
S'pressure'
p1468
aS'lightningrod'
p1469
asg8
S'Zapdos'
p1470
sg10
F526
sg11
(dp1471
g13
F125
sg14
F90
sg15
F90
sg16
F90
sg17
F85
sg18
F100
ssg19
F16
sg20
g21
sg22
(lp1472
S'flying'
p1473
aS'electric'
p1474
asg26
I145
sbsI146
(ipokeStructs
Pokemon_dex
p1475
(dp1476
g4
(lp1477
S'flame-body'
p1478
aS'pressure'
p1479
asg8
S'Moltres'
p1480
sg10
F600
sg11
(dp1481
g13
F125
sg14
F90
sg15
F85
sg16
F100
sg17
F90
sg18
F90
ssg19
F20
sg20
g21
sg22
(lp1482
S'fire'
p1483
aS'flying'
p1484
asg26
I146
sbsI147
(ipokeStructs
Pokemon_dex
p1485
(dp1486
g4
(lp1487
S'shed-skin'
p1488
aS'marvel-scale'
p1489
asg8
S'Dratini'
p1490
sg10
F33
sg11
(dp1491
g13
F50
sg14
F41
sg15
F50
sg16
F64
sg17
F45
sg18
F50
ssg19
F18
sg20
g21
sg22
(lp1492
S'dragon'
p1493
asg26
I147
sbsI148
(ipokeStructs
Pokemon_dex
p1494
(dp1495
g4
(lp1496
S'shed-skin'
p1497
aS'marvel-scale'
p1498
asg8
S'Dragonair'
p1499
sg10
F165
sg11
(dp1500
g13
F70
sg14
F61
sg15
F70
sg16
F84
sg17
F65
sg18
F70
ssg19
F40
sg20
g21
sg22
(lp1501
S'dragon'
p1502
asg26
I148
sbsI149
(ipokeStructs
Pokemon_dex
p1503
(dp1504
g4
(lp1505
S'inner-focus'
p1506
aS'multiscale'
p1507
asg8
S'Dragonite'
p1508
sg10
F2100
sg11
(dp1509
g13
F100
sg14
F91
sg15
F100
sg16
F134
sg17
F95
sg18
F80
ssg19
F22
sg20
g21
sg22
(lp1510
S'flying'
p1511
aS'dragon'
p1512
asg26
I149
sbsI150
(ipokeStructs
Pokemon_dex
p1513
(dp1514
g4
(lp1515
S'pressure'
p1516
aS'unnerve'
p1517
asg8
S'Mewtwo'
p1518
sg10
F1220
sg11
(dp1519
g13
F154
sg14
F106
sg15
F90
sg16
F110
sg17
F90
sg18
F130
ssg19
F20
sg20
g21
sg22
(lp1520
S'psychic'
p1521
asg26
I150
sbsI151
(ipokeStructs
Pokemon_dex
p1522
(dp1523
g4
(lp1524
S'synchronize'
p1525
asg8
S'Mew'
p1526
sg10
F40
sg11
(dp1527
g13
F100
sg14
F100
sg15
F100
sg16
F100
sg17
F100
sg18
F100
ssg19
F4
sg20
g21
sg22
(lp1528
S'psychic'
p1529
asg26
I151
sbsI152
(ipokeStructs
Pokemon_dex
p1530
(dp1531
g4
(lp1532
S'leaf-guard'
p1533
aS'overgrow'
p1534
asg8
S'Chikorita'
p1535
sg10
F64
sg11
(dp1536
g13
F49
sg14
F45
sg15
F65
sg16
F49
sg17
F65
sg18
F45
ssg19
F9
sg20
g21
sg22
(lp1537
S'grass'
p1538
asg26
I152
sbsI153
(ipokeStructs
Pokemon_dex
p1539
(dp1540
g4
(lp1541
S'leaf-guard'
p1542
aS'overgrow'
p1543
asg8
S'Bayleef'
p1544
sg10
F158
sg11
(dp1545
g13
F63
sg14
F60
sg15
F80
sg16
F62
sg17
F80
sg18
F60
ssg19
F12
sg20
g21
sg22
(lp1546
S'grass'
p1547
asg26
I153
sbsI154
(ipokeStructs
Pokemon_dex
p1548
(dp1549
g4
(lp1550
S'leaf-guard'
p1551
aS'overgrow'
p1552
asg8
S'Meganium'
p1553
sg10
F1005
sg11
(dp1554
g13
F83
sg14
F80
sg15
F100
sg16
F82
sg17
F100
sg18
F80
ssg19
F18
sg20
g21
sg22
(lp1555
S'grass'
p1556
asg26
I154
sbsI155
(ipokeStructs
Pokemon_dex
p1557
(dp1558
g4
(lp1559
S'flash-fire'
p1560
aS'blaze'
p1561
asg8
S'Cyndaquil'
p1562
sg10
F79
sg11
(dp1563
g13
F60
sg14
F39
sg15
F50
sg16
F52
sg17
F43
sg18
F65
ssg19
F5
sg20
g21
sg22
(lp1564
S'fire'
p1565
asg26
I155
sbsI156
(ipokeStructs
Pokemon_dex
p1566
(dp1567
g4
(lp1568
S'flash-fire'
p1569
aS'blaze'
p1570
asg8
S'Quilava'
p1571
sg10
F190
sg11
(dp1572
g13
F80
sg14
F58
sg15
F65
sg16
F64
sg17
F58
sg18
F80
ssg19
F9
sg20
g21
sg22
(lp1573
S'fire'
p1574
asg26
I156
sbsI157
(ipokeStructs
Pokemon_dex
p1575
(dp1576
g4
(lp1577
S'flash-fire'
p1578
aS'blaze'
p1579
asg8
S'Typhlosion'
p1580
sg10
F795
sg11
(dp1581
g13
F109
sg14
F78
sg15
F85
sg16
F84
sg17
F78
sg18
F100
ssg19
F17
sg20
g21
sg22
(lp1582
S'fire'
p1583
asg26
I157
sbsI158
(ipokeStructs
Pokemon_dex
p1584
(dp1585
g4
(lp1586
S'sheer-force'
p1587
aS'torrent'
p1588
asg8
S'Totodile'
p1589
sg10
F95
sg11
(dp1590
g13
F44
sg14
F50
sg15
F48
sg16
F65
sg17
F64
sg18
F43
ssg19
F6
sg20
g21
sg22
(lp1591
S'water'
p1592
asg26
I158
sbsI159
(ipokeStructs
Pokemon_dex
p1593
(dp1594
g4
(lp1595
S'sheer-force'
p1596
aS'torrent'
p1597
asg8
S'Croconaw'
p1598
sg10
F250
sg11
(dp1599
g13
F59
sg14
F65
sg15
F63
sg16
F80
sg17
F80
sg18
F58
ssg19
F11
sg20
g21
sg22
(lp1600
S'water'
p1601
asg26
I159
sbsI160
(ipokeStructs
Pokemon_dex
p1602
(dp1603
g4
(lp1604
S'sheer-force'
p1605
aS'torrent'
p1606
asg8
S'Feraligatr'
p1607
sg10
F888
sg11
(dp1608
g13
F79
sg14
F85
sg15
F83
sg16
F105
sg17
F100
sg18
F78
ssg19
F23
sg20
g21
sg22
(lp1609
S'water'
p1610
asg26
I160
sbsI161
(ipokeStructs
Pokemon_dex
p1611
(dp1612
g4
(lp1613
S'frisk'
p1614
aS'keen-eye'
p1615
aS'run-away'
p1616
asg8
S'Sentret'
p1617
sg10
F60
sg11
(dp1618
g13
F35
sg14
F35
sg15
F45
sg16
F46
sg17
F34
sg18
F20
ssg19
F8
sg20
g21
sg22
(lp1619
S'normal'
p1620
asg26
I161
sbsI162
(ipokeStructs
Pokemon_dex
p1621
(dp1622
g4
(lp1623
S'frisk'
p1624
aS'keen-eye'
p1625
aS'run-away'
p1626
asg8
S'Furret'
p1627
sg10
F325
sg11
(dp1628
g13
F45
sg14
F85
sg15
F55
sg16
F76
sg17
F64
sg18
F90
ssg19
F18
sg20
g21
sg22
(lp1629
S'normal'
p1630
asg26
I162
sbsI163
(ipokeStructs
Pokemon_dex
p1631
(dp1632
g4
(lp1633
S'tinted-lens'
p1634
aS'insomnia'
p1635
aS'keen-eye'
p1636
asg8
S'Hoothoot'
p1637
sg10
F212
sg11
(dp1638
g13
F36
sg14
F60
sg15
F56
sg16
F30
sg17
F30
sg18
F50
ssg19
F7
sg20
g21
sg22
(lp1639
S'flying'
p1640
aS'normal'
p1641
asg26
I163
sbsI164
(ipokeStructs
Pokemon_dex
p1642
(dp1643
g4
(lp1644
S'tinted-lens'
p1645
aS'insomnia'
p1646
aS'keen-eye'
p1647
asg8
S'Noctowl'
p1648
sg10
F408
sg11
(dp1649
g13
F76
sg14
F100
sg15
F96
sg16
F50
sg17
F50
sg18
F70
ssg19
F16
sg20
g21
sg22
(lp1650
S'flying'
p1651
aS'normal'
p1652
asg26
I164
sbsI165
(ipokeStructs
Pokemon_dex
p1653
(dp1654
g4
(lp1655
S'early-bird'
p1656
aS'rattled'
p1657
aS'swarm'
p1658
asg8
S'Ledyba'
p1659
sg10
F108
sg11
(dp1660
g13
F40
sg14
F40
sg15
F80
sg16
F20
sg17
F30
sg18
F55
ssg19
F10
sg20
g21
sg22
(lp1661
S'flying'
p1662
aS'bug'
p1663
asg26
I165
sbsI166
(ipokeStructs
Pokemon_dex
p1664
(dp1665
g4
(lp1666
S'iron-fist'
p1667
aS'early-bird'
p1668
aS'swarm'
p1669
asg8
S'Ledian'
p1670
sg10
F356
sg11
(dp1671
g13
F55
sg14
F55
sg15
F110
sg16
F35
sg17
F50
sg18
F85
ssg19
F14
sg20
g21
sg22
(lp1672
S'flying'
p1673
aS'bug'
p1674
asg26
I166
sbsI167
(ipokeStructs
Pokemon_dex
p1675
(dp1676
g4
(lp1677
S'swarm'
p1678
aS'insomnia'
p1679
aS'sniper'
p1680
asg8
S'Spinarak'
p1681
sg10
F85
sg11
(dp1682
g13
F40
sg14
F40
sg15
F40
sg16
F60
sg17
F40
sg18
F30
ssg19
F5
sg20
g21
sg22
(lp1683
S'bug'
p1684
aS'poison'
p1685
asg26
I167
sbsI168
(ipokeStructs
Pokemon_dex
p1686
(dp1687
g4
(lp1688
S'swarm'
p1689
aS'insomnia'
p1690
aS'sniper'
p1691
asg8
S'Ariados'
p1692
sg10
F335
sg11
(dp1693
g13
F60
sg14
F70
sg15
F60
sg16
F90
sg17
F70
sg18
F40
ssg19
F11
sg20
g21
sg22
(lp1694
S'bug'
p1695
aS'poison'
p1696
asg26
I168
sbsI169
(ipokeStructs
Pokemon_dex
p1697
(dp1698
g4
(lp1699
S'inner-focus'
p1700
aS'infiltrator'
p1701
asg8
S'Crobat'
p1702
sg10
F750
sg11
(dp1703
g13
F70
sg14
F85
sg15
F80
sg16
F90
sg17
F80
sg18
F130
ssg19
F18
sg20
g21
sg22
(lp1704
S'flying'
p1705
aS'poison'
p1706
asg26
I169
sbsI170
(ipokeStructs
Pokemon_dex
p1707
(dp1708
g4
(lp1709
S'water-absorb'
p1710
aS'illuminate'
p1711
aS'volt-absorb'
p1712
asg8
S'Chinchou'
p1713
sg10
F120
sg11
(dp1714
g13
F56
sg14
F75
sg15
F56
sg16
F38
sg17
F38
sg18
F67
ssg19
F5
sg20
g21
sg22
(lp1715
S'water'
p1716
aS'electric'
p1717
asg26
I170
sbsI171
(ipokeStructs
Pokemon_dex
p1718
(dp1719
g4
(lp1720
S'water-absorb'
p1721
aS'illuminate'
p1722
aS'volt-absorb'
p1723
asg8
S'Lanturn'
p1724
sg10
F225
sg11
(dp1725
g13
F76
sg14
F125
sg15
F76
sg16
F58
sg17
F58
sg18
F67
ssg19
F12
sg20
g21
sg22
(lp1726
S'water'
p1727
aS'electric'
p1728
asg26
I171
sbsI172
(ipokeStructs
Pokemon_dex
p1729
(dp1730
g4
(lp1731
S'static'
p1732
aS'lightningrod'
p1733
asg8
S'Pichu'
p1734
sg10
F20
sg11
(dp1735
g13
F35
sg14
F20
sg15
F35
sg16
F40
sg17
F15
sg18
F60
ssg19
F3
sg20
g21
sg22
(lp1736
S'electric'
p1737
asg26
I172
sbsI173
(ipokeStructs
Pokemon_dex
p1738
(dp1739
g4
(lp1740
S'friend-guard'
p1741
aS'magic-guard'
p1742
aS'cute-charm'
p1743
asg8
S'Cleffa'
p1744
sg10
F30
sg11
(dp1745
g13
F45
sg14
F50
sg15
F55
sg16
F25
sg17
F28
sg18
F15
ssg19
F3
sg20
g21
sg22
(lp1746
S'fairy'
p1747
asg26
I173
sbsI174
(ipokeStructs
Pokemon_dex
p1748
(dp1749
g4
(lp1750
S'friend-guard'
p1751
aS'cute-charm'
p1752
asg8
S'Igglybuff'
p1753
sg10
F10
sg11
(dp1754
g13
F40
sg14
F90
sg15
F20
sg16
F30
sg17
F15
sg18
F15
ssg19
F3
sg20
g21
sg22
(lp1755
S'fairy'
p1756
aS'normal'
p1757
asg26
I174
sbsI175
(ipokeStructs
Pokemon_dex
p1758
(dp1759
g4
(lp1760
S'super-luck'
p1761
aS'hustle'
p1762
aS'serene-grace'
p1763
asg8
S'Togepi'
p1764
sg10
F15
sg11
(dp1765
g13
F40
sg14
F35
sg15
F65
sg16
F20
sg17
F65
sg18
F20
ssg19
F3
sg20
g21
sg22
(lp1766
S'fairy'
p1767
asg26
I175
sbsI176
(ipokeStructs
Pokemon_dex
p1768
(dp1769
g4
(lp1770
S'super-luck'
p1771
aS'hustle'
p1772
aS'serene-grace'
p1773
asg8
S'Togetic'
p1774
sg10
F32
sg11
(dp1775
g13
F80
sg14
F55
sg15
F105
sg16
F40
sg17
F85
sg18
F40
ssg19
F6
sg20
g21
sg22
(lp1776
S'fairy'
p1777
aS'flying'
p1778
asg26
I176
sbsI177
(ipokeStructs
Pokemon_dex
p1779
(dp1780
g4
(lp1781
S'synchronize'
p1782
aS'magic-bounce'
p1783
aS'early-bird'
p1784
asg8
S'Natu'
p1785
sg10
F20
sg11
(dp1786
g13
F70
sg14
F40
sg15
F45
sg16
F50
sg17
F45
sg18
F70
ssg19
F2
sg20
g21
sg22
(lp1787
S'psychic'
p1788
aS'flying'
p1789
asg26
I177
sbsI178
(ipokeStructs
Pokemon_dex
p1790
(dp1791
g4
(lp1792
S'synchronize'
p1793
aS'magic-bounce'
p1794
aS'early-bird'
p1795
asg8
S'Xatu'
p1796
sg10
F150
sg11
(dp1797
g13
F95
sg14
F65
sg15
F70
sg16
F75
sg17
F70
sg18
F95
ssg19
F15
sg20
g21
sg22
(lp1798
S'psychic'
p1799
aS'flying'
p1800
asg26
I178
sbsI179
(ipokeStructs
Pokemon_dex
p1801
(dp1802
g4
(lp1803
S'plus'
p1804
aS'static'
p1805
asg8
S'Mareep'
p1806
sg10
F78
sg11
(dp1807
g13
F65
sg14
F55
sg15
F45
sg16
F40
sg17
F40
sg18
F35
ssg19
F6
sg20
g21
sg22
(lp1808
S'electric'
p1809
asg26
I179
sbsI180
(ipokeStructs
Pokemon_dex
p1810
(dp1811
g4
(lp1812
S'plus'
p1813
aS'static'
p1814
asg8
S'Flaaffy'
p1815
sg10
F133
sg11
(dp1816
g13
F80
sg14
F70
sg15
F60
sg16
F55
sg17
F55
sg18
F45
ssg19
F8
sg20
g21
sg22
(lp1817
S'electric'
p1818
asg26
I180
sbsI181
(ipokeStructs
Pokemon_dex
p1819
(dp1820
g4
(lp1821
S'plus'
p1822
aS'static'
p1823
asg8
S'Ampharos'
p1824
sg10
F615
sg11
(dp1825
g13
F115
sg14
F90
sg15
F90
sg16
F75
sg17
F85
sg18
F55
ssg19
F14
sg20
g21
sg22
(lp1826
S'electric'
p1827
asg26
I181
sbsI182
(ipokeStructs
Pokemon_dex
p1828
(dp1829
g4
(lp1830
S'healer'
p1831
aS'chlorophyll'
p1832
asg8
S'Bellossom'
p1833
sg10
F58
sg11
(dp1834
g13
F90
sg14
F75
sg15
F100
sg16
F80
sg17
F95
sg18
F50
ssg19
F4
sg20
g21
sg22
(lp1835
S'grass'
p1836
asg26
I182
sbsI183
(ipokeStructs
Pokemon_dex
p1837
(dp1838
g4
(lp1839
S'thick-fat'
p1840
aS'sap-sipper'
p1841
aS'huge-power'
p1842
asg8
S'Marill'
p1843
sg10
F85
sg11
(dp1844
g13
F20
sg14
F70
sg15
F50
sg16
F20
sg17
F50
sg18
F40
ssg19
F4
sg20
g21
sg22
(lp1845
S'water'
p1846
aS'fairy'
p1847
asg26
I183
sbsI184
(ipokeStructs
Pokemon_dex
p1848
(dp1849
g4
(lp1850
S'thick-fat'
p1851
aS'sap-sipper'
p1852
aS'huge-power'
p1853
asg8
S'Azumarill'
p1854
sg10
F285
sg11
(dp1855
g13
F60
sg14
F100
sg15
F80
sg16
F50
sg17
F80
sg18
F50
ssg19
F8
sg20
g21
sg22
(lp1856
S'water'
p1857
aS'fairy'
p1858
asg26
I184
sbsI185
(ipokeStructs
Pokemon_dex
p1859
(dp1860
g4
(lp1861
S'rattled'
p1862
aS'rock-head'
p1863
aS'sturdy'
p1864
asg8
S'Sudowoodo'
p1865
sg10
F380
sg11
(dp1866
g13
F30
sg14
F70
sg15
F65
sg16
F100
sg17
F115
sg18
F30
ssg19
F12
sg20
g21
sg22
(lp1867
S'rock'
p1868
asg26
I185
sbsI186
(ipokeStructs
Pokemon_dex
p1869
(dp1870
g4
(lp1871
S'water-absorb'
p1872
aS'damp'
p1873
aS'drizzle'
p1874
asg8
S'Politoed'
p1875
sg10
F339
sg11
(dp1876
g13
F90
sg14
F90
sg15
F100
sg16
F75
sg17
F75
sg18
F70
ssg19
F11
sg20
g21
sg22
(lp1877
S'water'
p1878
asg26
I186
sbsI187
(ipokeStructs
Pokemon_dex
p1879
(dp1880
g4
(lp1881
S'chlorophyll'
p1882
aS'leaf-guard'
p1883
aS'infiltrator'
p1884
asg8
S'Hoppip'
p1885
sg10
F5
sg11
(dp1886
g13
F35
sg14
F35
sg15
F55
sg16
F35
sg17
F40
sg18
F50
ssg19
F4
sg20
g21
sg22
(lp1887
S'flying'
p1888
aS'grass'
p1889
asg26
I187
sbsI188
(ipokeStructs
Pokemon_dex
p1890
(dp1891
g4
(lp1892
S'chlorophyll'
p1893
aS'leaf-guard'
p1894
aS'infiltrator'
p1895
asg8
S'Skiploom'
p1896
sg10
F10
sg11
(dp1897
g13
F45
sg14
F55
sg15
F65
sg16
F45
sg17
F50
sg18
F80
ssg19
F6
sg20
g21
sg22
(lp1898
S'flying'
p1899
aS'grass'
p1900
asg26
I188
sbsI189
(ipokeStructs
Pokemon_dex
p1901
(dp1902
g4
(lp1903
S'chlorophyll'
p1904
aS'leaf-guard'
p1905
aS'infiltrator'
p1906
asg8
S'Jumpluff'
p1907
sg10
F30
sg11
(dp1908
g13
F55
sg14
F75
sg15
F95
sg16
F55
sg17
F70
sg18
F110
ssg19
F8
sg20
g21
sg22
(lp1909
S'flying'
p1910
aS'grass'
p1911
asg26
I189
sbsI190
(ipokeStructs
Pokemon_dex
p1912
(dp1913
g4
(lp1914
S'pickup'
p1915
aS'skill-link'
p1916
aS'run-away'
p1917
asg8
S'Aipom'
p1918
sg10
F115
sg11
(dp1919
g13
F40
sg14
F55
sg15
F55
sg16
F70
sg17
F55
sg18
F85
ssg19
F8
sg20
g21
sg22
(lp1920
S'normal'
p1921
asg26
I190
sbsI191
(ipokeStructs
Pokemon_dex
p1922
(dp1923
g4
(lp1924
S'early-bird'
p1925
aS'chlorophyll'
p1926
aS'solar-power'
p1927
asg8
S'Sunkern'
p1928
sg10
F18
sg11
(dp1929
g13
F30
sg14
F30
sg15
F30
sg16
F30
sg17
F30
sg18
F30
ssg19
F3
sg20
g21
sg22
(lp1930
S'grass'
p1931
asg26
I191
sbsI192
(ipokeStructs
Pokemon_dex
p1932
(dp1933
g4
(lp1934
S'early-bird'
p1935
aS'chlorophyll'
p1936
aS'solar-power'
p1937
asg8
S'Sunflora'
p1938
sg10
F85
sg11
(dp1939
g13
F105
sg14
F75
sg15
F85
sg16
F75
sg17
F55
sg18
F30
ssg19
F8
sg20
g21
sg22
(lp1940
S'grass'
p1941
asg26
I192
sbsI193
(ipokeStructs
Pokemon_dex
p1942
(dp1943
g4
(lp1944
S'speed-boost'
p1945
aS'compoundeyes'
p1946
aS'frisk'
p1947
asg8
S'Yanma'
p1948
sg10
F380
sg11
(dp1949
g13
F75
sg14
F65
sg15
F45
sg16
F65
sg17
F45
sg18
F95
ssg19
F12
sg20
g21
sg22
(lp1950
S'flying'
p1951
aS'bug'
p1952
asg26
I193
sbsI194
(ipokeStructs
Pokemon_dex
p1953
(dp1954
g4
(lp1955
S'water-absorb'
p1956
aS'damp'
p1957
aS'unaware'
p1958
asg8
S'Wooper'
p1959
sg10
F85
sg11
(dp1960
g13
F25
sg14
F55
sg15
F25
sg16
F45
sg17
F45
sg18
F15
ssg19
F4
sg20
g21
sg22
(lp1961
S'water'
p1962
aS'ground'
p1963
asg26
I194
sbsI195
(ipokeStructs
Pokemon_dex
p1964
(dp1965
g4
(lp1966
S'water-absorb'
p1967
aS'damp'
p1968
aS'unaware'
p1969
asg8
S'Quagsire'
p1970
sg10
F750
sg11
(dp1971
g13
F65
sg14
F95
sg15
F65
sg16
F85
sg17
F85
sg18
F35
ssg19
F14
sg20
g21
sg22
(lp1972
S'water'
p1973
aS'ground'
p1974
asg26
I195
sbsI196
(ipokeStructs
Pokemon_dex
p1975
(dp1976
g4
(lp1977
S'synchronize'
p1978
aS'magic-bounce'
p1979
asg8
S'Espeon'
p1980
sg10
F265
sg11
(dp1981
g13
F130
sg14
F65
sg15
F95
sg16
F65
sg17
F60
sg18
F110
ssg19
F9
sg20
g21
sg22
(lp1982
S'psychic'
p1983
asg26
I196
sbsI197
(ipokeStructs
Pokemon_dex
p1984
(dp1985
g4
(lp1986
S'inner-focus'
p1987
aS'synchronize'
p1988
asg8
S'Umbreon'
p1989
sg10
F270
sg11
(dp1990
g13
F60
sg14
F95
sg15
F130
sg16
F65
sg17
F110
sg18
F65
ssg19
F10
sg20
g21
sg22
(lp1991
S'dark'
p1992
asg26
I197
sbsI198
(ipokeStructs
Pokemon_dex
p1993
(dp1994
g4
(lp1995
S'super-luck'
p1996
aS'insomnia'
p1997
aS'prankster'
p1998
asg8
S'Murkrow'
p1999
sg10
F21
sg11
(dp2000
g13
F85
sg14
F60
sg15
F42
sg16
F85
sg17
F42
sg18
F91
ssg19
F5
sg20
g21
sg22
(lp2001
S'dark'
p2002
aS'flying'
p2003
asg26
I198
sbsI199
(ipokeStructs
Pokemon_dex
p2004
(dp2005
g4
(lp2006
S'oblivious'
p2007
aS'regenerator'
p2008
aS'own-tempo'
p2009
asg8
S'Slowking'
p2010
sg10
F795
sg11
(dp2011
g13
F100
sg14
F95
sg15
F110
sg16
F75
sg17
F80
sg18
F30
ssg19
F20
sg20
g21
sg22
(lp2012
S'water'
p2013
aS'psychic'
p2014
asg26
I199
sbsI200
(ipokeStructs
Pokemon_dex
p2015
(dp2016
g4
(lp2017
S'levitate'
p2018
asg8
S'Misdreavus'
p2019
sg10
F10
sg11
(dp2020
g13
F85
sg14
F60
sg15
F85
sg16
F60
sg17
F60
sg18
F85
ssg19
F7
sg20
g21
sg22
(lp2021
S'ghost'
p2022
asg26
I200
sbsI201
(ipokeStructs
Pokemon_dex
p2023
(dp2024
g4
(lp2025
S'levitate'
p2026
asg8
S'Unown'
p2027
sg10
F50
sg11
(dp2028
g13
F72
sg14
F48
sg15
F48
sg16
F72
sg17
F48
sg18
F48
ssg19
F5
sg20
g21
sg22
(lp2029
S'psychic'
p2030
asg26
I201
sbsI202
(ipokeStructs
Pokemon_dex
p2031
(dp2032
g4
(lp2033
S'shadow-tag'
p2034
aS'telepathy'
p2035
asg8
S'Wobbuffet'
p2036
sg10
F285
sg11
(dp2037
g13
F33
sg14
F190
sg15
F58
sg16
F33
sg17
F58
sg18
F33
ssg19
F13
sg20
g21
sg22
(lp2038
S'psychic'
p2039
asg26
I202
sbsI203
(ipokeStructs
Pokemon_dex
p2040
(dp2041
g4
(lp2042
S'inner-focus'
p2043
aS'early-bird'
p2044
aS'sap-sipper'
p2045
asg8
S'Girafarig'
p2046
sg10
F415
sg11
(dp2047
g13
F90
sg14
F70
sg15
F65
sg16
F80
sg17
F65
sg18
F85
ssg19
F15
sg20
g21
sg22
(lp2048
S'psychic'
p2049
aS'normal'
p2050
asg26
I203
sbsI204
(ipokeStructs
Pokemon_dex
p2051
(dp2052
g4
(lp2053
S'overcoat'
p2054
aS'sturdy'
p2055
asg8
S'Pineco'
p2056
sg10
F72
sg11
(dp2057
g13
F35
sg14
F50
sg15
F35
sg16
F65
sg17
F90
sg18
F15
ssg19
F6
sg20
g21
sg22
(lp2058
S'bug'
p2059
asg26
I204
sbsI205
(ipokeStructs
Pokemon_dex
p2060
(dp2061
g4
(lp2062
S'overcoat'
p2063
aS'sturdy'
p2064
asg8
S'Forretress'
p2065
sg10
F1258
sg11
(dp2066
g13
F60
sg14
F75
sg15
F60
sg16
F90
sg17
F140
sg18
F40
ssg19
F12
sg20
g21
sg22
(lp2067
S'steel'
p2068
aS'bug'
p2069
asg26
I205
sbsI206
(ipokeStructs
Pokemon_dex
p2070
(dp2071
g4
(lp2072
S'rattled'
p2073
aS'run-away'
p2074
aS'serene-grace'
p2075
asg8
S'Dunsparce'
p2076
sg10
F140
sg11
(dp2077
g13
F65
sg14
F100
sg15
F65
sg16
F70
sg17
F70
sg18
F45
ssg19
F15
sg20
g21
sg22
(lp2078
S'normal'
p2079
asg26
I206
sbsI207
(ipokeStructs
Pokemon_dex
p2080
(dp2081
g4
(lp2082
S'sand-veil'
p2083
aS'hyper-cutter'
p2084
aS'immunity'
p2085
asg8
S'Gligar'
p2086
sg10
F648
sg11
(dp2087
g13
F35
sg14
F65
sg15
F65
sg16
F75
sg17
F105
sg18
F85
ssg19
F11
sg20
g21
sg22
(lp2088
S'flying'
p2089
aS'ground'
p2090
asg26
I207
sbsI208
(ipokeStructs
Pokemon_dex
p2091
(dp2092
g4
(lp2093
S'sheer-force'
p2094
aS'rock-head'
p2095
aS'sturdy'
p2096
asg8
S'Steelix'
p2097
sg10
F4000
sg11
(dp2098
g13
F55
sg14
F75
sg15
F65
sg16
F85
sg17
F200
sg18
F30
ssg19
F92
sg20
g21
sg22
(lp2099
S'steel'
p2100
aS'ground'
p2101
asg26
I208
sbsI209
(ipokeStructs
Pokemon_dex
p2102
(dp2103
g4
(lp2104
S'intimidate'
p2105
aS'rattled'
p2106
aS'run-away'
p2107
asg8
S'Snubbull'
p2108
sg10
F78
sg11
(dp2109
g13
F40
sg14
F60
sg15
F40
sg16
F80
sg17
F50
sg18
F30
ssg19
F6
sg20
g21
sg22
(lp2110
S'fairy'
p2111
asg26
I209
sbsI210
(ipokeStructs
Pokemon_dex
p2112
(dp2113
g4
(lp2114
S'intimidate'
p2115
aS'quick-feet'
p2116
aS'rattled'
p2117
asg8
S'Granbull'
p2118
sg10
F487
sg11
(dp2119
g13
F60
sg14
F90
sg15
F60
sg16
F120
sg17
F75
sg18
F45
ssg19
F14
sg20
g21
sg22
(lp2120
S'fairy'
p2121
asg26
I210
sbsI211
(ipokeStructs
Pokemon_dex
p2122
(dp2123
g4
(lp2124
S'intimidate'
p2125
aS'swift-swim'
p2126
aS'poison-point'
p2127
asg8
S'Qwilfish'
p2128
sg10
F39
sg11
(dp2129
g13
F55
sg14
F65
sg15
F55
sg16
F95
sg17
F75
sg18
F85
ssg19
F5
sg20
g21
sg22
(lp2130
S'water'
p2131
aS'poison'
p2132
asg26
I211
sbsI212
(ipokeStructs
Pokemon_dex
p2133
(dp2134
g4
(lp2135
S'technician'
p2136
aS'swarm'
p2137
aS'light-metal'
p2138
asg8
S'Scizor'
p2139
sg10
F1180
sg11
(dp2140
g13
F55
sg14
F70
sg15
F80
sg16
F130
sg17
F100
sg18
F65
ssg19
F18
sg20
g21
sg22
(lp2141
S'steel'
p2142
aS'bug'
p2143
asg26
I212
sbsI213
(ipokeStructs
Pokemon_dex
p2144
(dp2145
g4
(lp2146
S'gluttony'
p2147
aS'contrary'
p2148
aS'sturdy'
p2149
asg8
S'Shuckle'
p2150
sg10
F205
sg11
(dp2151
g13
F10
sg14
F20
sg15
F230
sg16
F10
sg17
F230
sg18
F5
ssg19
F6
sg20
g21
sg22
(lp2152
S'bug'
p2153
aS'rock'
p2154
asg26
I213
sbsI214
(ipokeStructs
Pokemon_dex
p2155
(dp2156
g4
(lp2157
S'swarm'
p2158
aS'moxie'
p2159
aS'guts'
p2160
asg8
S'Heracross'
p2161
sg10
F540
sg11
(dp2162
g13
F40
sg14
F80
sg15
F95
sg16
F125
sg17
F75
sg18
F85
ssg19
F15
sg20
g21
sg22
(lp2163
S'bug'
p2164
aS'fighting'
p2165
asg26
I214
sbsI215
(ipokeStructs
Pokemon_dex
p2166
(dp2167
g4
(lp2168
S'inner-focus'
p2169
aS'pickpocket'
p2170
aS'keen-eye'
p2171
asg8
S'Sneasel'
p2172
sg10
F280
sg11
(dp2173
g13
F35
sg14
F55
sg15
F75
sg16
F95
sg17
F55
sg18
F115
ssg19
F9
sg20
g21
sg22
(lp2174
S'dark'
p2175
aS'ice'
p2176
asg26
I215
sbsI216
(ipokeStructs
Pokemon_dex
p2177
(dp2178
g4
(lp2179
S'quick-feet'
p2180
aS'pickup'
p2181
aS'honey-gather'
p2182
asg8
S'Teddiursa'
p2183
sg10
F88
sg11
(dp2184
g13
F50
sg14
F60
sg15
F50
sg16
F80
sg17
F50
sg18
F40
ssg19
F6
sg20
g21
sg22
(lp2185
S'normal'
p2186
asg26
I216
sbsI217
(ipokeStructs
Pokemon_dex
p2187
(dp2188
g4
(lp2189
S'quick-feet'
p2190
aS'guts'
p2191
aS'unnerve'
p2192
asg8
S'Ursaring'
p2193
sg10
F1258
sg11
(dp2194
g13
F75
sg14
F90
sg15
F75
sg16
F130
sg17
F75
sg18
F55
ssg19
F18
sg20
g21
sg22
(lp2195
S'normal'
p2196
asg26
I217
sbsI218
(ipokeStructs
Pokemon_dex
p2197
(dp2198
g4
(lp2199
S'flame-body'
p2200
aS'weak-armor'
p2201
aS'magma-armor'
p2202
asg8
S'Slugma'
p2203
sg10
F350
sg11
(dp2204
g13
F70
sg14
F40
sg15
F40
sg16
F40
sg17
F40
sg18
F20
ssg19
F7
sg20
g21
sg22
(lp2205
S'fire'
p2206
asg26
I218
sbsI219
(ipokeStructs
Pokemon_dex
p2207
(dp2208
g4
(lp2209
S'flame-body'
p2210
aS'weak-armor'
p2211
aS'magma-armor'
p2212
asg8
S'Magcargo'
p2213
sg10
F550
sg11
(dp2214
g13
F80
sg14
F50
sg15
F80
sg16
F50
sg17
F120
sg18
F30
ssg19
F8
sg20
g21
sg22
(lp2215
S'fire'
p2216
aS'rock'
p2217
asg26
I219
sbsI220
(ipokeStructs
Pokemon_dex
p2218
(dp2219
g4
(lp2220
S'oblivious'
p2221
aS'thick-fat'
p2222
aS'snow-cloak'
p2223
asg8
S'Swinub'
p2224
sg10
F65
sg11
(dp2225
g13
F30
sg14
F50
sg15
F30
sg16
F50
sg17
F40
sg18
F50
ssg19
F4
sg20
g21
sg22
(lp2226
S'ice'
p2227
aS'ground'
p2228
asg26
I220
sbsI221
(ipokeStructs
Pokemon_dex
p2229
(dp2230
g4
(lp2231
S'oblivious'
p2232
aS'thick-fat'
p2233
aS'snow-cloak'
p2234
asg8
S'Piloswine'
p2235
sg10
F558
sg11
(dp2236
g13
F60
sg14
F100
sg15
F60
sg16
F100
sg17
F80
sg18
F50
ssg19
F11
sg20
g21
sg22
(lp2237
S'ice'
p2238
aS'ground'
p2239
asg26
I221
sbsI222
(ipokeStructs
Pokemon_dex
p2240
(dp2241
g4
(lp2242
S'regenerator'
p2243
aS'hustle'
p2244
aS'natural-cure'
p2245
asg8
S'Corsola'
p2246
sg10
F50
sg11
(dp2247
g13
F65
sg14
F55
sg15
F85
sg16
F55
sg17
F85
sg18
F35
ssg19
F6
sg20
g21
sg22
(lp2248
S'water'
p2249
aS'rock'
p2250
asg26
I222
sbsI223
(ipokeStructs
Pokemon_dex
p2251
(dp2252
g4
(lp2253
S'moody'
p2254
aS'sniper'
p2255
aS'hustle'
p2256
asg8
S'Remoraid'
p2257
sg10
F120
sg11
(dp2258
g13
F65
sg14
F35
sg15
F35
sg16
F65
sg17
F35
sg18
F65
ssg19
F6
sg20
g21
sg22
(lp2259
S'water'
p2260
asg26
I223
sbsI224
(ipokeStructs
Pokemon_dex
p2261
(dp2262
g4
(lp2263
S'moody'
p2264
aS'suction-cups'
p2265
aS'sniper'
p2266
asg8
S'Octillery'
p2267
sg10
F285
sg11
(dp2268
g13
F105
sg14
F75
sg15
F75
sg16
F105
sg17
F75
sg18
F45
ssg19
F9
sg20
g21
sg22
(lp2269
S'water'
p2270
asg26
I224
sbsI225
(ipokeStructs
Pokemon_dex
p2271
(dp2272
g4
(lp2273
S'vital-spirit'
p2274
aS'insomnia'
p2275
aS'hustle'
p2276
asg8
S'Delibird'
p2277
sg10
F160
sg11
(dp2278
g13
F65
sg14
F45
sg15
F45
sg16
F55
sg17
F45
sg18
F75
ssg19
F9
sg20
g21
sg22
(lp2279
S'flying'
p2280
aS'ice'
p2281
asg26
I225
sbsI226
(ipokeStructs
Pokemon_dex
p2282
(dp2283
g4
(lp2284
S'swift-swim'
p2285
aS'water-absorb'
p2286
aS'water-veil'
p2287
asg8
S'Mantine'
p2288
sg10
F2200
sg11
(dp2289
g13
F80
sg14
F65
sg15
F140
sg16
F40
sg17
F70
sg18
F70
ssg19
F21
sg20
g21
sg22
(lp2290
S'water'
p2291
aS'flying'
p2292
asg26
I226
sbsI227
(ipokeStructs
Pokemon_dex
p2293
(dp2294
g4
(lp2295
S'weak-armor'
p2296
aS'keen-eye'
p2297
aS'sturdy'
p2298
asg8
S'Skarmory'
p2299
sg10
F505
sg11
(dp2300
g13
F40
sg14
F65
sg15
F70
sg16
F80
sg17
F140
sg18
F70
ssg19
F17
sg20
g21
sg22
(lp2301
S'steel'
p2302
aS'flying'
p2303
asg26
I227
sbsI228
(ipokeStructs
Pokemon_dex
p2304
(dp2305
g4
(lp2306
S'flash-fire'
p2307
aS'unnerve'
p2308
aS'early-bird'
p2309
asg8
S'Houndour'
p2310
sg10
F108
sg11
(dp2311
g13
F80
sg14
F45
sg15
F50
sg16
F60
sg17
F30
sg18
F65
ssg19
F6
sg20
g21
sg22
(lp2312
S'fire'
p2313
aS'dark'
p2314
asg26
I228
sbsI229
(ipokeStructs
Pokemon_dex
p2315
(dp2316
g4
(lp2317
S'flash-fire'
p2318
aS'unnerve'
p2319
aS'early-bird'
p2320
asg8
S'Houndoom'
p2321
sg10
F350
sg11
(dp2322
g13
F110
sg14
F75
sg15
F80
sg16
F90
sg17
F50
sg18
F95
ssg19
F14
sg20
g21
sg22
(lp2323
S'fire'
p2324
aS'dark'
p2325
asg26
I229
sbsI230
(ipokeStructs
Pokemon_dex
p2326
(dp2327
g4
(lp2328
S'swift-swim'
p2329
aS'damp'
p2330
aS'sniper'
p2331
asg8
S'Kingdra'
p2332
sg10
F1520
sg11
(dp2333
g13
F95
sg14
F75
sg15
F95
sg16
F95
sg17
F95
sg18
F85
ssg19
F18
sg20
g21
sg22
(lp2334
S'water'
p2335
aS'dragon'
p2336
asg26
I230
sbsI231
(ipokeStructs
Pokemon_dex
p2337
(dp2338
g4
(lp2339
S'sand-veil'
p2340
aS'pickup'
p2341
asg8
S'Phanpy'
p2342
sg10
F335
sg11
(dp2343
g13
F40
sg14
F90
sg15
F40
sg16
F60
sg17
F60
sg18
F40
ssg19
F5
sg20
g21
sg22
(lp2344
S'ground'
p2345
asg26
I231
sbsI232
(ipokeStructs
Pokemon_dex
p2346
(dp2347
g4
(lp2348
S'sand-veil'
p2349
aS'sturdy'
p2350
asg8
S'Donphan'
p2351
sg10
F1200
sg11
(dp2352
g13
F60
sg14
F90
sg15
F60
sg16
F120
sg17
F120
sg18
F50
ssg19
F11
sg20
g21
sg22
(lp2353
S'ground'
p2354
asg26
I232
sbsI233
(ipokeStructs
Pokemon_dex
p2355
(dp2356
g4
(lp2357
S'download'
p2358
aS'analytic'
p2359
aS'trace'
p2360
asg8
S'Porygon2'
p2361
sg10
F325
sg11
(dp2362
g13
F105
sg14
F85
sg15
F95
sg16
F80
sg17
F90
sg18
F60
ssg19
F6
sg20
g21
sg22
(lp2363
S'normal'
p2364
asg26
I233
sbsI234
(ipokeStructs
Pokemon_dex
p2365
(dp2366
g4
(lp2367
S'intimidate'
p2368
aS'sap-sipper'
p2369
aS'frisk'
p2370
asg8
S'Stantler'
p2371
sg10
F712
sg11
(dp2372
g13
F85
sg14
F73
sg15
F65
sg16
F95
sg17
F62
sg18
F85
ssg19
F14
sg20
g21
sg22
(lp2373
S'normal'
p2374
asg26
I234
sbsI235
(ipokeStructs
Pokemon_dex
p2375
(dp2376
g4
(lp2377
S'technician'
p2378
aS'moody'
p2379
aS'own-tempo'
p2380
asg8
S'Smeargle'
p2381
sg10
F580
sg11
(dp2382
g13
F20
sg14
F55
sg15
F45
sg16
F20
sg17
F35
sg18
F75
ssg19
F12
sg20
g21
sg22
(lp2383
S'normal'
p2384
asg26
I235
sbsI236
(ipokeStructs
Pokemon_dex
p2385
(dp2386
g4
(lp2387
S'guts'
p2388
aS'vital-spirit'
p2389
aS'steadfast'
p2390
asg8
S'Tyrogue'
p2391
sg10
F210
sg11
(dp2392
g13
F35
sg14
F35
sg15
F35
sg16
F35
sg17
F35
sg18
F35
ssg19
F7
sg20
g21
sg22
(lp2393
S'fighting'
p2394
asg26
I236
sbsI237
(ipokeStructs
Pokemon_dex
p2395
(dp2396
g4
(lp2397
S'intimidate'
p2398
aS'technician'
p2399
aS'steadfast'
p2400
asg8
S'Hitmontop'
p2401
sg10
F480
sg11
(dp2402
g13
F35
sg14
F50
sg15
F110
sg16
F95
sg17
F95
sg18
F70
ssg19
F14
sg20
g21
sg22
(lp2403
S'fighting'
p2404
asg26
I237
sbsI238
(ipokeStructs
Pokemon_dex
p2405
(dp2406
g4
(lp2407
S'oblivious'
p2408
aS'forewarn'
p2409
aS'hydration'
p2410
asg8
S'Smoochum'
p2411
sg10
F60
sg11
(dp2412
g13
F85
sg14
F45
sg15
F65
sg16
F30
sg17
F15
sg18
F65
ssg19
F4
sg20
g21
sg22
(lp2413
S'psychic'
p2414
aS'ice'
p2415
asg26
I238
sbsI239
(ipokeStructs
Pokemon_dex
p2416
(dp2417
g4
(lp2418
S'vital-spirit'
p2419
aS'static'
p2420
asg8
S'Elekid'
p2421
sg10
F235
sg11
(dp2422
g13
F65
sg14
F45
sg15
F55
sg16
F63
sg17
F37
sg18
F95
ssg19
F6
sg20
g21
sg22
(lp2423
S'electric'
p2424
asg26
I239
sbsI240
(ipokeStructs
Pokemon_dex
p2425
(dp2426
g4
(lp2427
S'flame-body'
p2428
aS'vital-spirit'
p2429
asg8
S'Magby'
p2430
sg10
F214
sg11
(dp2431
g13
F70
sg14
F45
sg15
F55
sg16
F75
sg17
F37
sg18
F83
ssg19
F7
sg20
g21
sg22
(lp2432
S'fire'
p2433
asg26
I240
sbsI241
(ipokeStructs
Pokemon_dex
p2434
(dp2435
g4
(lp2436
S'scrappy'
p2437
aS'thick-fat'
p2438
aS'sap-sipper'
p2439
asg8
S'Miltank'
p2440
sg10
F755
sg11
(dp2441
g13
F40
sg14
F95
sg15
F70
sg16
F80
sg17
F105
sg18
F100
ssg19
F12
sg20
g21
sg22
(lp2442
S'normal'
p2443
asg26
I241
sbsI242
(ipokeStructs
Pokemon_dex
p2444
(dp2445
g4
(lp2446
S'healer'
p2447
aS'serene-grace'
p2448
aS'natural-cure'
p2449
asg8
S'Blissey'
p2450
sg10
F468
sg11
(dp2451
g13
F75
sg14
F255
sg15
F135
sg16
F10
sg17
F10
sg18
F55
ssg19
F15
sg20
g21
sg22
(lp2452
S'normal'
p2453
asg26
I242
sbsI243
(ipokeStructs
Pokemon_dex
p2454
(dp2455
g4
(lp2456
S'pressure'
p2457
aS'volt-absorb'
p2458
asg8
S'Raikou'
p2459
sg10
F1780
sg11
(dp2460
g13
F115
sg14
F90
sg15
F100
sg16
F85
sg17
F75
sg18
F115
ssg19
F19
sg20
g21
sg22
(lp2461
S'electric'
p2462
asg26
I243
sbsI244
(ipokeStructs
Pokemon_dex
p2463
(dp2464
g4
(lp2465
S'flash-fire'
p2466
aS'pressure'
p2467
asg8
S'Entei'
p2468
sg10
F1980
sg11
(dp2469
g13
F90
sg14
F115
sg15
F75
sg16
F115
sg17
F85
sg18
F100
ssg19
F21
sg20
g21
sg22
(lp2470
S'fire'
p2471
asg26
I244
sbsI245
(ipokeStructs
Pokemon_dex
p2472
(dp2473
g4
(lp2474
S'water-absorb'
p2475
aS'pressure'
p2476
asg8
S'Suicune'
p2477
sg10
F1870
sg11
(dp2478
g13
F90
sg14
F100
sg15
F115
sg16
F75
sg17
F115
sg18
F85
ssg19
F20
sg20
g21
sg22
(lp2479
S'water'
p2480
asg26
I245
sbsI246
(ipokeStructs
Pokemon_dex
p2481
(dp2482
g4
(lp2483
S'sand-veil'
p2484
aS'guts'
p2485
asg8
S'Larvitar'
p2486
sg10
F720
sg11
(dp2487
g13
F45
sg14
F50
sg15
F50
sg16
F64
sg17
F50
sg18
F41
ssg19
F6
sg20
g21
sg22
(lp2488
S'rock'
p2489
aS'ground'
p2490
asg26
I246
sbsI247
(ipokeStructs
Pokemon_dex
p2491
(dp2492
g4
(lp2493
S'shed-skin'
p2494
asg8
S'Pupitar'
p2495
sg10
F1520
sg11
(dp2496
g13
F65
sg14
F70
sg15
F70
sg16
F84
sg17
F70
sg18
F51
ssg19
F12
sg20
g21
sg22
(lp2497
S'rock'
p2498
aS'ground'
p2499
asg26
I247
sbsI248
(ipokeStructs
Pokemon_dex
p2500
(dp2501
g4
(lp2502
S'unnerve'
p2503
aS'sand-stream'
p2504
asg8
S'Tyranitar'
p2505
sg10
F2020
sg11
(dp2506
g13
F95
sg14
F100
sg15
F100
sg16
F134
sg17
F110
sg18
F61
ssg19
F20
sg20
g21
sg22
(lp2507
S'dark'
p2508
aS'rock'
p2509
asg26
I248
sbsI249
(ipokeStructs
Pokemon_dex
p2510
(dp2511
g4
(lp2512
S'pressure'
p2513
aS'multiscale'
p2514
asg8
S'Lugia'
p2515
sg10
F2160
sg11
(dp2516
g13
F90
sg14
F106
sg15
F154
sg16
F90
sg17
F130
sg18
F110
ssg19
F52
sg20
g21
sg22
(lp2517
S'psychic'
p2518
aS'flying'
p2519
asg26
I249
sbsI250
(ipokeStructs
Pokemon_dex
p2520
(dp2521
g4
(lp2522
S'pressure'
p2523
aS'regenerator'
p2524
asg8
S'Ho-oh'
p2525
sg10
F1990
sg11
(dp2526
g13
F110
sg14
F106
sg15
F154
sg16
F130
sg17
F90
sg18
F90
ssg19
F38
sg20
g21
sg22
(lp2527
S'fire'
p2528
aS'flying'
p2529
asg26
I250
sbsI251
(ipokeStructs
Pokemon_dex
p2530
(dp2531
g4
(lp2532
S'natural-cure'
p2533
asg8
S'Celebi'
p2534
sg10
F50
sg11
(dp2535
g13
F100
sg14
F100
sg15
F100
sg16
F100
sg17
F100
sg18
F100
ssg19
F6
sg20
g21
sg22
(lp2536
S'psychic'
p2537
aS'grass'
p2538
asg26
I251
sbsI252
(ipokeStructs
Pokemon_dex
p2539
(dp2540
g4
(lp2541
S'unburden'
p2542
aS'overgrow'
p2543
asg8
S'Treecko'
p2544
sg10
F50
sg11
(dp2545
g13
F65
sg14
F40
sg15
F55
sg16
F45
sg17
F35
sg18
F70
ssg19
F5
sg20
g21
sg22
(lp2546
S'grass'
p2547
asg26
I252
sbsI253
(ipokeStructs
Pokemon_dex
p2548
(dp2549
g4
(lp2550
S'unburden'
p2551
aS'overgrow'
p2552
asg8
S'Grovyle'
p2553
sg10
F216
sg11
(dp2554
g13
F85
sg14
F50
sg15
F65
sg16
F65
sg17
F45
sg18
F95
ssg19
F9
sg20
g21
sg22
(lp2555
S'grass'
p2556
asg26
I253
sbsI254
(ipokeStructs
Pokemon_dex
p2557
(dp2558
g4
(lp2559
S'unburden'
p2560
aS'overgrow'
p2561
asg8
S'Sceptile'
p2562
sg10
F522
sg11
(dp2563
g13
F105
sg14
F70
sg15
F85
sg16
F85
sg17
F65
sg18
F120
ssg19
F17
sg20
g21
sg22
(lp2564
S'grass'
p2565
asg26
I254
sbsI255
(ipokeStructs
Pokemon_dex
p2566
(dp2567
g4
(lp2568
S'speed-boost'
p2569
aS'blaze'
p2570
asg8
S'Torchic'
p2571
sg10
F25
sg11
(dp2572
g13
F70
sg14
F45
sg15
F50
sg16
F60
sg17
F40
sg18
F45
ssg19
F4
sg20
g21
sg22
(lp2573
S'fire'
p2574
asg26
I255
sbsI256
(ipokeStructs
Pokemon_dex
p2575
(dp2576
g4
(lp2577
S'speed-boost'
p2578
aS'blaze'
p2579
asg8
S'Combusken'
p2580
sg10
F195
sg11
(dp2581
g13
F85
sg14
F60
sg15
F60
sg16
F85
sg17
F60
sg18
F55
ssg19
F9
sg20
g21
sg22
(lp2582
S'fire'
p2583
aS'fighting'
p2584
asg26
I256
sbsI257
(ipokeStructs
Pokemon_dex
p2585
(dp2586
g4
(lp2587
S'speed-boost'
p2588
aS'blaze'
p2589
asg8
S'Blaziken'
p2590
sg10
F520
sg11
(dp2591
g13
F110
sg14
F80
sg15
F70
sg16
F120
sg17
F70
sg18
F80
ssg19
F19
sg20
g21
sg22
(lp2592
S'fire'
p2593
aS'fighting'
p2594
asg26
I257
sbsI258
(ipokeStructs
Pokemon_dex
p2595
(dp2596
g4
(lp2597
S'damp'
p2598
aS'torrent'
p2599
asg8
S'Mudkip'
p2600
sg10
F76
sg11
(dp2601
g13
F50
sg14
F50
sg15
F50
sg16
F70
sg17
F50
sg18
F40
ssg19
F4
sg20
g21
sg22
(lp2602
S'water'
p2603
asg26
I258
sbsI259
(ipokeStructs
Pokemon_dex
p2604
(dp2605
g4
(lp2606
S'damp'
p2607
aS'torrent'
p2608
asg8
S'Marshtomp'
p2609
sg10
F280
sg11
(dp2610
g13
F60
sg14
F70
sg15
F70
sg16
F85
sg17
F70
sg18
F50
ssg19
F7
sg20
g21
sg22
(lp2611
S'water'
p2612
aS'ground'
p2613
asg26
I259
sbsI260
(ipokeStructs
Pokemon_dex
p2614
(dp2615
g4
(lp2616
S'damp'
p2617
aS'torrent'
p2618
asg8
S'Swampert'
p2619
sg10
F819
sg11
(dp2620
g13
F85
sg14
F100
sg15
F90
sg16
F110
sg17
F90
sg18
F60
ssg19
F15
sg20
g21
sg22
(lp2621
S'water'
p2622
aS'ground'
p2623
asg26
I260
sbsI261
(ipokeStructs
Pokemon_dex
p2624
(dp2625
g4
(lp2626
S'quick-feet'
p2627
aS'rattled'
p2628
aS'run-away'
p2629
asg8
S'Poochyena'
p2630
sg10
F136
sg11
(dp2631
g13
F30
sg14
F35
sg15
F30
sg16
F55
sg17
F35
sg18
F35
ssg19
F5
sg20
g21
sg22
(lp2632
S'dark'
p2633
asg26
I261
sbsI262
(ipokeStructs
Pokemon_dex
p2634
(dp2635
g4
(lp2636
S'intimidate'
p2637
aS'quick-feet'
p2638
aS'moxie'
p2639
asg8
S'Mightyena'
p2640
sg10
F370
sg11
(dp2641
g13
F60
sg14
F70
sg15
F60
sg16
F90
sg17
F70
sg18
F70
ssg19
F10
sg20
g21
sg22
(lp2642
S'dark'
p2643
asg26
I262
sbsI263
(ipokeStructs
Pokemon_dex
p2644
(dp2645
g4
(lp2646
S'quick-feet'
p2647
aS'pickup'
p2648
aS'gluttony'
p2649
asg8
S'Zigzagoon'
p2650
sg10
F175
sg11
(dp2651
g13
F30
sg14
F38
sg15
F41
sg16
F30
sg17
F41
sg18
F60
ssg19
F4
sg20
g21
sg22
(lp2652
S'normal'
p2653
asg26
I263
sbsI264
(ipokeStructs
Pokemon_dex
p2654
(dp2655
g4
(lp2656
S'quick-feet'
p2657
aS'pickup'
p2658
aS'gluttony'
p2659
asg8
S'Linoone'
p2660
sg10
F325
sg11
(dp2661
g13
F50
sg14
F78
sg15
F61
sg16
F70
sg17
F61
sg18
F100
ssg19
F5
sg20
g21
sg22
(lp2662
S'normal'
p2663
asg26
I264
sbsI265
(ipokeStructs
Pokemon_dex
p2664
(dp2665
g4
(lp2666
S'shield-dust'
p2667
aS'run-away'
p2668
asg8
S'Wurmple'
p2669
sg10
F36
sg11
(dp2670
g13
F20
sg14
F45
sg15
F30
sg16
F45
sg17
F35
sg18
F20
ssg19
F3
sg20
g21
sg22
(lp2671
S'bug'
p2672
asg26
I265
sbsI266
(ipokeStructs
Pokemon_dex
p2673
(dp2674
g4
(lp2675
S'shed-skin'
p2676
asg8
S'Silcoon'
p2677
sg10
F100
sg11
(dp2678
g13
F25
sg14
F50
sg15
F25
sg16
F35
sg17
F55
sg18
F15
ssg19
F6
sg20
g21
sg22
(lp2679
S'bug'
p2680
asg26
I266
sbsI267
(ipokeStructs
Pokemon_dex
p2681
(dp2682
g4
(lp2683
S'swarm'
p2684
aS'rivalry'
p2685
asg8
S'Beautifly'
p2686
sg10
F284
sg11
(dp2687
g13
F100
sg14
F60
sg15
F50
sg16
F70
sg17
F50
sg18
F65
ssg19
F10
sg20
g21
sg22
(lp2688
S'flying'
p2689
aS'bug'
p2690
asg26
I267
sbsI268
(ipokeStructs
Pokemon_dex
p2691
(dp2692
g4
(lp2693
S'shed-skin'
p2694
asg8
S'Cascoon'
p2695
sg10
F115
sg11
(dp2696
g13
F25
sg14
F50
sg15
F25
sg16
F35
sg17
F55
sg18
F15
ssg19
F7
sg20
g21
sg22
(lp2697
S'bug'
p2698
asg26
I268
sbsI269
(ipokeStructs
Pokemon_dex
p2699
(dp2700
g4
(lp2701
S'shield-dust'
p2702
aS'compoundeyes'
p2703
asg8
S'Dustox'
p2704
sg10
F316
sg11
(dp2705
g13
F50
sg14
F60
sg15
F90
sg16
F50
sg17
F70
sg18
F65
ssg19
F12
sg20
g21
sg22
(lp2706
S'bug'
p2707
aS'poison'
p2708
asg26
I269
sbsI270
(ipokeStructs
Pokemon_dex
p2709
(dp2710
g4
(lp2711
S'swift-swim'
p2712
aS'rain-dish'
p2713
aS'own-tempo'
p2714
asg8
S'Lotad'
p2715
sg10
F26
sg11
(dp2716
g13
F40
sg14
F40
sg15
F50
sg16
F30
sg17
F30
sg18
F30
ssg19
F5
sg20
g21
sg22
(lp2717
S'water'
p2718
aS'grass'
p2719
asg26
I270
sbsI271
(ipokeStructs
Pokemon_dex
p2720
(dp2721
g4
(lp2722
S'swift-swim'
p2723
aS'rain-dish'
p2724
aS'own-tempo'
p2725
asg8
S'Lombre'
p2726
sg10
F325
sg11
(dp2727
g13
F60
sg14
F60
sg15
F70
sg16
F50
sg17
F50
sg18
F50
ssg19
F12
sg20
g21
sg22
(lp2728
S'water'
p2729
aS'grass'
p2730
asg26
I271
sbsI272
(ipokeStructs
Pokemon_dex
p2731
(dp2732
g4
(lp2733
S'swift-swim'
p2734
aS'rain-dish'
p2735
aS'own-tempo'
p2736
asg8
S'Ludicolo'
p2737
sg10
F550
sg11
(dp2738
g13
F90
sg14
F80
sg15
F100
sg16
F70
sg17
F70
sg18
F70
ssg19
F15
sg20
g21
sg22
(lp2739
S'water'
p2740
aS'grass'
p2741
asg26
I272
sbsI273
(ipokeStructs
Pokemon_dex
p2742
(dp2743
g4
(lp2744
S'early-bird'
p2745
aS'chlorophyll'
p2746
aS'pickpocket'
p2747
asg8
S'Seedot'
p2748
sg10
F40
sg11
(dp2749
g13
F30
sg14
F40
sg15
F30
sg16
F40
sg17
F50
sg18
F30
ssg19
F5
sg20
g21
sg22
(lp2750
S'grass'
p2751
asg26
I273
sbsI274
(ipokeStructs
Pokemon_dex
p2752
(dp2753
g4
(lp2754
S'early-bird'
p2755
aS'chlorophyll'
p2756
aS'pickpocket'
p2757
asg8
S'Nuzleaf'
p2758
sg10
F280
sg11
(dp2759
g13
F60
sg14
F70
sg15
F40
sg16
F70
sg17
F40
sg18
F60
ssg19
F10
sg20
g21
sg22
(lp2760
S'dark'
p2761
aS'grass'
p2762
asg26
I274
sbsI275
(ipokeStructs
Pokemon_dex
p2763
(dp2764
g4
(lp2765
S'early-bird'
p2766
aS'chlorophyll'
p2767
aS'pickpocket'
p2768
asg8
S'Shiftry'
p2769
sg10
F596
sg11
(dp2770
g13
F90
sg14
F90
sg15
F60
sg16
F100
sg17
F60
sg18
F80
ssg19
F13
sg20
g21
sg22
(lp2771
S'dark'
p2772
aS'grass'
p2773
asg26
I275
sbsI276
(ipokeStructs
Pokemon_dex
p2774
(dp2775
g4
(lp2776
S'scrappy'
p2777
aS'guts'
p2778
asg8
S'Taillow'
p2779
sg10
F23
sg11
(dp2780
g13
F30
sg14
F40
sg15
F30
sg16
F55
sg17
F30
sg18
F85
ssg19
F3
sg20
g21
sg22
(lp2781
S'flying'
p2782
aS'normal'
p2783
asg26
I276
sbsI277
(ipokeStructs
Pokemon_dex
p2784
(dp2785
g4
(lp2786
S'scrappy'
p2787
aS'guts'
p2788
asg8
S'Swellow'
p2789
sg10
F198
sg11
(dp2790
g13
F50
sg14
F60
sg15
F50
sg16
F85
sg17
F60
sg18
F125
ssg19
F7
sg20
g21
sg22
(lp2791
S'flying'
p2792
aS'normal'
p2793
asg26
I277
sbsI278
(ipokeStructs
Pokemon_dex
p2794
(dp2795
g4
(lp2796
S'rain-dish'
p2797
aS'keen-eye'
p2798
asg8
S'Wingull'
p2799
sg10
F95
sg11
(dp2800
g13
F55
sg14
F40
sg15
F30
sg16
F30
sg17
F30
sg18
F85
ssg19
F6
sg20
g21
sg22
(lp2801
S'water'
p2802
aS'flying'
p2803
asg26
I278
sbsI279
(ipokeStructs
Pokemon_dex
p2804
(dp2805
g4
(lp2806
S'rain-dish'
p2807
aS'keen-eye'
p2808
asg8
S'Pelipper'
p2809
sg10
F280
sg11
(dp2810
g13
F85
sg14
F60
sg15
F70
sg16
F50
sg17
F100
sg18
F65
ssg19
F12
sg20
g21
sg22
(lp2811
S'water'
p2812
aS'flying'
p2813
asg26
I279
sbsI280
(ipokeStructs
Pokemon_dex
p2814
(dp2815
g4
(lp2816
S'synchronize'
p2817
aS'trace'
p2818
aS'telepathy'
p2819
asg8
S'Ralts'
p2820
sg10
F66
sg11
(dp2821
g13
F45
sg14
F28
sg15
F35
sg16
F25
sg17
F25
sg18
F40
ssg19
F4
sg20
g21
sg22
(lp2822
S'fairy'
p2823
aS'psychic'
p2824
asg26
I280
sbsI281
(ipokeStructs
Pokemon_dex
p2825
(dp2826
g4
(lp2827
S'synchronize'
p2828
aS'trace'
p2829
aS'telepathy'
p2830
asg8
S'Kirlia'
p2831
sg10
F202
sg11
(dp2832
g13
F65
sg14
F38
sg15
F55
sg16
F35
sg17
F35
sg18
F50
ssg19
F8
sg20
g21
sg22
(lp2833
S'fairy'
p2834
aS'psychic'
p2835
asg26
I281
sbsI282
(ipokeStructs
Pokemon_dex
p2836
(dp2837
g4
(lp2838
S'synchronize'
p2839
aS'trace'
p2840
aS'telepathy'
p2841
asg8
S'Gardevoir'
p2842
sg10
F484
sg11
(dp2843
g13
F125
sg14
F68
sg15
F115
sg16
F65
sg17
F65
sg18
F80
ssg19
F16
sg20
g21
sg22
(lp2844
S'fairy'
p2845
aS'psychic'
p2846
asg26
I282
sbsI283
(ipokeStructs
Pokemon_dex
p2847
(dp2848
g4
(lp2849
S'swift-swim'
p2850
aS'rain-dish'
p2851
asg8
S'Surskit'
p2852
sg10
F17
sg11
(dp2853
g13
F50
sg14
F40
sg15
F52
sg16
F30
sg17
F32
sg18
F65
ssg19
F5
sg20
g21
sg22
(lp2854
S'water'
p2855
aS'bug'
p2856
asg26
I283
sbsI284
(ipokeStructs
Pokemon_dex
p2857
(dp2858
g4
(lp2859
S'intimidate'
p2860
aS'unnerve'
p2861
asg8
S'Masquerain'
p2862
sg10
F36
sg11
(dp2863
g13
F80
sg14
F70
sg15
F82
sg16
F60
sg17
F62
sg18
F60
ssg19
F8
sg20
g21
sg22
(lp2864
S'flying'
p2865
aS'bug'
p2866
asg26
I284
sbsI285
(ipokeStructs
Pokemon_dex
p2867
(dp2868
g4
(lp2869
S'quick-feet'
p2870
aS'poison-heal'
p2871
aS'effect-spore'
p2872
asg8
S'Shroomish'
p2873
sg10
F45
sg11
(dp2874
g13
F40
sg14
F60
sg15
F60
sg16
F40
sg17
F60
sg18
F35
ssg19
F4
sg20
g21
sg22
(lp2875
S'grass'
p2876
asg26
I285
sbsI286
(ipokeStructs
Pokemon_dex
p2877
(dp2878
g4
(lp2879
S'technician'
p2880
aS'poison-heal'
p2881
aS'effect-spore'
p2882
asg8
S'Breloom'
p2883
sg10
F392
sg11
(dp2884
g13
F60
sg14
F60
sg15
F60
sg16
F130
sg17
F80
sg18
F70
ssg19
F12
sg20
g21
sg22
(lp2885
S'grass'
p2886
aS'fighting'
p2887
asg26
I286
sbsI287
(ipokeStructs
Pokemon_dex
p2888
(dp2889
g4
(lp2890
S'truant'
p2891
asg8
S'Slakoth'
p2892
sg10
F240
sg11
(dp2893
g13
F35
sg14
F60
sg15
F35
sg16
F60
sg17
F60
sg18
F30
ssg19
F8
sg20
g21
sg22
(lp2894
S'normal'
p2895
asg26
I287
sbsI288
(ipokeStructs
Pokemon_dex
p2896
(dp2897
g4
(lp2898
S'vital-spirit'
p2899
asg8
S'Vigoroth'
p2900
sg10
F465
sg11
(dp2901
g13
F55
sg14
F80
sg15
F55
sg16
F80
sg17
F80
sg18
F90
ssg19
F14
sg20
g21
sg22
(lp2902
S'normal'
p2903
asg26
I288
sbsI289
(ipokeStructs
Pokemon_dex
p2904
(dp2905
g4
(lp2906
S'truant'
p2907
asg8
S'Slaking'
p2908
sg10
F1305
sg11
(dp2909
g13
F95
sg14
F150
sg15
F65
sg16
F160
sg17
F100
sg18
F100
ssg19
F20
sg20
g21
sg22
(lp2910
S'normal'
p2911
asg26
I289
sbsI290
(ipokeStructs
Pokemon_dex
p2912
(dp2913
g4
(lp2914
S'compoundeyes'
p2915
aS'run-away'
p2916
asg8
S'Nincada'
p2917
sg10
F55
sg11
(dp2918
g13
F30
sg14
F31
sg15
F30
sg16
F45
sg17
F90
sg18
F40
ssg19
F5
sg20
g21
sg22
(lp2919
S'bug'
p2920
aS'ground'
p2921
asg26
I290
sbsI291
(ipokeStructs
Pokemon_dex
p2922
(dp2923
g4
(lp2924
S'speed-boost'
p2925
aS'infiltrator'
p2926
asg8
S'Ninjask'
p2927
sg10
F120
sg11
(dp2928
g13
F50
sg14
F61
sg15
F50
sg16
F90
sg17
F45
sg18
F160
ssg19
F8
sg20
g21
sg22
(lp2929
S'flying'
p2930
aS'bug'
p2931
asg26
I291
sbsI292
(ipokeStructs
Pokemon_dex
p2932
(dp2933
g4
(lp2934
S'wonder-guard'
p2935
asg8
S'Shedinja'
p2936
sg10
F12
sg11
(dp2937
g13
F30
sg14
F1
sg15
F30
sg16
F90
sg17
F45
sg18
F40
ssg19
F8
sg20
g21
sg22
(lp2938
S'ghost'
p2939
aS'bug'
p2940
asg26
I292
sbsI293
(ipokeStructs
Pokemon_dex
p2941
(dp2942
g4
(lp2943
S'rattled'
p2944
aS'soundproof'
p2945
asg8
S'Whismur'
p2946
sg10
F163
sg11
(dp2947
g13
F51
sg14
F64
sg15
F23
sg16
F51
sg17
F23
sg18
F28
ssg19
F6
sg20
g21
sg22
(lp2948
S'normal'
p2949
asg26
I293
sbsI294
(ipokeStructs
Pokemon_dex
p2950
(dp2951
g4
(lp2952
S'scrappy'
p2953
aS'soundproof'
p2954
asg8
S'Loudred'
p2955
sg10
F405
sg11
(dp2956
g13
F71
sg14
F84
sg15
F43
sg16
F71
sg17
F43
sg18
F48
ssg19
F10
sg20
g21
sg22
(lp2957
S'normal'
p2958
asg26
I294
sbsI295
(ipokeStructs
Pokemon_dex
p2959
(dp2960
g4
(lp2961
S'scrappy'
p2962
aS'soundproof'
p2963
asg8
S'Exploud'
p2964
sg10
F840
sg11
(dp2965
g13
F91
sg14
F104
sg15
F73
sg16
F91
sg17
F63
sg18
F68
ssg19
F15
sg20
g21
sg22
(lp2966
S'normal'
p2967
asg26
I295
sbsI296
(ipokeStructs
Pokemon_dex
p2968
(dp2969
g4
(lp2970
S'sheer-force'
p2971
aS'guts'
p2972
aS'thick-fat'
p2973
asg8
S'Makuhita'
p2974
sg10
F864
sg11
(dp2975
g13
F20
sg14
F72
sg15
F30
sg16
F60
sg17
F30
sg18
F25
ssg19
F10
sg20
g21
sg22
(lp2976
S'fighting'
p2977
asg26
I296
sbsI297
(ipokeStructs
Pokemon_dex
p2978
(dp2979
g4
(lp2980
S'sheer-force'
p2981
aS'guts'
p2982
aS'thick-fat'
p2983
asg8
S'Hariyama'
p2984
sg10
F2538
sg11
(dp2985
g13
F40
sg14
F144
sg15
F60
sg16
F120
sg17
F60
sg18
F50
ssg19
F23
sg20
g21
sg22
(lp2986
S'fighting'
p2987
asg26
I297
sbsI298
(ipokeStructs
Pokemon_dex
p2988
(dp2989
g4
(lp2990
S'thick-fat'
p2991
aS'sap-sipper'
p2992
aS'huge-power'
p2993
asg8
S'Azurill'
p2994
sg10
F20
sg11
(dp2995
g13
F20
sg14
F50
sg15
F40
sg16
F20
sg17
F40
sg18
F20
ssg19
F2
sg20
g21
sg22
(lp2996
S'fairy'
p2997
aS'normal'
p2998
asg26
I298
sbsI299
(ipokeStructs
Pokemon_dex
p2999
(dp3000
g4
(lp3001
S'magnet-pull'
p3002
aS'sand-force'
p3003
aS'sturdy'
p3004
asg8
S'Nosepass'
p3005
sg10
F970
sg11
(dp3006
g13
F45
sg14
F30
sg15
F90
sg16
F45
sg17
F135
sg18
F30
ssg19
F10
sg20
g21
sg22
(lp3007
S'rock'
p3008
asg26
I299
sbsI300
(ipokeStructs
Pokemon_dex
p3009
(dp3010
g4
(lp3011
S'normalize'
p3012
aS'cute-charm'
p3013
aS'wonder-skin'
p3014
asg8
S'Skitty'
p3015
sg10
F110
sg11
(dp3016
g13
F35
sg14
F50
sg15
F35
sg16
F45
sg17
F45
sg18
F50
ssg19
F6
sg20
g21
sg22
(lp3017
S'normal'
p3018
asg26
I300
sbsI301
(ipokeStructs
Pokemon_dex
p3019
(dp3020
g4
(lp3021
S'normalize'
p3022
aS'cute-charm'
p3023
aS'wonder-skin'
p3024
asg8
S'Delcatty'
p3025
sg10
F326
sg11
(dp3026
g13
F55
sg14
F70
sg15
F55
sg16
F65
sg17
F65
sg18
F70
ssg19
F11
sg20
g21
sg22
(lp3027
S'normal'
p3028
asg26
I301
sbsI302
(ipokeStructs
Pokemon_dex
p3029
(dp3030
g4
(lp3031
S'stall'
p3032
aS'keen-eye'
p3033
aS'prankster'
p3034
asg8
S'Sableye'
p3035
sg10
F110
sg11
(dp3036
g13
F65
sg14
F50
sg15
F65
sg16
F75
sg17
F75
sg18
F50
ssg19
F5
sg20
g21
sg22
(lp3037
S'ghost'
p3038
aS'dark'
p3039
asg26
I302
sbsI303
(ipokeStructs
Pokemon_dex
p3040
(dp3041
g4
(lp3042
S'intimidate'
p3043
aS'sheer-force'
p3044
aS'hyper-cutter'
p3045
asg8
S'Mawile'
p3046
sg10
F115
sg11
(dp3047
g13
F55
sg14
F50
sg15
F55
sg16
F85
sg17
F85
sg18
F50
ssg19
F6
sg20
g21
sg22
(lp3048
S'steel'
p3049
aS'fairy'
p3050
asg26
I303
sbsI304
(ipokeStructs
Pokemon_dex
p3051
(dp3052
g4
(lp3053
S'rock-head'
p3054
aS'heavy-metal'
p3055
aS'sturdy'
p3056
asg8
S'Aron'
p3057
sg10
F600
sg11
(dp3058
g13
F40
sg14
F50
sg15
F40
sg16
F70
sg17
F100
sg18
F30
ssg19
F4
sg20
g21
sg22
(lp3059
S'steel'
p3060
aS'rock'
p3061
asg26
I304
sbsI305
(ipokeStructs
Pokemon_dex
p3062
(dp3063
g4
(lp3064
S'rock-head'
p3065
aS'heavy-metal'
p3066
aS'sturdy'
p3067
asg8
S'Lairon'
p3068
sg10
F1200
sg11
(dp3069
g13
F50
sg14
F60
sg15
F50
sg16
F90
sg17
F140
sg18
F40
ssg19
F9
sg20
g21
sg22
(lp3070
S'steel'
p3071
aS'rock'
p3072
asg26
I305
sbsI306
(ipokeStructs
Pokemon_dex
p3073
(dp3074
g4
(lp3075
S'rock-head'
p3076
aS'heavy-metal'
p3077
aS'sturdy'
p3078
asg8
S'Aggron'
p3079
sg10
F3600
sg11
(dp3080
g13
F60
sg14
F70
sg15
F60
sg16
F110
sg17
F180
sg18
F50
ssg19
F21
sg20
g21
sg22
(lp3081
S'steel'
p3082
aS'rock'
p3083
asg26
I306
sbsI307
(ipokeStructs
Pokemon_dex
p3084
(dp3085
g4
(lp3086
S'pure-power'
p3087
aS'telepathy'
p3088
asg8
S'Meditite'
p3089
sg10
F112
sg11
(dp3090
g13
F40
sg14
F30
sg15
F55
sg16
F40
sg17
F55
sg18
F60
ssg19
F6
sg20
g21
sg22
(lp3091
S'psychic'
p3092
aS'fighting'
p3093
asg26
I307
sbsI308
(ipokeStructs
Pokemon_dex
p3094
(dp3095
g4
(lp3096
S'pure-power'
p3097
aS'telepathy'
p3098
asg8
S'Medicham'
p3099
sg10
F315
sg11
(dp3100
g13
F60
sg14
F60
sg15
F75
sg16
F60
sg17
F75
sg18
F80
ssg19
F13
sg20
g21
sg22
(lp3101
S'psychic'
p3102
aS'fighting'
p3103
asg26
I308
sbsI309
(ipokeStructs
Pokemon_dex
p3104
(dp3105
g4
(lp3106
S'static'
p3107
aS'lightningrod'
p3108
aS'minus'
p3109
asg8
S'Electrike'
p3110
sg10
F152
sg11
(dp3111
g13
F65
sg14
F40
sg15
F40
sg16
F45
sg17
F40
sg18
F65
ssg19
F6
sg20
g21
sg22
(lp3112
S'electric'
p3113
asg26
I309
sbsI310
(ipokeStructs
Pokemon_dex
p3114
(dp3115
g4
(lp3116
S'static'
p3117
aS'lightningrod'
p3118
aS'minus'
p3119
asg8
S'Manectric'
p3120
sg10
F402
sg11
(dp3121
g13
F105
sg14
F70
sg15
F60
sg16
F75
sg17
F60
sg18
F105
ssg19
F15
sg20
g21
sg22
(lp3122
S'electric'
p3123
asg26
I310
sbsI311
(ipokeStructs
Pokemon_dex
p3124
(dp3125
g4
(lp3126
S'plus'
p3127
asg8
S'Plusle'
p3128
sg10
F42
sg11
(dp3129
g13
F85
sg14
F60
sg15
F75
sg16
F50
sg17
F40
sg18
F95
ssg19
F4
sg20
g21
sg22
(lp3130
S'electric'
p3131
asg26
I311
sbsI312
(ipokeStructs
Pokemon_dex
p3132
(dp3133
g4
(lp3134
S'minus'
p3135
asg8
S'Minun'
p3136
sg10
F42
sg11
(dp3137
g13
F75
sg14
F60
sg15
F85
sg16
F40
sg17
F50
sg18
F95
ssg19
F4
sg20
g21
sg22
(lp3138
S'electric'
p3139
asg26
I312
sbsI313
(ipokeStructs
Pokemon_dex
p3140
(dp3141
g4
(lp3142
S'swarm'
p3143
aS'illuminate'
p3144
aS'prankster'
p3145
asg8
S'Volbeat'
p3146
sg10
F177
sg11
(dp3147
g13
F47
sg14
F65
sg15
F75
sg16
F73
sg17
F55
sg18
F85
ssg19
F7
sg20
g21
sg22
(lp3148
S'bug'
p3149
asg26
I313
sbsI314
(ipokeStructs
Pokemon_dex
p3150
(dp3151
g4
(lp3152
S'oblivious'
p3153
aS'tinted-lens'
p3154
aS'prankster'
p3155
asg8
S'Illumise'
p3156
sg10
F177
sg11
(dp3157
g13
F73
sg14
F65
sg15
F75
sg16
F47
sg17
F55
sg18
F85
ssg19
F6
sg20
g21
sg22
(lp3158
S'bug'
p3159
asg26
I314
sbsI315
(ipokeStructs
Pokemon_dex
p3160
(dp3161
g4
(lp3162
S'poison-point'
p3163
aS'leaf-guard'
p3164
aS'natural-cure'
p3165
asg8
S'Roselia'
p3166
sg10
F20
sg11
(dp3167
g13
F100
sg14
F50
sg15
F80
sg16
F60
sg17
F45
sg18
F65
ssg19
F3
sg20
g21
sg22
(lp3168
S'grass'
p3169
aS'poison'
p3170
asg26
I315
sbsI316
(ipokeStructs
Pokemon_dex
p3171
(dp3172
g4
(lp3173
S'sticky-hold'
p3174
aS'liquid-ooze'
p3175
aS'gluttony'
p3176
asg8
S'Gulpin'
p3177
sg10
F103
sg11
(dp3178
g13
F43
sg14
F70
sg15
F53
sg16
F43
sg17
F53
sg18
F40
ssg19
F4
sg20
g21
sg22
(lp3179
S'poison'
p3180
asg26
I316
sbsI317
(ipokeStructs
Pokemon_dex
p3181
(dp3182
g4
(lp3183
S'sticky-hold'
p3184
aS'liquid-ooze'
p3185
aS'gluttony'
p3186
asg8
S'Swalot'
p3187
sg10
F800
sg11
(dp3188
g13
F73
sg14
F100
sg15
F83
sg16
F73
sg17
F83
sg18
F55
ssg19
F17
sg20
g21
sg22
(lp3189
S'poison'
p3190
asg26
I317
sbsI318
(ipokeStructs
Pokemon_dex
p3191
(dp3192
g4
(lp3193
S'speed-boost'
p3194
aS'rough-skin'
p3195
asg8
S'Carvanha'
p3196
sg10
F208
sg11
(dp3197
g13
F65
sg14
F45
sg15
F20
sg16
F90
sg17
F20
sg18
F65
ssg19
F8
sg20
g21
sg22
(lp3198
S'water'
p3199
aS'dark'
p3200
asg26
I318
sbsI319
(ipokeStructs
Pokemon_dex
p3201
(dp3202
g4
(lp3203
S'speed-boost'
p3204
aS'rough-skin'
p3205
asg8
S'Sharpedo'
p3206
sg10
F888
sg11
(dp3207
g13
F95
sg14
F70
sg15
F40
sg16
F120
sg17
F40
sg18
F95
ssg19
F18
sg20
g21
sg22
(lp3208
S'water'
p3209
aS'dark'
p3210
asg26
I319
sbsI320
(ipokeStructs
Pokemon_dex
p3211
(dp3212
g4
(lp3213
S'oblivious'
p3214
aS'water-veil'
p3215
aS'pressure'
p3216
asg8
S'Wailmer'
p3217
sg10
F1300
sg11
(dp3218
g13
F70
sg14
F130
sg15
F35
sg16
F70
sg17
F35
sg18
F60
ssg19
F20
sg20
g21
sg22
(lp3219
S'water'
p3220
asg26
I320
sbsI321
(ipokeStructs
Pokemon_dex
p3221
(dp3222
g4
(lp3223
S'oblivious'
p3224
aS'water-veil'
p3225
aS'pressure'
p3226
asg8
S'Wailord'
p3227
sg10
F3980
sg11
(dp3228
g13
F90
sg14
F170
sg15
F45
sg16
F90
sg17
F45
sg18
F60
ssg19
F145
sg20
g21
sg22
(lp3229
S'water'
p3230
asg26
I321
sbsI322
(ipokeStructs
Pokemon_dex
p3231
(dp3232
g4
(lp3233
S'simple'
p3234
aS'oblivious'
p3235
aS'own-tempo'
p3236
asg8
S'Numel'
p3237
sg10
F240
sg11
(dp3238
g13
F65
sg14
F60
sg15
F45
sg16
F60
sg17
F40
sg18
F35
ssg19
F7
sg20
g21
sg22
(lp3239
S'fire'
p3240
aS'ground'
p3241
asg26
I322
sbsI323
(ipokeStructs
Pokemon_dex
p3242
(dp3243
g4
(lp3244
S'anger-point'
p3245
aS'magma-armor'
p3246
aS'solid-rock'
p3247
asg8
S'Camerupt'
p3248
sg10
F2200
sg11
(dp3249
g13
F105
sg14
F70
sg15
F75
sg16
F100
sg17
F70
sg18
F40
ssg19
F19
sg20
g21
sg22
(lp3250
S'fire'
p3251
aS'ground'
p3252
asg26
I323
sbsI324
(ipokeStructs
Pokemon_dex
p3253
(dp3254
g4
(lp3255
S'white-smoke'
p3256
aS'shell-armor'
p3257
asg8
S'Torkoal'
p3258
sg10
F804
sg11
(dp3259
g13
F85
sg14
F70
sg15
F70
sg16
F85
sg17
F140
sg18
F20
ssg19
F5
sg20
g21
sg22
(lp3260
S'fire'
p3261
asg26
I324
sbsI325
(ipokeStructs
Pokemon_dex
p3262
(dp3263
g4
(lp3264
S'gluttony'
p3265
aS'thick-fat'
p3266
aS'own-tempo'
p3267
asg8
S'Spoink'
p3268
sg10
F306
sg11
(dp3269
g13
F70
sg14
F60
sg15
F80
sg16
F25
sg17
F35
sg18
F60
ssg19
F7
sg20
g21
sg22
(lp3270
S'psychic'
p3271
asg26
I325
sbsI326
(ipokeStructs
Pokemon_dex
p3272
(dp3273
g4
(lp3274
S'gluttony'
p3275
aS'thick-fat'
p3276
aS'own-tempo'
p3277
asg8
S'Grumpig'
p3278
sg10
F715
sg11
(dp3279
g13
F90
sg14
F80
sg15
F110
sg16
F45
sg17
F65
sg18
F80
ssg19
F9
sg20
g21
sg22
(lp3280
S'psychic'
p3281
asg26
I326
sbsI327
(ipokeStructs
Pokemon_dex
p3282
(dp3283
g4
(lp3284
S'contrary'
p3285
aS'tangled-feet'
p3286
aS'own-tempo'
p3287
asg8
S'Spinda'
p3288
sg10
F50
sg11
(dp3289
g13
F60
sg14
F60
sg15
F60
sg16
F60
sg17
F60
sg18
F60
ssg19
F11
sg20
g21
sg22
(lp3290
S'normal'
p3291
asg26
I327
sbsI328
(ipokeStructs
Pokemon_dex
p3292
(dp3293
g4
(lp3294
S'sheer-force'
p3295
aS'arena-trap'
p3296
aS'hyper-cutter'
p3297
asg8
S'Trapinch'
p3298
sg10
F150
sg11
(dp3299
g13
F45
sg14
F45
sg15
F45
sg16
F100
sg17
F45
sg18
F10
ssg19
F7
sg20
g21
sg22
(lp3300
S'ground'
p3301
asg26
I328
sbsI329
(ipokeStructs
Pokemon_dex
p3302
(dp3303
g4
(lp3304
S'levitate'
p3305
asg8
S'Vibrava'
p3306
sg10
F153
sg11
(dp3307
g13
F50
sg14
F50
sg15
F50
sg16
F70
sg17
F50
sg18
F70
ssg19
F11
sg20
g21
sg22
(lp3308
S'dragon'
p3309
aS'ground'
p3310
asg26
I329
sbsI330
(ipokeStructs
Pokemon_dex
p3311
(dp3312
g4
(lp3313
S'levitate'
p3314
asg8
S'Flygon'
p3315
sg10
F820
sg11
(dp3316
g13
F80
sg14
F80
sg15
F80
sg16
F100
sg17
F80
sg18
F100
ssg19
F20
sg20
g21
sg22
(lp3317
S'dragon'
p3318
aS'ground'
p3319
asg26
I330
sbsI331
(ipokeStructs
Pokemon_dex
p3320
(dp3321
g4
(lp3322
S'water-absorb'
p3323
aS'sand-veil'
p3324
asg8
S'Cacnea'
p3325
sg10
F513
sg11
(dp3326
g13
F85
sg14
F50
sg15
F40
sg16
F85
sg17
F40
sg18
F35
ssg19
F4
sg20
g21
sg22
(lp3327
S'grass'
p3328
asg26
I331
sbsI332
(ipokeStructs
Pokemon_dex
p3329
(dp3330
g4
(lp3331
S'water-absorb'
p3332
aS'sand-veil'
p3333
asg8
S'Cacturne'
p3334
sg10
F774
sg11
(dp3335
g13
F115
sg14
F70
sg15
F60
sg16
F115
sg17
F60
sg18
F55
ssg19
F13
sg20
g21
sg22
(lp3336
S'dark'
p3337
aS'grass'
p3338
asg26
I332
sbsI333
(ipokeStructs
Pokemon_dex
p3339
(dp3340
g4
(lp3341
S'cloud-nine'
p3342
aS'natural-cure'
p3343
asg8
S'Swablu'
p3344
sg10
F12
sg11
(dp3345
g13
F40
sg14
F45
sg15
F75
sg16
F40
sg17
F60
sg18
F50
ssg19
F4
sg20
g21
sg22
(lp3346
S'flying'
p3347
aS'normal'
p3348
asg26
I333
sbsI334
(ipokeStructs
Pokemon_dex
p3349
(dp3350
g4
(lp3351
S'cloud-nine'
p3352
aS'natural-cure'
p3353
asg8
S'Altaria'
p3354
sg10
F206
sg11
(dp3355
g13
F70
sg14
F75
sg15
F105
sg16
F70
sg17
F90
sg18
F80
ssg19
F11
sg20
g21
sg22
(lp3356
S'flying'
p3357
aS'dragon'
p3358
asg26
I334
sbsI335
(ipokeStructs
Pokemon_dex
p3359
(dp3360
g4
(lp3361
S'toxic-boost'
p3362
aS'immunity'
p3363
asg8
S'Zangoose'
p3364
sg10
F403
sg11
(dp3365
g13
F60
sg14
F73
sg15
F60
sg16
F115
sg17
F60
sg18
F90
ssg19
F13
sg20
g21
sg22
(lp3366
S'normal'
p3367
asg26
I335
sbsI336
(ipokeStructs
Pokemon_dex
p3368
(dp3369
g4
(lp3370
S'shed-skin'
p3371
aS'infiltrator'
p3372
asg8
S'Seviper'
p3373
sg10
F525
sg11
(dp3374
g13
F100
sg14
F73
sg15
F60
sg16
F100
sg17
F60
sg18
F65
ssg19
F27
sg20
g21
sg22
(lp3375
S'poison'
p3376
asg26
I336
sbsI337
(ipokeStructs
Pokemon_dex
p3377
(dp3378
g4
(lp3379
S'levitate'
p3380
asg8
S'Lunatone'
p3381
sg10
F1680
sg11
(dp3382
g13
F95
sg14
F70
sg15
F85
sg16
F55
sg17
F65
sg18
F70
ssg19
F10
sg20
g21
sg22
(lp3383
S'psychic'
p3384
aS'rock'
p3385
asg26
I337
sbsI338
(ipokeStructs
Pokemon_dex
p3386
(dp3387
g4
(lp3388
S'levitate'
p3389
asg8
S'Solrock'
p3390
sg10
F1540
sg11
(dp3391
g13
F55
sg14
F70
sg15
F65
sg16
F95
sg17
F85
sg18
F70
ssg19
F12
sg20
g21
sg22
(lp3392
S'psychic'
p3393
aS'rock'
p3394
asg26
I338
sbsI339
(ipokeStructs
Pokemon_dex
p3395
(dp3396
g4
(lp3397
S'anticipation'
p3398
aS'oblivious'
p3399
aS'hydration'
p3400
asg8
S'Barboach'
p3401
sg10
F19
sg11
(dp3402
g13
F46
sg14
F50
sg15
F41
sg16
F48
sg17
F43
sg18
F60
ssg19
F4
sg20
g21
sg22
(lp3403
S'water'
p3404
aS'ground'
p3405
asg26
I339
sbsI340
(ipokeStructs
Pokemon_dex
p3406
(dp3407
g4
(lp3408
S'anticipation'
p3409
aS'oblivious'
p3410
aS'hydration'
p3411
asg8
S'Whiscash'
p3412
sg10
F236
sg11
(dp3413
g13
F76
sg14
F110
sg15
F71
sg16
F78
sg17
F73
sg18
F60
ssg19
F9
sg20
g21
sg22
(lp3414
S'water'
p3415
aS'ground'
p3416
asg26
I340
sbsI341
(ipokeStructs
Pokemon_dex
p3417
(dp3418
g4
(lp3419
S'adaptability'
p3420
aS'hyper-cutter'
p3421
aS'shell-armor'
p3422
asg8
S'Corphish'
p3423
sg10
F115
sg11
(dp3424
g13
F50
sg14
F43
sg15
F35
sg16
F80
sg17
F65
sg18
F35
ssg19
F6
sg20
g21
sg22
(lp3425
S'water'
p3426
asg26
I341
sbsI342
(ipokeStructs
Pokemon_dex
p3427
(dp3428
g4
(lp3429
S'adaptability'
p3430
aS'hyper-cutter'
p3431
aS'shell-armor'
p3432
asg8
S'Crawdaunt'
p3433
sg10
F328
sg11
(dp3434
g13
F90
sg14
F63
sg15
F55
sg16
F120
sg17
F85
sg18
F55
ssg19
F11
sg20
g21
sg22
(lp3435
S'water'
p3436
aS'dark'
p3437
asg26
I342
sbsI343
(ipokeStructs
Pokemon_dex
p3438
(dp3439
g4
(lp3440
S'levitate'
p3441
asg8
S'Baltoy'
p3442
sg10
F215
sg11
(dp3443
g13
F40
sg14
F40
sg15
F70
sg16
F40
sg17
F55
sg18
F55
ssg19
F5
sg20
g21
sg22
(lp3444
S'psychic'
p3445
aS'ground'
p3446
asg26
I343
sbsI344
(ipokeStructs
Pokemon_dex
p3447
(dp3448
g4
(lp3449
S'levitate'
p3450
asg8
S'Claydol'
p3451
sg10
F1080
sg11
(dp3452
g13
F70
sg14
F60
sg15
F120
sg16
F70
sg17
F105
sg18
F75
ssg19
F15
sg20
g21
sg22
(lp3453
S'psychic'
p3454
aS'ground'
p3455
asg26
I344
sbsI345
(ipokeStructs
Pokemon_dex
p3456
(dp3457
g4
(lp3458
S'storm-drain'
p3459
aS'suction-cups'
p3460
asg8
S'Lileep'
p3461
sg10
F238
sg11
(dp3462
g13
F61
sg14
F66
sg15
F87
sg16
F41
sg17
F77
sg18
F23
ssg19
F10
sg20
g21
sg22
(lp3463
S'grass'
p3464
aS'rock'
p3465
asg26
I345
sbsI346
(ipokeStructs
Pokemon_dex
p3466
(dp3467
g4
(lp3468
S'storm-drain'
p3469
aS'suction-cups'
p3470
asg8
S'Cradily'
p3471
sg10
F604
sg11
(dp3472
g13
F81
sg14
F86
sg15
F107
sg16
F81
sg17
F97
sg18
F43
ssg19
F15
sg20
g21
sg22
(lp3473
S'grass'
p3474
aS'rock'
p3475
asg26
I346
sbsI347
(ipokeStructs
Pokemon_dex
p3476
(dp3477
g4
(lp3478
S'battle-armor'
p3479
aS'swift-swim'
p3480
asg8
S'Anorith'
p3481
sg10
F125
sg11
(dp3482
g13
F40
sg14
F45
sg15
F50
sg16
F95
sg17
F50
sg18
F75
ssg19
F7
sg20
g21
sg22
(lp3483
S'bug'
p3484
aS'rock'
p3485
asg26
I347
sbsI348
(ipokeStructs
Pokemon_dex
p3486
(dp3487
g4
(lp3488
S'battle-armor'
p3489
aS'swift-swim'
p3490
asg8
S'Armaldo'
p3491
sg10
F682
sg11
(dp3492
g13
F70
sg14
F75
sg15
F80
sg16
F125
sg17
F100
sg18
F45
ssg19
F15
sg20
g21
sg22
(lp3493
S'bug'
p3494
aS'rock'
p3495
asg26
I348
sbsI349
(ipokeStructs
Pokemon_dex
p3496
(dp3497
g4
(lp3498
S'swift-swim'
p3499
aS'adaptability'
p3500
asg8
S'Feebas'
p3501
sg10
F74
sg11
(dp3502
g13
F10
sg14
F20
sg15
F55
sg16
F15
sg17
F20
sg18
F80
ssg19
F6
sg20
g21
sg22
(lp3503
S'water'
p3504
asg26
I349
sbsI350
(ipokeStructs
Pokemon_dex
p3505
(dp3506
g4
(lp3507
S'marvel-scale'
p3508
aS'cute-charm'
p3509
asg8
S'Milotic'
p3510
sg10
F1620
sg11
(dp3511
g13
F100
sg14
F95
sg15
F125
sg16
F60
sg17
F79
sg18
F81
ssg19
F62
sg20
g21
sg22
(lp3512
S'water'
p3513
asg26
I350
sbsI351
(ipokeStructs
Pokemon_dex
p3514
(dp3515
g4
(lp3516
S'forecast'
p3517
asg8
S'Castform'
p3518
sg10
F8
sg11
(dp3519
g13
F70
sg14
F70
sg15
F70
sg16
F70
sg17
F70
sg18
F70
ssg19
F3
sg20
g21
sg22
(lp3520
S'normal'
p3521
asg26
I351
sbsI352
(ipokeStructs
Pokemon_dex
p3522
(dp3523
g4
(lp3524
S'color-change'
p3525
asg8
S'Kecleon'
p3526
sg10
F220
sg11
(dp3527
g13
F60
sg14
F60
sg15
F120
sg16
F90
sg17
F70
sg18
F40
ssg19
F10
sg20
g21
sg22
(lp3528
S'normal'
p3529
asg26
I352
sbsI353
(ipokeStructs
Pokemon_dex
p3530
(dp3531
g4
(lp3532
S'cursed-body'
p3533
aS'insomnia'
p3534
aS'frisk'
p3535
asg8
S'Shuppet'
p3536
sg10
F23
sg11
(dp3537
g13
F63
sg14
F44
sg15
F33
sg16
F75
sg17
F35
sg18
F45
ssg19
F6
sg20
g21
sg22
(lp3538
S'ghost'
p3539
asg26
I353
sbsI354
(ipokeStructs
Pokemon_dex
p3540
(dp3541
g4
(lp3542
S'cursed-body'
p3543
aS'insomnia'
p3544
aS'frisk'
p3545
asg8
S'Banette'
p3546
sg10
F125
sg11
(dp3547
g13
F83
sg14
F64
sg15
F63
sg16
F115
sg17
F65
sg18
F65
ssg19
F11
sg20
g21
sg22
(lp3548
S'ghost'
p3549
asg26
I354
sbsI355
(ipokeStructs
Pokemon_dex
p3550
(dp3551
g4
(lp3552
S'levitate'
p3553
asg8
S'Duskull'
p3554
sg10
F150
sg11
(dp3555
g13
F30
sg14
F20
sg15
F90
sg16
F40
sg17
F90
sg18
F25
ssg19
F8
sg20
g21
sg22
(lp3556
S'ghost'
p3557
asg26
I355
sbsI356
(ipokeStructs
Pokemon_dex
p3558
(dp3559
g4
(lp3560
S'pressure'
p3561
asg8
S'Dusclops'
p3562
sg10
F306
sg11
(dp3563
g13
F60
sg14
F40
sg15
F130
sg16
F70
sg17
F130
sg18
F25
ssg19
F16
sg20
g21
sg22
(lp3564
S'ghost'
p3565
asg26
I356
sbsI357
(ipokeStructs
Pokemon_dex
p3566
(dp3567
g4
(lp3568
S'harvest'
p3569
aS'chlorophyll'
p3570
aS'solar-power'
p3571
asg8
S'Tropius'
p3572
sg10
F1000
sg11
(dp3573
g13
F72
sg14
F99
sg15
F87
sg16
F68
sg17
F83
sg18
F51
ssg19
F20
sg20
g21
sg22
(lp3574
S'flying'
p3575
aS'grass'
p3576
asg26
I357
sbsI358
(ipokeStructs
Pokemon_dex
p3577
(dp3578
g4
(lp3579
S'levitate'
p3580
asg8
S'Chimecho'
p3581
sg10
F10
sg11
(dp3582
g13
F95
sg14
F65
sg15
F80
sg16
F50
sg17
F70
sg18
F65
ssg19
F6
sg20
g21
sg22
(lp3583
S'psychic'
p3584
asg26
I358
sbsI359
(ipokeStructs
Pokemon_dex
p3585
(dp3586
g4
(lp3587
S'pressure'
p3588
aS'justified'
p3589
aS'super-luck'
p3590
asg8
S'Absol'
p3591
sg10
F470
sg11
(dp3592
g13
F75
sg14
F65
sg15
F60
sg16
F130
sg17
F60
sg18
F75
ssg19
F12
sg20
g21
sg22
(lp3593
S'dark'
p3594
asg26
I359
sbsI360
(ipokeStructs
Pokemon_dex
p3595
(dp3596
g4
(lp3597
S'shadow-tag'
p3598
aS'telepathy'
p3599
asg8
S'Wynaut'
p3600
sg10
F140
sg11
(dp3601
g13
F23
sg14
F95
sg15
F48
sg16
F23
sg17
F48
sg18
F23
ssg19
F6
sg20
g21
sg22
(lp3602
S'psychic'
p3603
asg26
I360
sbsI361
(ipokeStructs
Pokemon_dex
p3604
(dp3605
g4
(lp3606
S'inner-focus'
p3607
aS'ice-body'
p3608
aS'moody'
p3609
asg8
S'Snorunt'
p3610
sg10
F168
sg11
(dp3611
g13
F50
sg14
F50
sg15
F50
sg16
F50
sg17
F50
sg18
F50
ssg19
F7
sg20
g21
sg22
(lp3612
S'ice'
p3613
asg26
I361
sbsI362
(ipokeStructs
Pokemon_dex
p3614
(dp3615
g4
(lp3616
S'inner-focus'
p3617
aS'ice-body'
p3618
aS'moody'
p3619
asg8
S'Glalie'
p3620
sg10
F2565
sg11
(dp3621
g13
F80
sg14
F80
sg15
F80
sg16
F80
sg17
F80
sg18
F80
ssg19
F15
sg20
g21
sg22
(lp3622
S'ice'
p3623
asg26
I362
sbsI363
(ipokeStructs
Pokemon_dex
p3624
(dp3625
g4
(lp3626
S'oblivious'
p3627
aS'thick-fat'
p3628
aS'ice-body'
p3629
asg8
S'Spheal'
p3630
sg10
F395
sg11
(dp3631
g13
F55
sg14
F70
sg15
F50
sg16
F40
sg17
F50
sg18
F25
ssg19
F8
sg20
g21
sg22
(lp3632
S'water'
p3633
aS'ice'
p3634
asg26
I363
sbsI364
(ipokeStructs
Pokemon_dex
p3635
(dp3636
g4
(lp3637
S'oblivious'
p3638
aS'thick-fat'
p3639
aS'ice-body'
p3640
asg8
S'Sealeo'
p3641
sg10
F876
sg11
(dp3642
g13
F75
sg14
F90
sg15
F70
sg16
F60
sg17
F70
sg18
F45
ssg19
F11
sg20
g21
sg22
(lp3643
S'water'
p3644
aS'ice'
p3645
asg26
I364
sbsI365
(ipokeStructs
Pokemon_dex
p3646
(dp3647
g4
(lp3648
S'oblivious'
p3649
aS'thick-fat'
p3650
aS'ice-body'
p3651
asg8
S'Walrein'
p3652
sg10
F1506
sg11
(dp3653
g13
F95
sg14
F110
sg15
F90
sg16
F80
sg17
F90
sg18
F65
ssg19
F14
sg20
g21
sg22
(lp3654
S'water'
p3655
aS'ice'
p3656
asg26
I365
sbsI366
(ipokeStructs
Pokemon_dex
p3657
(dp3658
g4
(lp3659
S'rattled'
p3660
aS'shell-armor'
p3661
asg8
S'Clamperl'
p3662
sg10
F525
sg11
(dp3663
g13
F74
sg14
F35
sg15
F55
sg16
F64
sg17
F85
sg18
F32
ssg19
F4
sg20
g21
sg22
(lp3664
S'water'
p3665
asg26
I366
sbsI367
(ipokeStructs
Pokemon_dex
p3666
(dp3667
g4
(lp3668
S'swift-swim'
p3669
aS'water-veil'
p3670
asg8
S'Huntail'
p3671
sg10
F270
sg11
(dp3672
g13
F94
sg14
F55
sg15
F75
sg16
F104
sg17
F105
sg18
F52
ssg19
F17
sg20
g21
sg22
(lp3673
S'water'
p3674
asg26
I367
sbsI368
(ipokeStructs
Pokemon_dex
p3675
(dp3676
g4
(lp3677
S'swift-swim'
p3678
aS'hydration'
p3679
asg8
S'Gorebyss'
p3680
sg10
F226
sg11
(dp3681
g13
F114
sg14
F55
sg15
F75
sg16
F84
sg17
F105
sg18
F52
ssg19
F18
sg20
g21
sg22
(lp3682
S'water'
p3683
asg26
I368
sbsI369
(ipokeStructs
Pokemon_dex
p3684
(dp3685
g4
(lp3686
S'swift-swim'
p3687
aS'rock-head'
p3688
aS'sturdy'
p3689
asg8
S'Relicanth'
p3690
sg10
F234
sg11
(dp3691
g13
F45
sg14
F100
sg15
F65
sg16
F90
sg17
F130
sg18
F55
ssg19
F10
sg20
g21
sg22
(lp3692
S'water'
p3693
aS'rock'
p3694
asg26
I369
sbsI370
(ipokeStructs
Pokemon_dex
p3695
(dp3696
g4
(lp3697
S'swift-swim'
p3698
aS'hydration'
p3699
asg8
S'Luvdisc'
p3700
sg10
F87
sg11
(dp3701
g13
F40
sg14
F43
sg15
F65
sg16
F30
sg17
F55
sg18
F97
ssg19
F6
sg20
g21
sg22
(lp3702
S'water'
p3703
asg26
I370
sbsI371
(ipokeStructs
Pokemon_dex
p3704
(dp3705
g4
(lp3706
S'sheer-force'
p3707
aS'rock-head'
p3708
asg8
S'Bagon'
p3709
sg10
F421
sg11
(dp3710
g13
F40
sg14
F45
sg15
F30
sg16
F75
sg17
F60
sg18
F50
ssg19
F6
sg20
g21
sg22
(lp3711
S'dragon'
p3712
asg26
I371
sbsI372
(ipokeStructs
Pokemon_dex
p3713
(dp3714
g4
(lp3715
S'overcoat'
p3716
aS'rock-head'
p3717
asg8
S'Shelgon'
p3718
sg10
F1105
sg11
(dp3719
g13
F60
sg14
F65
sg15
F50
sg16
F95
sg17
F100
sg18
F50
ssg19
F11
sg20
g21
sg22
(lp3720
S'dragon'
p3721
asg26
I372
sbsI373
(ipokeStructs
Pokemon_dex
p3722
(dp3723
g4
(lp3724
S'intimidate'
p3725
aS'moxie'
p3726
asg8
S'Salamence'
p3727
sg10
F1026
sg11
(dp3728
g13
F110
sg14
F95
sg15
F80
sg16
F135
sg17
F80
sg18
F100
ssg19
F15
sg20
g21
sg22
(lp3729
S'flying'
p3730
aS'dragon'
p3731
asg26
I373
sbsI374
(ipokeStructs
Pokemon_dex
p3732
(dp3733
g4
(lp3734
S'light-metal'
p3735
aS'clear-body'
p3736
asg8
S'Beldum'
p3737
sg10
F952
sg11
(dp3738
g13
F35
sg14
F40
sg15
F60
sg16
F55
sg17
F80
sg18
F30
ssg19
F6
sg20
g21
sg22
(lp3739
S'steel'
p3740
aS'psychic'
p3741
asg26
I374
sbsI375
(ipokeStructs
Pokemon_dex
p3742
(dp3743
g4
(lp3744
S'light-metal'
p3745
aS'clear-body'
p3746
asg8
S'Metang'
p3747
sg10
F2025
sg11
(dp3748
g13
F55
sg14
F60
sg15
F80
sg16
F75
sg17
F100
sg18
F50
ssg19
F12
sg20
g21
sg22
(lp3749
S'steel'
p3750
aS'psychic'
p3751
asg26
I375
sbsI376
(ipokeStructs
Pokemon_dex
p3752
(dp3753
g4
(lp3754
S'light-metal'
p3755
aS'clear-body'
p3756
asg8
S'Metagross'
p3757
sg10
F5500
sg11
(dp3758
g13
F95
sg14
F80
sg15
F90
sg16
F135
sg17
F130
sg18
F70
ssg19
F16
sg20
g21
sg22
(lp3759
S'steel'
p3760
aS'psychic'
p3761
asg26
I376
sbsI377
(ipokeStructs
Pokemon_dex
p3762
(dp3763
g4
(lp3764
S'clear-body'
p3765
aS'sturdy'
p3766
asg8
S'Regirock'
p3767
sg10
F2300
sg11
(dp3768
g13
F50
sg14
F80
sg15
F100
sg16
F100
sg17
F200
sg18
F50
ssg19
F17
sg20
g21
sg22
(lp3769
S'rock'
p3770
asg26
I377
sbsI378
(ipokeStructs
Pokemon_dex
p3771
(dp3772
g4
(lp3773
S'ice-body'
p3774
aS'clear-body'
p3775
asg8
S'Regice'
p3776
sg10
F1750
sg11
(dp3777
g13
F100
sg14
F80
sg15
F200
sg16
F50
sg17
F100
sg18
F50
ssg19
F18
sg20
g21
sg22
(lp3778
S'ice'
p3779
asg26
I378
sbsI379
(ipokeStructs
Pokemon_dex
p3780
(dp3781
g4
(lp3782
S'light-metal'
p3783
aS'clear-body'
p3784
asg8
S'Registeel'
p3785
sg10
F2050
sg11
(dp3786
g13
F75
sg14
F80
sg15
F150
sg16
F75
sg17
F150
sg18
F50
ssg19
F19
sg20
g21
sg22
(lp3787
S'steel'
p3788
asg26
I379
sbsI380
(ipokeStructs
Pokemon_dex
p3789
(dp3790
g4
(lp3791
S'levitate'
p3792
asg8
S'Latias'
p3793
sg10
F400
sg11
(dp3794
g13
F110
sg14
F80
sg15
F130
sg16
F80
sg17
F90
sg18
F110
ssg19
F14
sg20
g21
sg22
(lp3795
S'psychic'
p3796
aS'dragon'
p3797
asg26
I380
sbsI381
(ipokeStructs
Pokemon_dex
p3798
(dp3799
g4
(lp3800
S'levitate'
p3801
asg8
S'Latios'
p3802
sg10
F600
sg11
(dp3803
g13
F130
sg14
F80
sg15
F110
sg16
F90
sg17
F80
sg18
F110
ssg19
F20
sg20
g21
sg22
(lp3804
S'psychic'
p3805
aS'dragon'
p3806
asg26
I381
sbsI382
(ipokeStructs
Pokemon_dex
p3807
(dp3808
g4
(lp3809
S'drizzle'
p3810
asg8
S'Kyogre'
p3811
sg10
F3520
sg11
(dp3812
g13
F150
sg14
F100
sg15
F140
sg16
F100
sg17
F90
sg18
F90
ssg19
F45
sg20
g21
sg22
(lp3813
S'water'
p3814
asg26
I382
sbsI383
(ipokeStructs
Pokemon_dex
p3815
(dp3816
g4
(lp3817
S'drought'
p3818
asg8
S'Groudon'
p3819
sg10
F9500
sg11
(dp3820
g13
F100
sg14
F100
sg15
F90
sg16
F150
sg17
F140
sg18
F90
ssg19
F35
sg20
g21
sg22
(lp3821
S'ground'
p3822
asg26
I383
sbsI384
(ipokeStructs
Pokemon_dex
p3823
(dp3824
g4
(lp3825
S'air-lock'
p3826
asg8
S'Rayquaza'
p3827
sg10
F2065
sg11
(dp3828
g13
F150
sg14
F105
sg15
F90
sg16
F150
sg17
F90
sg18
F95
ssg19
F70
sg20
g21
sg22
(lp3829
S'flying'
p3830
aS'dragon'
p3831
asg26
I384
sbsI385
(ipokeStructs
Pokemon_dex
p3832
(dp3833
g4
(lp3834
S'serene-grace'
p3835
asg8
S'Jirachi'
p3836
sg10
F11
sg11
(dp3837
g13
F100
sg14
F100
sg15
F100
sg16
F100
sg17
F100
sg18
F100
ssg19
F3
sg20
g21
sg22
(lp3838
S'steel'
p3839
aS'psychic'
p3840
asg26
I385
sbsI386
(ipokeStructs
Pokemon_dex
p3841
(dp3842
g4
(lp3843
S'pressure'
p3844
asg8
S'Deoxys-normal'
p3845
sg10
F608
sg11
(dp3846
g13
F150
sg14
F50
sg15
F50
sg16
F150
sg17
F50
sg18
F150
ssg19
F17
sg20
g21
sg22
(lp3847
S'psychic'
p3848
asg26
I386
sbsI387
(ipokeStructs
Pokemon_dex
p3849
(dp3850
g4
(lp3851
S'shell-armor'
p3852
aS'overgrow'
p3853
asg8
S'Turtwig'
p3854
sg10
F102
sg11
(dp3855
g13
F45
sg14
F55
sg15
F55
sg16
F68
sg17
F64
sg18
F31
ssg19
F4
sg20
g21
sg22
(lp3856
S'grass'
p3857
asg26
I387
sbsI388
(ipokeStructs
Pokemon_dex
p3858
(dp3859
g4
(lp3860
S'shell-armor'
p3861
aS'overgrow'
p3862
asg8
S'Grotle'
p3863
sg10
F970
sg11
(dp3864
g13
F55
sg14
F75
sg15
F65
sg16
F89
sg17
F85
sg18
F36
ssg19
F11
sg20
g21
sg22
(lp3865
S'grass'
p3866
asg26
I388
sbsI389
(ipokeStructs
Pokemon_dex
p3867
(dp3868
g4
(lp3869
S'shell-armor'
p3870
aS'overgrow'
p3871
asg8
S'Torterra'
p3872
sg10
F3100
sg11
(dp3873
g13
F75
sg14
F95
sg15
F85
sg16
F109
sg17
F105
sg18
F56
ssg19
F22
sg20
g21
sg22
(lp3874
S'grass'
p3875
aS'ground'
p3876
asg26
I389
sbsI390
(ipokeStructs
Pokemon_dex
p3877
(dp3878
g4
(lp3879
S'iron-fist'
p3880
aS'blaze'
p3881
asg8
S'Chimchar'
p3882
sg10
F62
sg11
(dp3883
g13
F58
sg14
F44
sg15
F44
sg16
F58
sg17
F44
sg18
F61
ssg19
F5
sg20
g21
sg22
(lp3884
S'fire'
p3885
asg26
I390
sbsI391
(ipokeStructs
Pokemon_dex
p3886
(dp3887
g4
(lp3888
S'iron-fist'
p3889
aS'blaze'
p3890
asg8
S'Monferno'
p3891
sg10
F220
sg11
(dp3892
g13
F78
sg14
F64
sg15
F52
sg16
F78
sg17
F52
sg18
F81
ssg19
F9
sg20
g21
sg22
(lp3893
S'fire'
p3894
aS'fighting'
p3895
asg26
I391
sbsI392
(ipokeStructs
Pokemon_dex
p3896
(dp3897
g4
(lp3898
S'iron-fist'
p3899
aS'blaze'
p3900
asg8
S'Infernape'
p3901
sg10
F550
sg11
(dp3902
g13
F104
sg14
F76
sg15
F71
sg16
F104
sg17
F71
sg18
F108
ssg19
F12
sg20
g21
sg22
(lp3903
S'fire'
p3904
aS'fighting'
p3905
asg26
I392
sbsI393
(ipokeStructs
Pokemon_dex
p3906
(dp3907
g4
(lp3908
S'torrent'
p3909
aS'defiant'
p3910
asg8
S'Piplup'
p3911
sg10
F52
sg11
(dp3912
g13
F61
sg14
F53
sg15
F56
sg16
F51
sg17
F53
sg18
F40
ssg19
F4
sg20
g21
sg22
(lp3913
S'water'
p3914
asg26
I393
sbsI394
(ipokeStructs
Pokemon_dex
p3915
(dp3916
g4
(lp3917
S'torrent'
p3918
aS'defiant'
p3919
asg8
S'Prinplup'
p3920
sg10
F230
sg11
(dp3921
g13
F81
sg14
F64
sg15
F76
sg16
F66
sg17
F68
sg18
F50
ssg19
F8
sg20
g21
sg22
(lp3922
S'water'
p3923
asg26
I394
sbsI395
(ipokeStructs
Pokemon_dex
p3924
(dp3925
g4
(lp3926
S'torrent'
p3927
aS'defiant'
p3928
asg8
S'Empoleon'
p3929
sg10
F845
sg11
(dp3930
g13
F111
sg14
F84
sg15
F101
sg16
F86
sg17
F88
sg18
F60
ssg19
F17
sg20
g21
sg22
(lp3931
S'steel'
p3932
aS'water'
p3933
asg26
I395
sbsI396
(ipokeStructs
Pokemon_dex
p3934
(dp3935
g4
(lp3936
S'keen-eye'
p3937
asg8
S'Starly'
p3938
sg10
F20
sg11
(dp3939
g13
F30
sg14
F40
sg15
F30
sg16
F55
sg17
F30
sg18
F60
ssg19
F3
sg20
g21
sg22
(lp3940
S'flying'
p3941
aS'normal'
p3942
asg26
I396
sbsI397
(ipokeStructs
Pokemon_dex
p3943
(dp3944
g4
(lp3945
S'intimidate'
p3946
aS'reckless'
p3947
asg8
S'Staravia'
p3948
sg10
F155
sg11
(dp3949
g13
F40
sg14
F55
sg15
F40
sg16
F75
sg17
F50
sg18
F80
ssg19
F6
sg20
g21
sg22
(lp3950
S'flying'
p3951
aS'normal'
p3952
asg26
I397
sbsI398
(ipokeStructs
Pokemon_dex
p3953
(dp3954
g4
(lp3955
S'intimidate'
p3956
aS'reckless'
p3957
asg8
S'Staraptor'
p3958
sg10
F249
sg11
(dp3959
g13
F50
sg14
F85
sg15
F60
sg16
F120
sg17
F70
sg18
F100
ssg19
F12
sg20
g21
sg22
(lp3960
S'flying'
p3961
aS'normal'
p3962
asg26
I398
sbsI399
(ipokeStructs
Pokemon_dex
p3963
(dp3964
g4
(lp3965
S'simple'
p3966
aS'unaware'
p3967
aS'moody'
p3968
asg8
S'Bidoof'
p3969
sg10
F200
sg11
(dp3970
g13
F35
sg14
F59
sg15
F40
sg16
F45
sg17
F40
sg18
F31
ssg19
F5
sg20
g21
sg22
(lp3971
S'normal'
p3972
asg26
I399
sbsI400
(ipokeStructs
Pokemon_dex
p3973
(dp3974
g4
(lp3975
S'simple'
p3976
aS'unaware'
p3977
aS'moody'
p3978
asg8
S'Bibarel'
p3979
sg10
F315
sg11
(dp3980
g13
F55
sg14
F79
sg15
F60
sg16
F85
sg17
F60
sg18
F71
ssg19
F10
sg20
g21
sg22
(lp3981
S'water'
p3982
aS'normal'
p3983
asg26
I400
sbsI401
(ipokeStructs
Pokemon_dex
p3984
(dp3985
g4
(lp3986
S'shed-skin'
p3987
aS'run-away'
p3988
asg8
S'Kricketot'
p3989
sg10
F22
sg11
(dp3990
g13
F25
sg14
F37
sg15
F41
sg16
F25
sg17
F41
sg18
F25
ssg19
F3
sg20
g21
sg22
(lp3991
S'bug'
p3992
asg26
I401
sbsI402
(ipokeStructs
Pokemon_dex
p3993
(dp3994
g4
(lp3995
S'technician'
p3996
aS'swarm'
p3997
asg8
S'Kricketune'
p3998
sg10
F255
sg11
(dp3999
g13
F55
sg14
F77
sg15
F51
sg16
F85
sg17
F51
sg18
F65
ssg19
F10
sg20
g21
sg22
(lp4000
S'bug'
p4001
asg26
I402
sbsI403
(ipokeStructs
Pokemon_dex
p4002
(dp4003
g4
(lp4004
S'intimidate'
p4005
aS'guts'
p4006
aS'rivalry'
p4007
asg8
S'Shinx'
p4008
sg10
F95
sg11
(dp4009
g13
F40
sg14
F45
sg15
F34
sg16
F65
sg17
F34
sg18
F45
ssg19
F5
sg20
g21
sg22
(lp4010
S'electric'
p4011
asg26
I403
sbsI404
(ipokeStructs
Pokemon_dex
p4012
(dp4013
g4
(lp4014
S'intimidate'
p4015
aS'guts'
p4016
aS'rivalry'
p4017
asg8
S'Luxio'
p4018
sg10
F305
sg11
(dp4019
g13
F60
sg14
F60
sg15
F49
sg16
F85
sg17
F49
sg18
F60
ssg19
F9
sg20
g21
sg22
(lp4020
S'electric'
p4021
asg26
I404
sbsI405
(ipokeStructs
Pokemon_dex
p4022
(dp4023
g4
(lp4024
S'intimidate'
p4025
aS'guts'
p4026
aS'rivalry'
p4027
asg8
S'Luxray'
p4028
sg10
F420
sg11
(dp4029
g13
F95
sg14
F80
sg15
F79
sg16
F120
sg17
F79
sg18
F70
ssg19
F14
sg20
g21
sg22
(lp4030
S'electric'
p4031
asg26
I405
sbsI406
(ipokeStructs
Pokemon_dex
p4032
(dp4033
g4
(lp4034
S'poison-point'
p4035
aS'leaf-guard'
p4036
aS'natural-cure'
p4037
asg8
S'Budew'
p4038
sg10
F12
sg11
(dp4039
g13
F50
sg14
F40
sg15
F70
sg16
F30
sg17
F35
sg18
F55
ssg19
F2
sg20
g21
sg22
(lp4040
S'grass'
p4041
aS'poison'
p4042
asg26
I406
sbsI407
(ipokeStructs
Pokemon_dex
p4043
(dp4044
g4
(lp4045
S'technician'
p4046
aS'poison-point'
p4047
aS'natural-cure'
p4048
asg8
S'Roserade'
p4049
sg10
F145
sg11
(dp4050
g13
F125
sg14
F60
sg15
F105
sg16
F70
sg17
F65
sg18
F90
ssg19
F9
sg20
g21
sg22
(lp4051
S'grass'
p4052
aS'poison'
p4053
asg26
I407
sbsI408
(ipokeStructs
Pokemon_dex
p4054
(dp4055
g4
(lp4056
S'sheer-force'
p4057
aS'mold-breaker'
p4058
asg8
S'Cranidos'
p4059
sg10
F315
sg11
(dp4060
g13
F30
sg14
F67
sg15
F30
sg16
F125
sg17
F40
sg18
F58
ssg19
F9
sg20
g21
sg22
(lp4061
S'rock'
p4062
asg26
I408
sbsI409
(ipokeStructs
Pokemon_dex
p4063
(dp4064
g4
(lp4065
S'sheer-force'
p4066
aS'mold-breaker'
p4067
asg8
S'Rampardos'
p4068
sg10
F1025
sg11
(dp4069
g13
F65
sg14
F97
sg15
F50
sg16
F165
sg17
F60
sg18
F58
ssg19
F16
sg20
g21
sg22
(lp4070
S'rock'
p4071
asg26
I409
sbsI410
(ipokeStructs
Pokemon_dex
p4072
(dp4073
g4
(lp4074
S'soundproof'
p4075
aS'sturdy'
p4076
asg8
S'Shieldon'
p4077
sg10
F570
sg11
(dp4078
g13
F42
sg14
F30
sg15
F88
sg16
F42
sg17
F118
sg18
F30
ssg19
F5
sg20
g21
sg22
(lp4079
S'steel'
p4080
aS'rock'
p4081
asg26
I410
sbsI411
(ipokeStructs
Pokemon_dex
p4082
(dp4083
g4
(lp4084
S'soundproof'
p4085
aS'sturdy'
p4086
asg8
S'Bastiodon'
p4087
sg10
F1495
sg11
(dp4088
g13
F47
sg14
F60
sg15
F138
sg16
F52
sg17
F168
sg18
F30
ssg19
F13
sg20
g21
sg22
(lp4089
S'steel'
p4090
aS'rock'
p4091
asg26
I411
sbsI412
(ipokeStructs
Pokemon_dex
p4092
(dp4093
g4
(lp4094
S'shed-skin'
p4095
aS'overcoat'
p4096
asg8
S'Burmy'
p4097
sg10
F34
sg11
(dp4098
g13
F29
sg14
F40
sg15
F45
sg16
F29
sg17
F45
sg18
F36
ssg19
F2
sg20
g21
sg22
(lp4099
S'bug'
p4100
asg26
I412
sbsI413
(ipokeStructs
Pokemon_dex
p4101
(dp4102
g4
(lp4103
S'overcoat'
p4104
aS'anticipation'
p4105
asg8
S'Wormadam-plant'
p4106
sg10
F65
sg11
(dp4107
g13
F79
sg14
F60
sg15
F105
sg16
F59
sg17
F85
sg18
F36
ssg19
F5
sg20
g21
sg22
(lp4108
S'grass'
p4109
aS'bug'
p4110
asg26
I413
sbsI414
(ipokeStructs
Pokemon_dex
p4111
(dp4112
g4
(lp4113
S'swarm'
p4114
aS'tinted-lens'
p4115
asg8
S'Mothim'
p4116
sg10
F233
sg11
(dp4117
g13
F94
sg14
F70
sg15
F50
sg16
F94
sg17
F50
sg18
F66
ssg19
F9
sg20
g21
sg22
(lp4118
S'flying'
p4119
aS'bug'
p4120
asg26
I414
sbsI415
(ipokeStructs
Pokemon_dex
p4121
(dp4122
g4
(lp4123
S'honey-gather'
p4124
aS'hustle'
p4125
asg8
S'Combee'
p4126
sg10
F55
sg11
(dp4127
g13
F30
sg14
F30
sg15
F42
sg16
F30
sg17
F42
sg18
F70
ssg19
F3
sg20
g21
sg22
(lp4128
S'flying'
p4129
aS'bug'
p4130
asg26
I415
sbsI416
(ipokeStructs
Pokemon_dex
p4131
(dp4132
g4
(lp4133
S'pressure'
p4134
aS'unnerve'
p4135
asg8
S'Vespiquen'
p4136
sg10
F385
sg11
(dp4137
g13
F80
sg14
F70
sg15
F102
sg16
F80
sg17
F102
sg18
F40
ssg19
F12
sg20
g21
sg22
(lp4138
S'flying'
p4139
aS'bug'
p4140
asg26
I416
sbsI417
(ipokeStructs
Pokemon_dex
p4141
(dp4142
g4
(lp4143
S'pickup'
p4144
aS'run-away'
p4145
aS'volt-absorb'
p4146
asg8
S'Pachirisu'
p4147
sg10
F39
sg11
(dp4148
g13
F45
sg14
F60
sg15
F90
sg16
F45
sg17
F70
sg18
F95
ssg19
F4
sg20
g21
sg22
(lp4149
S'electric'
p4150
asg26
I417
sbsI418
(ipokeStructs
Pokemon_dex
p4151
(dp4152
g4
(lp4153
S'swift-swim'
p4154
aS'water-veil'
p4155
asg8
S'Buizel'
p4156
sg10
F295
sg11
(dp4157
g13
F60
sg14
F55
sg15
F30
sg16
F65
sg17
F35
sg18
F85
ssg19
F7
sg20
g21
sg22
(lp4158
S'water'
p4159
asg26
I418
sbsI419
(ipokeStructs
Pokemon_dex
p4160
(dp4161
g4
(lp4162
S'swift-swim'
p4163
aS'water-veil'
p4164
asg8
S'Floatzel'
p4165
sg10
F335
sg11
(dp4166
g13
F85
sg14
F85
sg15
F50
sg16
F105
sg17
F55
sg18
F115
ssg19
F11
sg20
g21
sg22
(lp4167
S'water'
p4168
asg26
I419
sbsI420
(ipokeStructs
Pokemon_dex
p4169
(dp4170
g4
(lp4171
S'chlorophyll'
p4172
asg8
S'Cherubi'
p4173
sg10
F33
sg11
(dp4174
g13
F62
sg14
F45
sg15
F53
sg16
F35
sg17
F45
sg18
F35
ssg19
F4
sg20
g21
sg22
(lp4175
S'grass'
p4176
asg26
I420
sbsI421
(ipokeStructs
Pokemon_dex
p4177
(dp4178
g4
(lp4179
S'flower-gift'
p4180
asg8
S'Cherrim'
p4181
sg10
F93
sg11
(dp4182
g13
F87
sg14
F70
sg15
F78
sg16
F60
sg17
F70
sg18
F85
ssg19
F5
sg20
g21
sg22
(lp4183
S'grass'
p4184
asg26
I421
sbsI422
(ipokeStructs
Pokemon_dex
p4185
(dp4186
g4
(lp4187
S'storm-drain'
p4188
aS'sticky-hold'
p4189
aS'sand-force'
p4190
asg8
S'Shellos'
p4191
sg10
F63
sg11
(dp4192
g13
F57
sg14
F76
sg15
F62
sg16
F48
sg17
F48
sg18
F34
ssg19
F3
sg20
g21
sg22
(lp4193
S'water'
p4194
asg26
I422
sbsI423
(ipokeStructs
Pokemon_dex
p4195
(dp4196
g4
(lp4197
S'storm-drain'
p4198
aS'sticky-hold'
p4199
aS'sand-force'
p4200
asg8
S'Gastrodon'
p4201
sg10
F299
sg11
(dp4202
g13
F92
sg14
F111
sg15
F82
sg16
F83
sg17
F68
sg18
F39
ssg19
F9
sg20
g21
sg22
(lp4203
S'water'
p4204
aS'ground'
p4205
asg26
I423
sbsI424
(ipokeStructs
Pokemon_dex
p4206
(dp4207
g4
(lp4208
S'technician'
p4209
aS'pickup'
p4210
aS'skill-link'
p4211
asg8
S'Ambipom'
p4212
sg10
F203
sg11
(dp4213
g13
F60
sg14
F75
sg15
F66
sg16
F100
sg17
F66
sg18
F115
ssg19
F12
sg20
g21
sg22
(lp4214
S'normal'
p4215
asg26
I424
sbsI425
(ipokeStructs
Pokemon_dex
p4216
(dp4217
g4
(lp4218
S'aftermath'
p4219
aS'unburden'
p4220
aS'flare-boost'
p4221
asg8
S'Drifloon'
p4222
sg10
F12
sg11
(dp4223
g13
F60
sg14
F90
sg15
F44
sg16
F50
sg17
F34
sg18
F70
ssg19
F4
sg20
g21
sg22
(lp4224
S'ghost'
p4225
aS'flying'
p4226
asg26
I425
sbsI426
(ipokeStructs
Pokemon_dex
p4227
(dp4228
g4
(lp4229
S'aftermath'
p4230
aS'unburden'
p4231
aS'flare-boost'
p4232
asg8
S'Drifblim'
p4233
sg10
F150
sg11
(dp4234
g13
F90
sg14
F150
sg15
F54
sg16
F80
sg17
F44
sg18
F80
ssg19
F12
sg20
g21
sg22
(lp4235
S'ghost'
p4236
aS'flying'
p4237
asg26
I426
sbsI427
(ipokeStructs
Pokemon_dex
p4238
(dp4239
g4
(lp4240
S'klutz'
p4241
aS'run-away'
p4242
aS'limber'
p4243
asg8
S'Buneary'
p4244
sg10
F55
sg11
(dp4245
g13
F44
sg14
F55
sg15
F56
sg16
F66
sg17
F44
sg18
F85
ssg19
F4
sg20
g21
sg22
(lp4246
S'normal'
p4247
asg26
I427
sbsI428
(ipokeStructs
Pokemon_dex
p4248
(dp4249
g4
(lp4250
S'klutz'
p4251
aS'cute-charm'
p4252
aS'limber'
p4253
asg8
S'Lopunny'
p4254
sg10
F333
sg11
(dp4255
g13
F54
sg14
F65
sg15
F96
sg16
F76
sg17
F84
sg18
F105
ssg19
F12
sg20
g21
sg22
(lp4256
S'normal'
p4257
asg26
I428
sbsI429
(ipokeStructs
Pokemon_dex
p4258
(dp4259
g4
(lp4260
S'levitate'
p4261
asg8
S'Mismagius'
p4262
sg10
F44
sg11
(dp4263
g13
F105
sg14
F60
sg15
F105
sg16
F60
sg17
F60
sg18
F105
ssg19
F9
sg20
g21
sg22
(lp4264
S'ghost'
p4265
asg26
I429
sbsI430
(ipokeStructs
Pokemon_dex
p4266
(dp4267
g4
(lp4268
S'moxie'
p4269
aS'super-luck'
p4270
aS'insomnia'
p4271
asg8
S'Honchkrow'
p4272
sg10
F273
sg11
(dp4273
g13
F105
sg14
F100
sg15
F52
sg16
F125
sg17
F52
sg18
F71
ssg19
F9
sg20
g21
sg22
(lp4274
S'dark'
p4275
aS'flying'
p4276
asg26
I430
sbsI431
(ipokeStructs
Pokemon_dex
p4277
(dp4278
g4
(lp4279
S'own-tempo'
p4280
aS'keen-eye'
p4281
aS'limber'
p4282
asg8
S'Glameow'
p4283
sg10
F39
sg11
(dp4284
g13
F42
sg14
F49
sg15
F37
sg16
F55
sg17
F42
sg18
F85
ssg19
F5
sg20
g21
sg22
(lp4285
S'normal'
p4286
asg26
I431
sbsI432
(ipokeStructs
Pokemon_dex
p4287
(dp4288
g4
(lp4289
S'thick-fat'
p4290
aS'defiant'
p4291
aS'own-tempo'
p4292
asg8
S'Purugly'
p4293
sg10
F438
sg11
(dp4294
g13
F64
sg14
F71
sg15
F59
sg16
F82
sg17
F64
sg18
F112
ssg19
F10
sg20
g21
sg22
(lp4295
S'normal'
p4296
asg26
I432
sbsI433
(ipokeStructs
Pokemon_dex
p4297
(dp4298
g4
(lp4299
S'levitate'
p4300
asg8
S'Chingling'
p4301
sg10
F6
sg11
(dp4302
g13
F65
sg14
F45
sg15
F50
sg16
F30
sg17
F50
sg18
F45
ssg19
F2
sg20
g21
sg22
(lp4303
S'psychic'
p4304
asg26
I433
sbsI434
(ipokeStructs
Pokemon_dex
p4305
(dp4306
g4
(lp4307
S'aftermath'
p4308
aS'keen-eye'
p4309
aS'stench'
p4310
asg8
S'Stunky'
p4311
sg10
F192
sg11
(dp4312
g13
F41
sg14
F63
sg15
F41
sg16
F63
sg17
F47
sg18
F74
ssg19
F4
sg20
g21
sg22
(lp4313
S'dark'
p4314
aS'poison'
p4315
asg26
I434
sbsI435
(ipokeStructs
Pokemon_dex
p4316
(dp4317
g4
(lp4318
S'aftermath'
p4319
aS'keen-eye'
p4320
aS'stench'
p4321
asg8
S'Skuntank'
p4322
sg10
F380
sg11
(dp4323
g13
F71
sg14
F103
sg15
F61
sg16
F93
sg17
F67
sg18
F84
ssg19
F10
sg20
g21
sg22
(lp4324
S'dark'
p4325
aS'poison'
p4326
asg26
I435
sbsI436
(ipokeStructs
Pokemon_dex
p4327
(dp4328
g4
(lp4329
S'levitate'
p4330
aS'heavy-metal'
p4331
aS'heatproof'
p4332
asg8
S'Bronzor'
p4333
sg10
F605
sg11
(dp4334
g13
F24
sg14
F57
sg15
F86
sg16
F24
sg17
F86
sg18
F23
ssg19
F5
sg20
g21
sg22
(lp4335
S'steel'
p4336
aS'psychic'
p4337
asg26
I436
sbsI437
(ipokeStructs
Pokemon_dex
p4338
(dp4339
g4
(lp4340
S'levitate'
p4341
aS'heavy-metal'
p4342
aS'heatproof'
p4343
asg8
S'Bronzong'
p4344
sg10
F1870
sg11
(dp4345
g13
F79
sg14
F67
sg15
F116
sg16
F89
sg17
F116
sg18
F33
ssg19
F13
sg20
g21
sg22
(lp4346
S'steel'
p4347
aS'psychic'
p4348
asg26
I437
sbsI438
(ipokeStructs
Pokemon_dex
p4349
(dp4350
g4
(lp4351
S'rattled'
p4352
aS'rock-head'
p4353
aS'sturdy'
p4354
asg8
S'Bonsly'
p4355
sg10
F150
sg11
(dp4356
g13
F10
sg14
F50
sg15
F45
sg16
F80
sg17
F95
sg18
F10
ssg19
F5
sg20
g21
sg22
(lp4357
S'rock'
p4358
asg26
I438
sbsI439
(ipokeStructs
Pokemon_dex
p4359
(dp4360
g4
(lp4361
S'technician'
p4362
aS'filter'
p4363
aS'soundproof'
p4364
asg8
S'Mime-jr'
p4365
sg10
F130
sg11
(dp4366
g13
F70
sg14
F20
sg15
F90
sg16
F25
sg17
F45
sg18
F60
ssg19
F6
sg20
g21
sg22
(lp4367
S'fairy'
p4368
aS'psychic'
p4369
asg26
I439
sbsI440
(ipokeStructs
Pokemon_dex
p4370
(dp4371
g4
(lp4372
S'friend-guard'
p4373
aS'serene-grace'
p4374
aS'natural-cure'
p4375
asg8
S'Happiny'
p4376
sg10
F244
sg11
(dp4377
g13
F15
sg14
F100
sg15
F65
sg16
F5
sg17
F5
sg18
F30
ssg19
F6
sg20
g21
sg22
(lp4378
S'normal'
p4379
asg26
I440
sbsI441
(ipokeStructs
Pokemon_dex
p4380
(dp4381
g4
(lp4382
S'big-pecks'
p4383
aS'tangled-feet'
p4384
aS'keen-eye'
p4385
asg8
S'Chatot'
p4386
sg10
F19
sg11
(dp4387
g13
F92
sg14
F76
sg15
F42
sg16
F65
sg17
F45
sg18
F91
ssg19
F5
sg20
g21
sg22
(lp4388
S'flying'
p4389
aS'normal'
p4390
asg26
I441
sbsI442
(ipokeStructs
Pokemon_dex
p4391
(dp4392
g4
(lp4393
S'pressure'
p4394
aS'infiltrator'
p4395
asg8
S'Spiritomb'
p4396
sg10
F1080
sg11
(dp4397
g13
F92
sg14
F50
sg15
F108
sg16
F92
sg17
F108
sg18
F35
ssg19
F10
sg20
g21
sg22
(lp4398
S'ghost'
p4399
aS'dark'
p4400
asg26
I442
sbsI443
(ipokeStructs
Pokemon_dex
p4401
(dp4402
g4
(lp4403
S'rough-skin'
p4404
aS'sand-veil'
p4405
asg8
S'Gible'
p4406
sg10
F205
sg11
(dp4407
g13
F40
sg14
F58
sg15
F45
sg16
F70
sg17
F45
sg18
F42
ssg19
F7
sg20
g21
sg22
(lp4408
S'dragon'
p4409
aS'ground'
p4410
asg26
I443
sbsI444
(ipokeStructs
Pokemon_dex
p4411
(dp4412
g4
(lp4413
S'rough-skin'
p4414
aS'sand-veil'
p4415
asg8
S'Gabite'
p4416
sg10
F560
sg11
(dp4417
g13
F50
sg14
F68
sg15
F55
sg16
F90
sg17
F65
sg18
F82
ssg19
F14
sg20
g21
sg22
(lp4418
S'dragon'
p4419
aS'ground'
p4420
asg26
I444
sbsI445
(ipokeStructs
Pokemon_dex
p4421
(dp4422
g4
(lp4423
S'rough-skin'
p4424
aS'sand-veil'
p4425
asg8
S'Garchomp'
p4426
sg10
F950
sg11
(dp4427
g13
F80
sg14
F108
sg15
F85
sg16
F130
sg17
F95
sg18
F102
ssg19
F19
sg20
g21
sg22
(lp4428
S'dragon'
p4429
aS'ground'
p4430
asg26
I445
sbsI446
(ipokeStructs
Pokemon_dex
p4431
(dp4432
g4
(lp4433
S'pickup'
p4434
aS'thick-fat'
p4435
aS'gluttony'
p4436
asg8
S'Munchlax'
p4437
sg10
F1050
sg11
(dp4438
g13
F40
sg14
F135
sg15
F85
sg16
F85
sg17
F40
sg18
F5
ssg19
F6
sg20
g21
sg22
(lp4439
S'normal'
p4440
asg26
I446
sbsI447
(ipokeStructs
Pokemon_dex
p4441
(dp4442
g4
(lp4443
S'inner-focus'
p4444
aS'steadfast'
p4445
aS'prankster'
p4446
asg8
S'Riolu'
p4447
sg10
F202
sg11
(dp4448
g13
F35
sg14
F40
sg15
F40
sg16
F70
sg17
F40
sg18
F60
ssg19
F7
sg20
g21
sg22
(lp4449
S'fighting'
p4450
asg26
I447
sbsI448
(ipokeStructs
Pokemon_dex
p4451
(dp4452
g4
(lp4453
S'inner-focus'
p4454
aS'justified'
p4455
aS'steadfast'
p4456
asg8
S'Lucario'
p4457
sg10
F540
sg11
(dp4458
g13
F115
sg14
F70
sg15
F70
sg16
F110
sg17
F70
sg18
F90
ssg19
F12
sg20
g21
sg22
(lp4459
S'steel'
p4460
aS'fighting'
p4461
asg26
I448
sbsI449
(ipokeStructs
Pokemon_dex
p4462
(dp4463
g4
(lp4464
S'sand-stream'
p4465
aS'sand-force'
p4466
asg8
S'Hippopotas'
p4467
sg10
F495
sg11
(dp4468
g13
F38
sg14
F68
sg15
F42
sg16
F72
sg17
F78
sg18
F32
ssg19
F8
sg20
g21
sg22
(lp4469
S'ground'
p4470
asg26
I449
sbsI450
(ipokeStructs
Pokemon_dex
p4471
(dp4472
g4
(lp4473
S'sand-stream'
p4474
aS'sand-force'
p4475
asg8
S'Hippowdon'
p4476
sg10
F3000
sg11
(dp4477
g13
F68
sg14
F108
sg15
F72
sg16
F112
sg17
F118
sg18
F47
ssg19
F20
sg20
g21
sg22
(lp4478
S'ground'
p4479
asg26
I450
sbsI451
(ipokeStructs
Pokemon_dex
p4480
(dp4481
g4
(lp4482
S'battle-armor'
p4483
aS'keen-eye'
p4484
aS'sniper'
p4485
asg8
S'Skorupi'
p4486
sg10
F120
sg11
(dp4487
g13
F30
sg14
F40
sg15
F55
sg16
F50
sg17
F90
sg18
F65
ssg19
F8
sg20
g21
sg22
(lp4488
S'bug'
p4489
aS'poison'
p4490
asg26
I451
sbsI452
(ipokeStructs
Pokemon_dex
p4491
(dp4492
g4
(lp4493
S'battle-armor'
p4494
aS'keen-eye'
p4495
aS'sniper'
p4496
asg8
S'Drapion'
p4497
sg10
F615
sg11
(dp4498
g13
F60
sg14
F70
sg15
F75
sg16
F90
sg17
F110
sg18
F95
ssg19
F13
sg20
g21
sg22
(lp4499
S'dark'
p4500
aS'poison'
p4501
asg26
I452
sbsI453
(ipokeStructs
Pokemon_dex
p4502
(dp4503
g4
(lp4504
S'anticipation'
p4505
aS'poison-touch'
p4506
aS'dry-skin'
p4507
asg8
S'Croagunk'
p4508
sg10
F230
sg11
(dp4509
g13
F61
sg14
F48
sg15
F40
sg16
F61
sg17
F40
sg18
F50
ssg19
F7
sg20
g21
sg22
(lp4510
S'poison'
p4511
aS'fighting'
p4512
asg26
I453
sbsI454
(ipokeStructs
Pokemon_dex
p4513
(dp4514
g4
(lp4515
S'anticipation'
p4516
aS'poison-touch'
p4517
aS'dry-skin'
p4518
asg8
S'Toxicroak'
p4519
sg10
F444
sg11
(dp4520
g13
F86
sg14
F83
sg15
F65
sg16
F106
sg17
F65
sg18
F85
ssg19
F13
sg20
g21
sg22
(lp4521
S'poison'
p4522
aS'fighting'
p4523
asg26
I454
sbsI455
(ipokeStructs
Pokemon_dex
p4524
(dp4525
g4
(lp4526
S'levitate'
p4527
asg8
S'Carnivine'
p4528
sg10
F270
sg11
(dp4529
g13
F90
sg14
F74
sg15
F72
sg16
F100
sg17
F72
sg18
F46
ssg19
F14
sg20
g21
sg22
(lp4530
S'grass'
p4531
asg26
I455
sbsI456
(ipokeStructs
Pokemon_dex
p4532
(dp4533
g4
(lp4534
S'swift-swim'
p4535
aS'storm-drain'
p4536
aS'water-veil'
p4537
asg8
S'Finneon'
p4538
sg10
F70
sg11
(dp4539
g13
F49
sg14
F49
sg15
F61
sg16
F49
sg17
F56
sg18
F66
ssg19
F4
sg20
g21
sg22
(lp4540
S'water'
p4541
asg26
I456
sbsI457
(ipokeStructs
Pokemon_dex
p4542
(dp4543
g4
(lp4544
S'swift-swim'
p4545
aS'storm-drain'
p4546
aS'water-veil'
p4547
asg8
S'Lumineon'
p4548
sg10
F240
sg11
(dp4549
g13
F69
sg14
F69
sg15
F86
sg16
F69
sg17
F76
sg18
F91
ssg19
F12
sg20
g21
sg22
(lp4550
S'water'
p4551
asg26
I457
sbsI458
(ipokeStructs
Pokemon_dex
p4552
(dp4553
g4
(lp4554
S'swift-swim'
p4555
aS'water-absorb'
p4556
aS'water-veil'
p4557
asg8
S'Mantyke'
p4558
sg10
F650
sg11
(dp4559
g13
F60
sg14
F45
sg15
F120
sg16
F20
sg17
F50
sg18
F50
ssg19
F10
sg20
g21
sg22
(lp4560
S'water'
p4561
aS'flying'
p4562
asg26
I458
sbsI459
(ipokeStructs
Pokemon_dex
p4563
(dp4564
g4
(lp4565
S'snow-warning'
p4566
aS'soundproof'
p4567
asg8
S'Snover'
p4568
sg10
F505
sg11
(dp4569
g13
F62
sg14
F60
sg15
F60
sg16
F62
sg17
F50
sg18
F40
ssg19
F10
sg20
g21
sg22
(lp4570
S'grass'
p4571
aS'ice'
p4572
asg26
I459
sbsI460
(ipokeStructs
Pokemon_dex
p4573
(dp4574
g4
(lp4575
S'snow-warning'
p4576
aS'soundproof'
p4577
asg8
S'Abomasnow'
p4578
sg10
F1355
sg11
(dp4579
g13
F92
sg14
F90
sg15
F85
sg16
F92
sg17
F75
sg18
F60
ssg19
F22
sg20
g21
sg22
(lp4580
S'grass'
p4581
aS'ice'
p4582
asg26
I460
sbsI461
(ipokeStructs
Pokemon_dex
p4583
(dp4584
g4
(lp4585
S'pressure'
p4586
aS'pickpocket'
p4587
asg8
S'Weavile'
p4588
sg10
F340
sg11
(dp4589
g13
F45
sg14
F70
sg15
F85
sg16
F120
sg17
F65
sg18
F125
ssg19
F11
sg20
g21
sg22
(lp4590
S'dark'
p4591
aS'ice'
p4592
asg26
I461
sbsI462
(ipokeStructs
Pokemon_dex
p4593
(dp4594
g4
(lp4595
S'magnet-pull'
p4596
aS'analytic'
p4597
aS'sturdy'
p4598
asg8
S'Magnezone'
p4599
sg10
F1800
sg11
(dp4600
g13
F130
sg14
F70
sg15
F90
sg16
F70
sg17
F115
sg18
F60
ssg19
F12
sg20
g21
sg22
(lp4601
S'steel'
p4602
aS'electric'
p4603
asg26
I462
sbsI463
(ipokeStructs
Pokemon_dex
p4604
(dp4605
g4
(lp4606
S'oblivious'
p4607
aS'cloud-nine'
p4608
aS'own-tempo'
p4609
asg8
S'Lickilicky'
p4610
sg10
F1400
sg11
(dp4611
g13
F80
sg14
F110
sg15
F95
sg16
F85
sg17
F95
sg18
F50
ssg19
F17
sg20
g21
sg22
(lp4612
S'normal'
p4613
asg26
I463
sbsI464
(ipokeStructs
Pokemon_dex
p4614
(dp4615
g4
(lp4616
S'lightningrod'
p4617
aS'reckless'
p4618
aS'solid-rock'
p4619
asg8
S'Rhyperior'
p4620
sg10
F2828
sg11
(dp4621
g13
F55
sg14
F115
sg15
F55
sg16
F140
sg17
F130
sg18
F40
ssg19
F24
sg20
g21
sg22
(lp4622
S'rock'
p4623
aS'ground'
p4624
asg26
I464
sbsI465
(ipokeStructs
Pokemon_dex
p4625
(dp4626
g4
(lp4627
S'regenerator'
p4628
aS'chlorophyll'
p4629
aS'leaf-guard'
p4630
asg8
S'Tangrowth'
p4631
sg10
F1286
sg11
(dp4632
g13
F110
sg14
F100
sg15
F50
sg16
F100
sg17
F125
sg18
F50
ssg19
F20
sg20
g21
sg22
(lp4633
S'grass'
p4634
asg26
I465
sbsI466
(ipokeStructs
Pokemon_dex
p4635
(dp4636
g4
(lp4637
S'vital-spirit'
p4638
aS'motor-drive'
p4639
asg8
S'Electivire'
p4640
sg10
F1386
sg11
(dp4641
g13
F95
sg14
F75
sg15
F85
sg16
F123
sg17
F67
sg18
F95
ssg19
F18
sg20
g21
sg22
(lp4642
S'electric'
p4643
asg26
I466
sbsI467
(ipokeStructs
Pokemon_dex
p4644
(dp4645
g4
(lp4646
S'flame-body'
p4647
aS'vital-spirit'
p4648
asg8
S'Magmortar'
p4649
sg10
F680
sg11
(dp4650
g13
F125
sg14
F75
sg15
F95
sg16
F95
sg17
F67
sg18
F83
ssg19
F16
sg20
g21
sg22
(lp4651
S'fire'
p4652
asg26
I467
sbsI468
(ipokeStructs
Pokemon_dex
p4653
(dp4654
g4
(lp4655
S'super-luck'
p4656
aS'hustle'
p4657
aS'serene-grace'
p4658
asg8
S'Togekiss'
p4659
sg10
F380
sg11
(dp4660
g13
F120
sg14
F85
sg15
F115
sg16
F50
sg17
F95
sg18
F80
ssg19
F15
sg20
g21
sg22
(lp4661
S'fairy'
p4662
aS'flying'
p4663
asg26
I468
sbsI469
(ipokeStructs
Pokemon_dex
p4664
(dp4665
g4
(lp4666
S'speed-boost'
p4667
aS'tinted-lens'
p4668
aS'frisk'
p4669
asg8
S'Yanmega'
p4670
sg10
F515
sg11
(dp4671
g13
F116
sg14
F86
sg15
F56
sg16
F76
sg17
F86
sg18
F95
ssg19
F19
sg20
g21
sg22
(lp4672
S'flying'
p4673
aS'bug'
p4674
asg26
I469
sbsI470
(ipokeStructs
Pokemon_dex
p4675
(dp4676
g4
(lp4677
S'chlorophyll'
p4678
aS'leaf-guard'
p4679
asg8
S'Leafeon'
p4680
sg10
F255
sg11
(dp4681
g13
F60
sg14
F65
sg15
F65
sg16
F110
sg17
F130
sg18
F95
ssg19
F10
sg20
g21
sg22
(lp4682
S'grass'
p4683
asg26
I470
sbsI471
(ipokeStructs
Pokemon_dex
p4684
(dp4685
g4
(lp4686
S'snow-cloak'
p4687
aS'ice-body'
p4688
asg8
S'Glaceon'
p4689
sg10
F259
sg11
(dp4690
g13
F130
sg14
F65
sg15
F95
sg16
F60
sg17
F110
sg18
F65
ssg19
F8
sg20
g21
sg22
(lp4691
S'ice'
p4692
asg26
I471
sbsI472
(ipokeStructs
Pokemon_dex
p4693
(dp4694
g4
(lp4695
S'sand-veil'
p4696
aS'poison-heal'
p4697
aS'hyper-cutter'
p4698
asg8
S'Gliscor'
p4699
sg10
F425
sg11
(dp4700
g13
F45
sg14
F75
sg15
F75
sg16
F95
sg17
F125
sg18
F95
ssg19
F20
sg20
g21
sg22
(lp4701
S'flying'
p4702
aS'ground'
p4703
asg26
I472
sbsI473
(ipokeStructs
Pokemon_dex
p4704
(dp4705
g4
(lp4706
S'oblivious'
p4707
aS'thick-fat'
p4708
aS'snow-cloak'
p4709
asg8
S'Mamoswine'
p4710
sg10
F2910
sg11
(dp4711
g13
F70
sg14
F110
sg15
F60
sg16
F130
sg17
F80
sg18
F80
ssg19
F25
sg20
g21
sg22
(lp4712
S'ice'
p4713
aS'ground'
p4714
asg26
I473
sbsI474
(ipokeStructs
Pokemon_dex
p4715
(dp4716
g4
(lp4717
S'download'
p4718
aS'analytic'
p4719
aS'adaptability'
p4720
asg8
S'Porygon-z'
p4721
sg10
F340
sg11
(dp4722
g13
F135
sg14
F85
sg15
F75
sg16
F80
sg17
F70
sg18
F90
ssg19
F9
sg20
g21
sg22
(lp4723
S'normal'
p4724
asg26
I474
sbsI475
(ipokeStructs
Pokemon_dex
p4725
(dp4726
g4
(lp4727
S'justified'
p4728
aS'steadfast'
p4729
asg8
S'Gallade'
p4730
sg10
F520
sg11
(dp4731
g13
F65
sg14
F68
sg15
F115
sg16
F125
sg17
F65
sg18
F80
ssg19
F16
sg20
g21
sg22
(lp4732
S'psychic'
p4733
aS'fighting'
p4734
asg26
I475
sbsI476
(ipokeStructs
Pokemon_dex
p4735
(dp4736
g4
(lp4737
S'magnet-pull'
p4738
aS'sand-force'
p4739
aS'sturdy'
p4740
asg8
S'Probopass'
p4741
sg10
F3400
sg11
(dp4742
g13
F75
sg14
F60
sg15
F150
sg16
F55
sg17
F145
sg18
F40
ssg19
F14
sg20
g21
sg22
(lp4743
S'steel'
p4744
aS'rock'
p4745
asg26
I476
sbsI477
(ipokeStructs
Pokemon_dex
p4746
(dp4747
g4
(lp4748
S'pressure'
p4749
asg8
S'Dusknoir'
p4750
sg10
F1066
sg11
(dp4751
g13
F65
sg14
F45
sg15
F135
sg16
F100
sg17
F135
sg18
F45
ssg19
F22
sg20
g21
sg22
(lp4752
S'ghost'
p4753
asg26
I477
sbsI478
(ipokeStructs
Pokemon_dex
p4754
(dp4755
g4
(lp4756
S'cursed-body'
p4757
aS'snow-cloak'
p4758
asg8
S'Froslass'
p4759
sg10
F266
sg11
(dp4760
g13
F80
sg14
F70
sg15
F70
sg16
F80
sg17
F70
sg18
F110
ssg19
F13
sg20
g21
sg22
(lp4761
S'ghost'
p4762
aS'ice'
p4763
asg26
I478
sbsI479
(ipokeStructs
Pokemon_dex
p4764
(dp4765
g4
(lp4766
S'levitate'
p4767
asg8
S'Rotom'
p4768
sg10
F3
sg11
(dp4769
g13
F95
sg14
F50
sg15
F77
sg16
F50
sg17
F77
sg18
F91
ssg19
F3
sg20
g21
sg22
(lp4770
S'ghost'
p4771
aS'electric'
p4772
asg26
I479
sbsI480
(ipokeStructs
Pokemon_dex
p4773
(dp4774
g4
(lp4775
S'levitate'
p4776
asg8
S'Uxie'
p4777
sg10
F3
sg11
(dp4778
g13
F75
sg14
F75
sg15
F130
sg16
F75
sg17
F130
sg18
F95
ssg19
F3
sg20
g21
sg22
(lp4779
S'psychic'
p4780
asg26
I480
sbsI481
(ipokeStructs
Pokemon_dex
p4781
(dp4782
g4
(lp4783
S'levitate'
p4784
asg8
S'Mesprit'
p4785
sg10
F3
sg11
(dp4786
g13
F105
sg14
F80
sg15
F105
sg16
F105
sg17
F105
sg18
F80
ssg19
F3
sg20
g21
sg22
(lp4787
S'psychic'
p4788
asg26
I481
sbsI482
(ipokeStructs
Pokemon_dex
p4789
(dp4790
g4
(lp4791
S'levitate'
p4792
asg8
S'Azelf'
p4793
sg10
F3
sg11
(dp4794
g13
F125
sg14
F75
sg15
F70
sg16
F125
sg17
F70
sg18
F115
ssg19
F3
sg20
g21
sg22
(lp4795
S'psychic'
p4796
asg26
I482
sbsI483
(ipokeStructs
Pokemon_dex
p4797
(dp4798
g4
(lp4799
S'pressure'
p4800
aS'telepathy'
p4801
asg8
S'Dialga'
p4802
sg10
F6830
sg11
(dp4803
g13
F150
sg14
F100
sg15
F100
sg16
F120
sg17
F120
sg18
F90
ssg19
F54
sg20
g21
sg22
(lp4804
S'steel'
p4805
aS'dragon'
p4806
asg26
I483
sbsI484
(ipokeStructs
Pokemon_dex
p4807
(dp4808
g4
(lp4809
S'pressure'
p4810
aS'telepathy'
p4811
asg8
S'Palkia'
p4812
sg10
F3360
sg11
(dp4813
g13
F150
sg14
F90
sg15
F120
sg16
F120
sg17
F100
sg18
F100
ssg19
F42
sg20
g21
sg22
(lp4814
S'water'
p4815
aS'dragon'
p4816
asg26
I484
sbsI485
(ipokeStructs
Pokemon_dex
p4817
(dp4818
g4
(lp4819
S'flame-body'
p4820
aS'flash-fire'
p4821
asg8
S'Heatran'
p4822
sg10
F4300
sg11
(dp4823
g13
F130
sg14
F91
sg15
F106
sg16
F90
sg17
F106
sg18
F77
ssg19
F17
sg20
g21
sg22
(lp4824
S'steel'
p4825
aS'fire'
p4826
asg26
I485
sbsI486
(ipokeStructs
Pokemon_dex
p4827
(dp4828
g4
(lp4829
S'slow-start'
p4830
asg8
S'Regigigas'
p4831
sg10
F4200
sg11
(dp4832
g13
F80
sg14
F110
sg15
F110
sg16
F160
sg17
F110
sg18
F100
ssg19
F37
sg20
g21
sg22
(lp4833
S'normal'
p4834
asg26
I486
sbsI487
(ipokeStructs
Pokemon_dex
p4835
(dp4836
g4
(lp4837
S'pressure'
p4838
aS'telepathy'
p4839
asg8
S'Giratina-altered'
p4840
sg10
F7500
sg11
(dp4841
g13
F100
sg14
F150
sg15
F120
sg16
F100
sg17
F120
sg18
F90
ssg19
F45
sg20
g21
sg22
(lp4842
S'ghost'
p4843
aS'dragon'
p4844
asg26
I487
sbsI488
(ipokeStructs
Pokemon_dex
p4845
(dp4846
g4
(lp4847
S'levitate'
p4848
asg8
S'Cresselia'
p4849
sg10
F856
sg11
(dp4850
g13
F75
sg14
F120
sg15
F130
sg16
F70
sg17
F120
sg18
F85
ssg19
F15
sg20
g21
sg22
(lp4851
S'psychic'
p4852
asg26
I488
sbsI489
(ipokeStructs
Pokemon_dex
p4853
(dp4854
g4
(lp4855
S'hydration'
p4856
asg8
S'Phione'
p4857
sg10
F31
sg11
(dp4858
g13
F80
sg14
F80
sg15
F80
sg16
F80
sg17
F80
sg18
F80
ssg19
F4
sg20
g21
sg22
(lp4859
S'water'
p4860
asg26
I489
sbsI490
(ipokeStructs
Pokemon_dex
p4861
(dp4862
g4
(lp4863
S'hydration'
p4864
asg8
S'Manaphy'
p4865
sg10
F14
sg11
(dp4866
g13
F100
sg14
F100
sg15
F100
sg16
F100
sg17
F100
sg18
F100
ssg19
F3
sg20
g21
sg22
(lp4867
S'water'
p4868
asg26
I490
sbsI491
(ipokeStructs
Pokemon_dex
p4869
(dp4870
g4
(lp4871
S'bad-dreams'
p4872
asg8
S'Darkrai'
p4873
sg10
F505
sg11
(dp4874
g13
F135
sg14
F70
sg15
F90
sg16
F90
sg17
F90
sg18
F125
ssg19
F15
sg20
g21
sg22
(lp4875
S'dark'
p4876
asg26
I491
sbsI492
(ipokeStructs
Pokemon_dex
p4877
(dp4878
g4
(lp4879
S'natural-cure'
p4880
asg8
S'Shaymin-land'
p4881
sg10
F21
sg11
(dp4882
g13
F100
sg14
F100
sg15
F100
sg16
F100
sg17
F100
sg18
F100
ssg19
F2
sg20
g21
sg22
(lp4883
S'grass'
p4884
asg26
I492
sbsI493
(ipokeStructs
Pokemon_dex
p4885
(dp4886
g4
(lp4887
S'multitype'
p4888
asg8
S'Arceus'
p4889
sg10
F3200
sg11
(dp4890
g13
F120
sg14
F120
sg15
F120
sg16
F120
sg17
F120
sg18
F120
ssg19
F32
sg20
g21
sg22
(lp4891
S'normal'
p4892
asg26
I493
sbsI494
(ipokeStructs
Pokemon_dex
p4893
(dp4894
g4
(lp4895
S'victory-star'
p4896
asg8
S'Victini'
p4897
sg10
F40
sg11
(dp4898
g13
F100
sg14
F100
sg15
F100
sg16
F100
sg17
F100
sg18
F100
ssg19
F4
sg20
g21
sg22
(lp4899
S'fire'
p4900
aS'psychic'
p4901
asg26
I494
sbsI495
(ipokeStructs
Pokemon_dex
p4902
(dp4903
g4
(lp4904
S'contrary'
p4905
aS'overgrow'
p4906
asg8
S'Snivy'
p4907
sg10
F81
sg11
(dp4908
g13
F45
sg14
F45
sg15
F55
sg16
F45
sg17
F55
sg18
F63
ssg19
F6
sg20
g21
sg22
(lp4909
S'grass'
p4910
asg26
I495
sbsI496
(ipokeStructs
Pokemon_dex
p4911
(dp4912
g4
(lp4913
S'contrary'
p4914
aS'overgrow'
p4915
asg8
S'Servine'
p4916
sg10
F160
sg11
(dp4917
g13
F60
sg14
F60
sg15
F75
sg16
F60
sg17
F75
sg18
F83
ssg19
F8
sg20
g21
sg22
(lp4918
S'grass'
p4919
asg26
I496
sbsI497
(ipokeStructs
Pokemon_dex
p4920
(dp4921
g4
(lp4922
S'contrary'
p4923
aS'overgrow'
p4924
asg8
S'Serperior'
p4925
sg10
F630
sg11
(dp4926
g13
F75
sg14
F75
sg15
F95
sg16
F75
sg17
F95
sg18
F113
ssg19
F33
sg20
g21
sg22
(lp4927
S'grass'
p4928
asg26
I497
sbsI498
(ipokeStructs
Pokemon_dex
p4929
(dp4930
g4
(lp4931
S'thick-fat'
p4932
aS'blaze'
p4933
asg8
S'Tepig'
p4934
sg10
F99
sg11
(dp4935
g13
F45
sg14
F65
sg15
F45
sg16
F63
sg17
F45
sg18
F45
ssg19
F5
sg20
g21
sg22
(lp4936
S'fire'
p4937
asg26
I498
sbsI499
(ipokeStructs
Pokemon_dex
p4938
(dp4939
g4
(lp4940
S'thick-fat'
p4941
aS'blaze'
p4942
asg8
S'Pignite'
p4943
sg10
F555
sg11
(dp4944
g13
F70
sg14
F90
sg15
F55
sg16
F93
sg17
F55
sg18
F55
ssg19
F10
sg20
g21
sg22
(lp4945
S'fire'
p4946
aS'fighting'
p4947
asg26
I499
sbsI500
(ipokeStructs
Pokemon_dex
p4948
(dp4949
g4
(lp4950
S'blaze'
p4951
aS'reckless'
p4952
asg8
S'Emboar'
p4953
sg10
F1500
sg11
(dp4954
g13
F100
sg14
F110
sg15
F65
sg16
F123
sg17
F65
sg18
F65
ssg19
F16
sg20
g21
sg22
(lp4955
S'fire'
p4956
aS'fighting'
p4957
asg26
I500
sbsI501
(ipokeStructs
Pokemon_dex
p4958
(dp4959
g4
(lp4960
S'torrent'
p4961
aS'shell-armor'
p4962
asg8
S'Oshawott'
p4963
sg10
F59
sg11
(dp4964
g13
F63
sg14
F55
sg15
F45
sg16
F55
sg17
F45
sg18
F45
ssg19
F5
sg20
g21
sg22
(lp4965
S'water'
p4966
asg26
I501
sbsI502
(ipokeStructs
Pokemon_dex
p4967
(dp4968
g4
(lp4969
S'torrent'
p4970
aS'shell-armor'
p4971
asg8
S'Dewott'
p4972
sg10
F245
sg11
(dp4973
g13
F83
sg14
F75
sg15
F60
sg16
F75
sg17
F60
sg18
F60
ssg19
F8
sg20
g21
sg22
(lp4974
S'water'
p4975
asg26
I502
sbsI503
(ipokeStructs
Pokemon_dex
p4976
(dp4977
g4
(lp4978
S'torrent'
p4979
aS'shell-armor'
p4980
asg8
S'Samurott'
p4981
sg10
F946
sg11
(dp4982
g13
F108
sg14
F95
sg15
F70
sg16
F100
sg17
F85
sg18
F70
ssg19
F15
sg20
g21
sg22
(lp4983
S'water'
p4984
asg26
I503
sbsI504
(ipokeStructs
Pokemon_dex
p4985
(dp4986
g4
(lp4987
S'analytic'
p4988
aS'keen-eye'
p4989
aS'run-away'
p4990
asg8
S'Patrat'
p4991
sg10
F116
sg11
(dp4992
g13
F35
sg14
F45
sg15
F39
sg16
F55
sg17
F39
sg18
F42
ssg19
F5
sg20
g21
sg22
(lp4993
S'normal'
p4994
asg26
I504
sbsI505
(ipokeStructs
Pokemon_dex
p4995
(dp4996
g4
(lp4997
S'analytic'
p4998
aS'illuminate'
p4999
aS'keen-eye'
p5000
asg8
S'Watchog'
p5001
sg10
F270
sg11
(dp5002
g13
F60
sg14
F60
sg15
F69
sg16
F85
sg17
F69
sg18
F77
ssg19
F11
sg20
g21
sg22
(lp5003
S'normal'
p5004
asg26
I505
sbsI506
(ipokeStructs
Pokemon_dex
p5005
(dp5006
g4
(lp5007
S'pickup'
p5008
aS'vital-spirit'
p5009
aS'run-away'
p5010
asg8
S'Lillipup'
p5011
sg10
F41
sg11
(dp5012
g13
F25
sg14
F45
sg15
F45
sg16
F60
sg17
F45
sg18
F55
ssg19
F4
sg20
g21
sg22
(lp5013
S'normal'
p5014
asg26
I506
sbsI507
(ipokeStructs
Pokemon_dex
p5015
(dp5016
g4
(lp5017
S'intimidate'
p5018
aS'scrappy'
p5019
aS'sand-rush'
p5020
asg8
S'Herdier'
p5021
sg10
F147
sg11
(dp5022
g13
F35
sg14
F65
sg15
F65
sg16
F80
sg17
F65
sg18
F60
ssg19
F9
sg20
g21
sg22
(lp5023
S'normal'
p5024
asg26
I507
sbsI508
(ipokeStructs
Pokemon_dex
p5025
(dp5026
g4
(lp5027
S'intimidate'
p5028
aS'scrappy'
p5029
aS'sand-rush'
p5030
asg8
S'Stoutland'
p5031
sg10
F610
sg11
(dp5032
g13
F45
sg14
F85
sg15
F90
sg16
F110
sg17
F90
sg18
F80
ssg19
F12
sg20
g21
sg22
(lp5033
S'normal'
p5034
asg26
I508
sbsI509
(ipokeStructs
Pokemon_dex
p5035
(dp5036
g4
(lp5037
S'prankster'
p5038
aS'unburden'
p5039
aS'limber'
p5040
asg8
S'Purrloin'
p5041
sg10
F101
sg11
(dp5042
g13
F50
sg14
F41
sg15
F37
sg16
F50
sg17
F37
sg18
F66
ssg19
F4
sg20
g21
sg22
(lp5043
S'dark'
p5044
asg26
I509
sbsI510
(ipokeStructs
Pokemon_dex
p5045
(dp5046
g4
(lp5047
S'prankster'
p5048
aS'unburden'
p5049
aS'limber'
p5050
asg8
S'Liepard'
p5051
sg10
F375
sg11
(dp5052
g13
F88
sg14
F64
sg15
F50
sg16
F88
sg17
F50
sg18
F106
ssg19
F11
sg20
g21
sg22
(lp5053
S'dark'
p5054
asg26
I510
sbsI511
(ipokeStructs
Pokemon_dex
p5055
(dp5056
g4
(lp5057
S'gluttony'
p5058
aS'overgrow'
p5059
asg8
S'Pansage'
p5060
sg10
F105
sg11
(dp5061
g13
F53
sg14
F50
sg15
F48
sg16
F53
sg17
F48
sg18
F64
ssg19
F6
sg20
g21
sg22
(lp5062
S'grass'
p5063
asg26
I511
sbsI512
(ipokeStructs
Pokemon_dex
p5064
(dp5065
g4
(lp5066
S'gluttony'
p5067
aS'overgrow'
p5068
asg8
S'Simisage'
p5069
sg10
F305
sg11
(dp5070
g13
F98
sg14
F75
sg15
F63
sg16
F98
sg17
F63
sg18
F101
ssg19
F11
sg20
g21
sg22
(lp5071
S'grass'
p5072
asg26
I512
sbsI513
(ipokeStructs
Pokemon_dex
p5073
(dp5074
g4
(lp5075
S'gluttony'
p5076
aS'blaze'
p5077
asg8
S'Pansear'
p5078
sg10
F110
sg11
(dp5079
g13
F53
sg14
F50
sg15
F48
sg16
F53
sg17
F48
sg18
F64
ssg19
F6
sg20
g21
sg22
(lp5080
S'fire'
p5081
asg26
I513
sbsI514
(ipokeStructs
Pokemon_dex
p5082
(dp5083
g4
(lp5084
S'gluttony'
p5085
aS'blaze'
p5086
asg8
S'Simisear'
p5087
sg10
F280
sg11
(dp5088
g13
F98
sg14
F75
sg15
F63
sg16
F98
sg17
F63
sg18
F101
ssg19
F10
sg20
g21
sg22
(lp5089
S'fire'
p5090
asg26
I514
sbsI515
(ipokeStructs
Pokemon_dex
p5091
(dp5092
g4
(lp5093
S'gluttony'
p5094
aS'torrent'
p5095
asg8
S'Panpour'
p5096
sg10
F135
sg11
(dp5097
g13
F53
sg14
F50
sg15
F48
sg16
F53
sg17
F48
sg18
F64
ssg19
F6
sg20
g21
sg22
(lp5098
S'water'
p5099
asg26
I515
sbsI516
(ipokeStructs
Pokemon_dex
p5100
(dp5101
g4
(lp5102
S'gluttony'
p5103
aS'torrent'
p5104
asg8
S'Simipour'
p5105
sg10
F290
sg11
(dp5106
g13
F98
sg14
F75
sg15
F63
sg16
F98
sg17
F63
sg18
F101
ssg19
F10
sg20
g21
sg22
(lp5107
S'water'
p5108
asg26
I516
sbsI517
(ipokeStructs
Pokemon_dex
p5109
(dp5110
g4
(lp5111
S'synchronize'
p5112
aS'forewarn'
p5113
aS'telepathy'
p5114
asg8
S'Munna'
p5115
sg10
F233
sg11
(dp5116
g13
F67
sg14
F76
sg15
F55
sg16
F25
sg17
F45
sg18
F24
ssg19
F6
sg20
g21
sg22
(lp5117
S'psychic'
p5118
asg26
I517
sbsI518
(ipokeStructs
Pokemon_dex
p5119
(dp5120
g4
(lp5121
S'synchronize'
p5122
aS'forewarn'
p5123
aS'telepathy'
p5124
asg8
S'Musharna'
p5125
sg10
F605
sg11
(dp5126
g13
F107
sg14
F116
sg15
F95
sg16
F55
sg17
F85
sg18
F29
ssg19
F11
sg20
g21
sg22
(lp5127
S'psychic'
p5128
asg26
I518
sbsI519
(ipokeStructs
Pokemon_dex
p5129
(dp5130
g4
(lp5131
S'big-pecks'
p5132
aS'super-luck'
p5133
aS'rivalry'
p5134
asg8
S'Pidove'
p5135
sg10
F21
sg11
(dp5136
g13
F36
sg14
F50
sg15
F30
sg16
F55
sg17
F50
sg18
F43
ssg19
F3
sg20
g21
sg22
(lp5137
S'flying'
p5138
aS'normal'
p5139
asg26
I519
sbsI520
(ipokeStructs
Pokemon_dex
p5140
(dp5141
g4
(lp5142
S'big-pecks'
p5143
aS'super-luck'
p5144
aS'rivalry'
p5145
asg8
S'Tranquill'
p5146
sg10
F150
sg11
(dp5147
g13
F50
sg14
F62
sg15
F42
sg16
F77
sg17
F62
sg18
F65
ssg19
F6
sg20
g21
sg22
(lp5148
S'flying'
p5149
aS'normal'
p5150
asg26
I520
sbsI521
(ipokeStructs
Pokemon_dex
p5151
(dp5152
g4
(lp5153
S'big-pecks'
p5154
aS'super-luck'
p5155
aS'rivalry'
p5156
asg8
S'Unfezant'
p5157
sg10
F290
sg11
(dp5158
g13
F65
sg14
F80
sg15
F55
sg16
F115
sg17
F80
sg18
F93
ssg19
F12
sg20
g21
sg22
(lp5159
S'flying'
p5160
aS'normal'
p5161
asg26
I521
sbsI522
(ipokeStructs
Pokemon_dex
p5162
(dp5163
g4
(lp5164
S'lightningrod'
p5165
aS'sap-sipper'
p5166
aS'motor-drive'
p5167
asg8
S'Blitzle'
p5168
sg10
F298
sg11
(dp5169
g13
F50
sg14
F45
sg15
F32
sg16
F60
sg17
F32
sg18
F76
ssg19
F8
sg20
g21
sg22
(lp5170
S'electric'
p5171
asg26
I522
sbsI523
(ipokeStructs
Pokemon_dex
p5172
(dp5173
g4
(lp5174
S'lightningrod'
p5175
aS'sap-sipper'
p5176
aS'motor-drive'
p5177
asg8
S'Zebstrika'
p5178
sg10
F795
sg11
(dp5179
g13
F80
sg14
F75
sg15
F63
sg16
F100
sg17
F63
sg18
F116
ssg19
F16
sg20
g21
sg22
(lp5180
S'electric'
p5181
asg26
I523
sbsI524
(ipokeStructs
Pokemon_dex
p5182
(dp5183
g4
(lp5184
S'sand-force'
p5185
aS'sturdy'
p5186
asg8
S'Roggenrola'
p5187
sg10
F180
sg11
(dp5188
g13
F25
sg14
F55
sg15
F25
sg16
F75
sg17
F85
sg18
F15
ssg19
F4
sg20
g21
sg22
(lp5189
S'rock'
p5190
asg26
I524
sbsI525
(ipokeStructs
Pokemon_dex
p5191
(dp5192
g4
(lp5193
S'sand-force'
p5194
aS'sturdy'
p5195
asg8
S'Boldore'
p5196
sg10
F1020
sg11
(dp5197
g13
F50
sg14
F70
sg15
F40
sg16
F105
sg17
F105
sg18
F20
ssg19
F9
sg20
g21
sg22
(lp5198
S'rock'
p5199
asg26
I525
sbsI526
(ipokeStructs
Pokemon_dex
p5200
(dp5201
g4
(lp5202
S'sand-force'
p5203
aS'sturdy'
p5204
asg8
S'Gigalith'
p5205
sg10
F2600
sg11
(dp5206
g13
F60
sg14
F85
sg15
F80
sg16
F135
sg17
F130
sg18
F25
ssg19
F17
sg20
g21
sg22
(lp5207
S'rock'
p5208
asg26
I526
sbsI527
(ipokeStructs
Pokemon_dex
p5209
(dp5210
g4
(lp5211
S'simple'
p5212
aS'klutz'
p5213
aS'unaware'
p5214
asg8
S'Woobat'
p5215
sg10
F21
sg11
(dp5216
g13
F55
sg14
F55
sg15
F43
sg16
F45
sg17
F43
sg18
F72
ssg19
F4
sg20
g21
sg22
(lp5217
S'psychic'
p5218
aS'flying'
p5219
asg26
I527
sbsI528
(ipokeStructs
Pokemon_dex
p5220
(dp5221
g4
(lp5222
S'simple'
p5223
aS'klutz'
p5224
aS'unaware'
p5225
asg8
S'Swoobat'
p5226
sg10
F105
sg11
(dp5227
g13
F77
sg14
F67
sg15
F55
sg16
F57
sg17
F55
sg18
F114
ssg19
F9
sg20
g21
sg22
(lp5228
S'psychic'
p5229
aS'flying'
p5230
asg26
I528
sbsI529
(ipokeStructs
Pokemon_dex
p5231
(dp5232
g4
(lp5233
S'sand-rush'
p5234
aS'mold-breaker'
p5235
aS'sand-force'
p5236
asg8
S'Drilbur'
p5237
sg10
F85
sg11
(dp5238
g13
F30
sg14
F60
sg15
F45
sg16
F85
sg17
F40
sg18
F68
ssg19
F3
sg20
g21
sg22
(lp5239
S'ground'
p5240
asg26
I529
sbsI530
(ipokeStructs
Pokemon_dex
p5241
(dp5242
g4
(lp5243
S'sand-rush'
p5244
aS'mold-breaker'
p5245
aS'sand-force'
p5246
asg8
S'Excadrill'
p5247
sg10
F404
sg11
(dp5248
g13
F50
sg14
F110
sg15
F65
sg16
F135
sg17
F60
sg18
F88
ssg19
F7
sg20
g21
sg22
(lp5249
S'steel'
p5250
aS'ground'
p5251
asg26
I530
sbsI531
(ipokeStructs
Pokemon_dex
p5252
(dp5253
g4
(lp5254
S'klutz'
p5255
aS'regenerator'
p5256
aS'healer'
p5257
asg8
S'Audino'
p5258
sg10
F310
sg11
(dp5259
g13
F60
sg14
F103
sg15
F86
sg16
F60
sg17
F86
sg18
F50
ssg19
F11
sg20
g21
sg22
(lp5260
S'normal'
p5261
asg26
I531
sbsI532
(ipokeStructs
Pokemon_dex
p5262
(dp5263
g4
(lp5264
S'iron-fist'
p5265
aS'sheer-force'
p5266
aS'guts'
p5267
asg8
S'Timburr'
p5268
sg10
F125
sg11
(dp5269
g13
F25
sg14
F75
sg15
F35
sg16
F80
sg17
F55
sg18
F35
ssg19
F6
sg20
g21
sg22
(lp5270
S'fighting'
p5271
asg26
I532
sbsI533
(ipokeStructs
Pokemon_dex
p5272
(dp5273
g4
(lp5274
S'iron-fist'
p5275
aS'sheer-force'
p5276
aS'guts'
p5277
asg8
S'Gurdurr'
p5278
sg10
F400
sg11
(dp5279
g13
F40
sg14
F85
sg15
F50
sg16
F105
sg17
F85
sg18
F40
ssg19
F12
sg20
g21
sg22
(lp5280
S'fighting'
p5281
asg26
I533
sbsI534
(ipokeStructs
Pokemon_dex
p5282
(dp5283
g4
(lp5284
S'iron-fist'
p5285
aS'sheer-force'
p5286
aS'guts'
p5287
asg8
S'Conkeldurr'
p5288
sg10
F870
sg11
(dp5289
g13
F55
sg14
F105
sg15
F65
sg16
F140
sg17
F95
sg18
F45
ssg19
F14
sg20
g21
sg22
(lp5290
S'fighting'
p5291
asg26
I534
sbsI535
(ipokeStructs
Pokemon_dex
p5292
(dp5293
g4
(lp5294
S'swift-swim'
p5295
aS'water-absorb'
p5296
aS'hydration'
p5297
asg8
S'Tympole'
p5298
sg10
F45
sg11
(dp5299
g13
F50
sg14
F50
sg15
F40
sg16
F50
sg17
F40
sg18
F64
ssg19
F5
sg20
g21
sg22
(lp5300
S'water'
p5301
asg26
I535
sbsI536
(ipokeStructs
Pokemon_dex
p5302
(dp5303
g4
(lp5304
S'swift-swim'
p5305
aS'water-absorb'
p5306
aS'hydration'
p5307
asg8
S'Palpitoad'
p5308
sg10
F170
sg11
(dp5309
g13
F65
sg14
F75
sg15
F55
sg16
F65
sg17
F55
sg18
F69
ssg19
F8
sg20
g21
sg22
(lp5310
S'water'
p5311
aS'ground'
p5312
asg26
I536
sbsI537
(ipokeStructs
Pokemon_dex
p5313
(dp5314
g4
(lp5315
S'swift-swim'
p5316
aS'water-absorb'
p5317
aS'poison-touch'
p5318
asg8
S'Seismitoad'
p5319
sg10
F620
sg11
(dp5320
g13
F85
sg14
F105
sg15
F75
sg16
F95
sg17
F75
sg18
F74
ssg19
F15
sg20
g21
sg22
(lp5321
S'water'
p5322
aS'ground'
p5323
asg26
I537
sbsI538
(ipokeStructs
Pokemon_dex
p5324
(dp5325
g4
(lp5326
S'inner-focus'
p5327
aS'guts'
p5328
aS'mold-breaker'
p5329
asg8
S'Throh'
p5330
sg10
F555
sg11
(dp5331
g13
F30
sg14
F120
sg15
F85
sg16
F100
sg17
F85
sg18
F45
ssg19
F13
sg20
g21
sg22
(lp5332
S'fighting'
p5333
asg26
I538
sbsI539
(ipokeStructs
Pokemon_dex
p5334
(dp5335
g4
(lp5336
S'inner-focus'
p5337
aS'mold-breaker'
p5338
aS'sturdy'
p5339
asg8
S'Sawk'
p5340
sg10
F510
sg11
(dp5341
g13
F30
sg14
F75
sg15
F75
sg16
F125
sg17
F75
sg18
F85
ssg19
F14
sg20
g21
sg22
(lp5342
S'fighting'
p5343
asg26
I539
sbsI540
(ipokeStructs
Pokemon_dex
p5344
(dp5345
g4
(lp5346
S'overcoat'
p5347
aS'swarm'
p5348
aS'chlorophyll'
p5349
asg8
S'Sewaddle'
p5350
sg10
F25
sg11
(dp5351
g13
F40
sg14
F45
sg15
F60
sg16
F53
sg17
F70
sg18
F42
ssg19
F3
sg20
g21
sg22
(lp5352
S'grass'
p5353
aS'bug'
p5354
asg26
I540
sbsI541
(ipokeStructs
Pokemon_dex
p5355
(dp5356
g4
(lp5357
S'overcoat'
p5358
aS'chlorophyll'
p5359
aS'leaf-guard'
p5360
asg8
S'Swadloon'
p5361
sg10
F73
sg11
(dp5362
g13
F50
sg14
F55
sg15
F80
sg16
F63
sg17
F90
sg18
F42
ssg19
F5
sg20
g21
sg22
(lp5363
S'grass'
p5364
aS'bug'
p5365
asg26
I541
sbsI542
(ipokeStructs
Pokemon_dex
p5366
(dp5367
g4
(lp5368
S'overcoat'
p5369
aS'swarm'
p5370
aS'chlorophyll'
p5371
asg8
S'Leavanny'
p5372
sg10
F205
sg11
(dp5373
g13
F70
sg14
F75
sg15
F80
sg16
F103
sg17
F80
sg18
F92
ssg19
F12
sg20
g21
sg22
(lp5374
S'grass'
p5375
aS'bug'
p5376
asg26
I542
sbsI543
(ipokeStructs
Pokemon_dex
p5377
(dp5378
g4
(lp5379
S'quick-feet'
p5380
aS'poison-point'
p5381
aS'swarm'
p5382
asg8
S'Venipede'
p5383
sg10
F53
sg11
(dp5384
g13
F30
sg14
F30
sg15
F39
sg16
F45
sg17
F59
sg18
F57
ssg19
F4
sg20
g21
sg22
(lp5385
S'bug'
p5386
aS'poison'
p5387
asg26
I543
sbsI544
(ipokeStructs
Pokemon_dex
p5388
(dp5389
g4
(lp5390
S'quick-feet'
p5391
aS'poison-point'
p5392
aS'swarm'
p5393
asg8
S'Whirlipede'
p5394
sg10
F585
sg11
(dp5395
g13
F40
sg14
F40
sg15
F79
sg16
F55
sg17
F99
sg18
F47
ssg19
F12
sg20
g21
sg22
(lp5396
S'bug'
p5397
aS'poison'
p5398
asg26
I544
sbsI545
(ipokeStructs
Pokemon_dex
p5399
(dp5400
g4
(lp5401
S'quick-feet'
p5402
aS'poison-point'
p5403
aS'swarm'
p5404
asg8
S'Scolipede'
p5405
sg10
F2005
sg11
(dp5406
g13
F55
sg14
F60
sg15
F69
sg16
F100
sg17
F89
sg18
F112
ssg19
F25
sg20
g21
sg22
(lp5407
S'bug'
p5408
aS'poison'
p5409
asg26
I545
sbsI546
(ipokeStructs
Pokemon_dex
p5410
(dp5411
g4
(lp5412
S'prankster'
p5413
aS'chlorophyll'
p5414
aS'infiltrator'
p5415
asg8
S'Cottonee'
p5416
sg10
F6
sg11
(dp5417
g13
F37
sg14
F40
sg15
F50
sg16
F27
sg17
F60
sg18
F66
ssg19
F3
sg20
g21
sg22
(lp5418
S'fairy'
p5419
aS'grass'
p5420
asg26
I546
sbsI547
(ipokeStructs
Pokemon_dex
p5421
(dp5422
g4
(lp5423
S'prankster'
p5424
aS'chlorophyll'
p5425
aS'infiltrator'
p5426
asg8
S'Whimsicott'
p5427
sg10
F66
sg11
(dp5428
g13
F77
sg14
F60
sg15
F75
sg16
F67
sg17
F85
sg18
F116
ssg19
F7
sg20
g21
sg22
(lp5429
S'fairy'
p5430
aS'grass'
p5431
asg26
I547
sbsI548
(ipokeStructs
Pokemon_dex
p5432
(dp5433
g4
(lp5434
S'chlorophyll'
p5435
aS'leaf-guard'
p5436
aS'own-tempo'
p5437
asg8
S'Petilil'
p5438
sg10
F66
sg11
(dp5439
g13
F70
sg14
F45
sg15
F50
sg16
F35
sg17
F50
sg18
F30
ssg19
F5
sg20
g21
sg22
(lp5440
S'grass'
p5441
asg26
I548
sbsI549
(ipokeStructs
Pokemon_dex
p5442
(dp5443
g4
(lp5444
S'chlorophyll'
p5445
aS'leaf-guard'
p5446
aS'own-tempo'
p5447
asg8
S'Lilligant'
p5448
sg10
F163
sg11
(dp5449
g13
F110
sg14
F70
sg15
F75
sg16
F60
sg17
F75
sg18
F90
ssg19
F11
sg20
g21
sg22
(lp5450
S'grass'
p5451
asg26
I549
sbsI550
(ipokeStructs
Pokemon_dex
p5452
(dp5453
g4
(lp5454
S'mold-breaker'
p5455
aS'reckless'
p5456
aS'adaptability'
p5457
asg8
S'Basculin-red-striped'
p5458
sg10
F180
sg11
(dp5459
g13
F80
sg14
F70
sg15
F55
sg16
F92
sg17
F65
sg18
F98
ssg19
F10
sg20
g21
sg22
(lp5460
S'water'
p5461
asg26
I550
sbsI551
(ipokeStructs
Pokemon_dex
p5462
(dp5463
g4
(lp5464
S'intimidate'
p5465
aS'moxie'
p5466
aS'anger-point'
p5467
asg8
S'Sandile'
p5468
sg10
F152
sg11
(dp5469
g13
F35
sg14
F50
sg15
F35
sg16
F72
sg17
F35
sg18
F65
ssg19
F7
sg20
g21
sg22
(lp5470
S'dark'
p5471
aS'ground'
p5472
asg26
I551
sbsI552
(ipokeStructs
Pokemon_dex
p5473
(dp5474
g4
(lp5475
S'intimidate'
p5476
aS'moxie'
p5477
aS'anger-point'
p5478
asg8
S'Krokorok'
p5479
sg10
F334
sg11
(dp5480
g13
F45
sg14
F60
sg15
F45
sg16
F82
sg17
F45
sg18
F74
ssg19
F10
sg20
g21
sg22
(lp5481
S'dark'
p5482
aS'ground'
p5483
asg26
I552
sbsI553
(ipokeStructs
Pokemon_dex
p5484
(dp5485
g4
(lp5486
S'intimidate'
p5487
aS'moxie'
p5488
aS'anger-point'
p5489
asg8
S'Krookodile'
p5490
sg10
F963
sg11
(dp5491
g13
F65
sg14
F95
sg15
F70
sg16
F117
sg17
F80
sg18
F92
ssg19
F15
sg20
g21
sg22
(lp5492
S'dark'
p5493
aS'ground'
p5494
asg26
I553
sbsI554
(ipokeStructs
Pokemon_dex
p5495
(dp5496
g4
(lp5497
S'inner-focus'
p5498
aS'hustle'
p5499
asg8
S'Darumaka'
p5500
sg10
F375
sg11
(dp5501
g13
F15
sg14
F70
sg15
F45
sg16
F90
sg17
F45
sg18
F50
ssg19
F6
sg20
g21
sg22
(lp5502
S'fire'
p5503
asg26
I554
sbsI555
(ipokeStructs
Pokemon_dex
p5504
(dp5505
g4
(lp5506
S'zen-mode'
p5507
aS'sheer-force'
p5508
asg8
S'Darmanitan-standard'
p5509
sg10
F929
sg11
(dp5510
g13
F30
sg14
F105
sg15
F55
sg16
F140
sg17
F55
sg18
F95
ssg19
F13
sg20
g21
sg22
(lp5511
S'fire'
p5512
asg26
I555
sbsI556
(ipokeStructs
Pokemon_dex
p5513
(dp5514
g4
(lp5515
S'water-absorb'
p5516
aS'chlorophyll'
p5517
aS'storm-drain'
p5518
asg8
S'Maractus'
p5519
sg10
F280
sg11
(dp5520
g13
F106
sg14
F75
sg15
F67
sg16
F86
sg17
F67
sg18
F60
ssg19
F10
sg20
g21
sg22
(lp5521
S'grass'
p5522
asg26
I556
sbsI557
(ipokeStructs
Pokemon_dex
p5523
(dp5524
g4
(lp5525
S'weak-armor'
p5526
aS'shell-armor'
p5527
aS'sturdy'
p5528
asg8
S'Dwebble'
p5529
sg10
F145
sg11
(dp5530
g13
F35
sg14
F50
sg15
F35
sg16
F65
sg17
F85
sg18
F55
ssg19
F3
sg20
g21
sg22
(lp5531
S'bug'
p5532
aS'rock'
p5533
asg26
I557
sbsI558
(ipokeStructs
Pokemon_dex
p5534
(dp5535
g4
(lp5536
S'weak-armor'
p5537
aS'shell-armor'
p5538
aS'sturdy'
p5539
asg8
S'Crustle'
p5540
sg10
F2000
sg11
(dp5541
g13
F65
sg14
F70
sg15
F75
sg16
F95
sg17
F125
sg18
F45
ssg19
F14
sg20
g21
sg22
(lp5542
S'bug'
p5543
aS'rock'
p5544
asg26
I558
sbsI559
(ipokeStructs
Pokemon_dex
p5545
(dp5546
g4
(lp5547
S'intimidate'
p5548
aS'shed-skin'
p5549
aS'moxie'
p5550
asg8
S'Scraggy'
p5551
sg10
F118
sg11
(dp5552
g13
F35
sg14
F50
sg15
F70
sg16
F75
sg17
F70
sg18
F48
ssg19
F6
sg20
g21
sg22
(lp5553
S'dark'
p5554
aS'fighting'
p5555
asg26
I559
sbsI560
(ipokeStructs
Pokemon_dex
p5556
(dp5557
g4
(lp5558
S'intimidate'
p5559
aS'shed-skin'
p5560
aS'moxie'
p5561
asg8
S'Scrafty'
p5562
sg10
F300
sg11
(dp5563
g13
F45
sg14
F65
sg15
F115
sg16
F90
sg17
F115
sg18
F58
ssg19
F11
sg20
g21
sg22
(lp5564
S'dark'
p5565
aS'fighting'
p5566
asg26
I560
sbsI561
(ipokeStructs
Pokemon_dex
p5567
(dp5568
g4
(lp5569
S'magic-guard'
p5570
aS'tinted-lens'
p5571
aS'wonder-skin'
p5572
asg8
S'Sigilyph'
p5573
sg10
F140
sg11
(dp5574
g13
F103
sg14
F72
sg15
F80
sg16
F58
sg17
F80
sg18
F97
ssg19
F14
sg20
g21
sg22
(lp5575
S'psychic'
p5576
aS'flying'
p5577
asg26
I561
sbsI562
(ipokeStructs
Pokemon_dex
p5578
(dp5579
g4
(lp5580
S'mummy'
p5581
asg8
S'Yamask'
p5582
sg10
F15
sg11
(dp5583
g13
F55
sg14
F38
sg15
F65
sg16
F30
sg17
F85
sg18
F30
ssg19
F5
sg20
g21
sg22
(lp5584
S'ghost'
p5585
asg26
I562
sbsI563
(ipokeStructs
Pokemon_dex
p5586
(dp5587
g4
(lp5588
S'mummy'
p5589
asg8
S'Cofagrigus'
p5590
sg10
F765
sg11
(dp5591
g13
F95
sg14
F58
sg15
F105
sg16
F50
sg17
F145
sg18
F30
ssg19
F17
sg20
g21
sg22
(lp5592
S'ghost'
p5593
asg26
I563
sbsI564
(ipokeStructs
Pokemon_dex
p5594
(dp5595
g4
(lp5596
S'swift-swim'
p5597
aS'solid-rock'
p5598
aS'sturdy'
p5599
asg8
S'Tirtouga'
p5600
sg10
F165
sg11
(dp5601
g13
F53
sg14
F54
sg15
F45
sg16
F78
sg17
F103
sg18
F22
ssg19
F7
sg20
g21
sg22
(lp5602
S'water'
p5603
aS'rock'
p5604
asg26
I564
sbsI565
(ipokeStructs
Pokemon_dex
p5605
(dp5606
g4
(lp5607
S'swift-swim'
p5608
aS'solid-rock'
p5609
aS'sturdy'
p5610
asg8
S'Carracosta'
p5611
sg10
F810
sg11
(dp5612
g13
F83
sg14
F74
sg15
F65
sg16
F108
sg17
F133
sg18
F32
ssg19
F12
sg20
g21
sg22
(lp5613
S'water'
p5614
aS'rock'
p5615
asg26
I565
sbsI566
(ipokeStructs
Pokemon_dex
p5616
(dp5617
g4
(lp5618
S'defeatist'
p5619
asg8
S'Archen'
p5620
sg10
F95
sg11
(dp5621
g13
F74
sg14
F55
sg15
F45
sg16
F112
sg17
F45
sg18
F70
ssg19
F5
sg20
g21
sg22
(lp5622
S'flying'
p5623
aS'rock'
p5624
asg26
I566
sbsI567
(ipokeStructs
Pokemon_dex
p5625
(dp5626
g4
(lp5627
S'defeatist'
p5628
asg8
S'Archeops'
p5629
sg10
F320
sg11
(dp5630
g13
F112
sg14
F75
sg15
F65
sg16
F140
sg17
F65
sg18
F110
ssg19
F14
sg20
g21
sg22
(lp5631
S'flying'
p5632
aS'rock'
p5633
asg26
I567
sbsI568
(ipokeStructs
Pokemon_dex
p5634
(dp5635
g4
(lp5636
S'aftermath'
p5637
aS'sticky-hold'
p5638
aS'stench'
p5639
asg8
S'Trubbish'
p5640
sg10
F310
sg11
(dp5641
g13
F40
sg14
F50
sg15
F62
sg16
F50
sg17
F62
sg18
F65
ssg19
F6
sg20
g21
sg22
(lp5642
S'poison'
p5643
asg26
I568
sbsI569
(ipokeStructs
Pokemon_dex
p5644
(dp5645
g4
(lp5646
S'weak-armor'
p5647
aS'aftermath'
p5648
aS'stench'
p5649
asg8
S'Garbodor'
p5650
sg10
F1073
sg11
(dp5651
g13
F60
sg14
F80
sg15
F82
sg16
F95
sg17
F82
sg18
F75
ssg19
F19
sg20
g21
sg22
(lp5652
S'poison'
p5653
asg26
I569
sbsI570
(ipokeStructs
Pokemon_dex
p5654
(dp5655
g4
(lp5656
S'illusion'
p5657
asg8
S'Zorua'
p5658
sg10
F125
sg11
(dp5659
g13
F80
sg14
F40
sg15
F40
sg16
F65
sg17
F40
sg18
F65
ssg19
F7
sg20
g21
sg22
(lp5660
S'dark'
p5661
asg26
I570
sbsI571
(ipokeStructs
Pokemon_dex
p5662
(dp5663
g4
(lp5664
S'illusion'
p5665
asg8
S'Zoroark'
p5666
sg10
F811
sg11
(dp5667
g13
F120
sg14
F60
sg15
F60
sg16
F105
sg17
F60
sg18
F105
ssg19
F16
sg20
g21
sg22
(lp5668
S'dark'
p5669
asg26
I571
sbsI572
(ipokeStructs
Pokemon_dex
p5670
(dp5671
g4
(lp5672
S'technician'
p5673
aS'skill-link'
p5674
aS'cute-charm'
p5675
asg8
S'Minccino'
p5676
sg10
F58
sg11
(dp5677
g13
F40
sg14
F55
sg15
F40
sg16
F50
sg17
F40
sg18
F75
ssg19
F4
sg20
g21
sg22
(lp5678
S'normal'
p5679
asg26
I572
sbsI573
(ipokeStructs
Pokemon_dex
p5680
(dp5681
g4
(lp5682
S'technician'
p5683
aS'skill-link'
p5684
aS'cute-charm'
p5685
asg8
S'Cinccino'
p5686
sg10
F75
sg11
(dp5687
g13
F65
sg14
F75
sg15
F60
sg16
F95
sg17
F60
sg18
F115
ssg19
F5
sg20
g21
sg22
(lp5688
S'normal'
p5689
asg26
I573
sbsI574
(ipokeStructs
Pokemon_dex
p5690
(dp5691
g4
(lp5692
S'shadow-tag'
p5693
aS'frisk'
p5694
asg8
S'Gothita'
p5695
sg10
F58
sg11
(dp5696
g13
F55
sg14
F45
sg15
F65
sg16
F30
sg17
F50
sg18
F45
ssg19
F4
sg20
g21
sg22
(lp5697
S'psychic'
p5698
asg26
I574
sbsI575
(ipokeStructs
Pokemon_dex
p5699
(dp5700
g4
(lp5701
S'shadow-tag'
p5702
aS'frisk'
p5703
asg8
S'Gothorita'
p5704
sg10
F180
sg11
(dp5705
g13
F75
sg14
F60
sg15
F85
sg16
F45
sg17
F70
sg18
F55
ssg19
F7
sg20
g21
sg22
(lp5706
S'psychic'
p5707
asg26
I575
sbsI576
(ipokeStructs
Pokemon_dex
p5708
(dp5709
g4
(lp5710
S'shadow-tag'
p5711
aS'frisk'
p5712
asg8
S'Gothitelle'
p5713
sg10
F440
sg11
(dp5714
g13
F95
sg14
F70
sg15
F110
sg16
F55
sg17
F95
sg18
F65
ssg19
F15
sg20
g21
sg22
(lp5715
S'psychic'
p5716
asg26
I576
sbsI577
(ipokeStructs
Pokemon_dex
p5717
(dp5718
g4
(lp5719
S'regenerator'
p5720
aS'magic-guard'
p5721
aS'overcoat'
p5722
asg8
S'Solosis'
p5723
sg10
F10
sg11
(dp5724
g13
F105
sg14
F45
sg15
F50
sg16
F30
sg17
F40
sg18
F20
ssg19
F3
sg20
g21
sg22
(lp5725
S'psychic'
p5726
asg26
I577
sbsI578
(ipokeStructs
Pokemon_dex
p5727
(dp5728
g4
(lp5729
S'regenerator'
p5730
aS'magic-guard'
p5731
aS'overcoat'
p5732
asg8
S'Duosion'
p5733
sg10
F80
sg11
(dp5734
g13
F125
sg14
F65
sg15
F60
sg16
F40
sg17
F50
sg18
F30
ssg19
F6
sg20
g21
sg22
(lp5735
S'psychic'
p5736
asg26
I578
sbsI579
(ipokeStructs
Pokemon_dex
p5737
(dp5738
g4
(lp5739
S'regenerator'
p5740
aS'magic-guard'
p5741
aS'overcoat'
p5742
asg8
S'Reuniclus'
p5743
sg10
F201
sg11
(dp5744
g13
F125
sg14
F110
sg15
F85
sg16
F65
sg17
F75
sg18
F30
ssg19
F10
sg20
g21
sg22
(lp5745
S'psychic'
p5746
asg26
I579
sbsI580
(ipokeStructs
Pokemon_dex
p5747
(dp5748
g4
(lp5749
S'big-pecks'
p5750
aS'hydration'
p5751
aS'keen-eye'
p5752
asg8
S'Ducklett'
p5753
sg10
F55
sg11
(dp5754
g13
F44
sg14
F62
sg15
F50
sg16
F44
sg17
F50
sg18
F55
ssg19
F5
sg20
g21
sg22
(lp5755
S'water'
p5756
aS'flying'
p5757
asg26
I580
sbsI581
(ipokeStructs
Pokemon_dex
p5758
(dp5759
g4
(lp5760
S'big-pecks'
p5761
aS'hydration'
p5762
aS'keen-eye'
p5763
asg8
S'Swanna'
p5764
sg10
F242
sg11
(dp5765
g13
F87
sg14
F75
sg15
F63
sg16
F87
sg17
F63
sg18
F98
ssg19
F13
sg20
g21
sg22
(lp5766
S'water'
p5767
aS'flying'
p5768
asg26
I581
sbsI582
(ipokeStructs
Pokemon_dex
p5769
(dp5770
g4
(lp5771
S'weak-armor'
p5772
aS'ice-body'
p5773
asg8
S'Vanillite'
p5774
sg10
F57
sg11
(dp5775
g13
F65
sg14
F36
sg15
F60
sg16
F50
sg17
F50
sg18
F44
ssg19
F4
sg20
g21
sg22
(lp5776
S'ice'
p5777
asg26
I582
sbsI583
(ipokeStructs
Pokemon_dex
p5778
(dp5779
g4
(lp5780
S'weak-armor'
p5781
aS'ice-body'
p5782
asg8
S'Vanillish'
p5783
sg10
F410
sg11
(dp5784
g13
F80
sg14
F51
sg15
F75
sg16
F65
sg17
F65
sg18
F59
ssg19
F11
sg20
g21
sg22
(lp5785
S'ice'
p5786
asg26
I583
sbsI584
(ipokeStructs
Pokemon_dex
p5787
(dp5788
g4
(lp5789
S'weak-armor'
p5790
aS'ice-body'
p5791
asg8
S'Vanilluxe'
p5792
sg10
F575
sg11
(dp5793
g13
F110
sg14
F71
sg15
F95
sg16
F95
sg17
F85
sg18
F79
ssg19
F13
sg20
g21
sg22
(lp5794
S'ice'
p5795
asg26
I584
sbsI585
(ipokeStructs
Pokemon_dex
p5796
(dp5797
g4
(lp5798
S'chlorophyll'
p5799
aS'sap-sipper'
p5800
aS'serene-grace'
p5801
asg8
S'Deerling'
p5802
sg10
F195
sg11
(dp5803
g13
F40
sg14
F60
sg15
F50
sg16
F60
sg17
F50
sg18
F75
ssg19
F6
sg20
g21
sg22
(lp5804
S'grass'
p5805
aS'normal'
p5806
asg26
I585
sbsI586
(ipokeStructs
Pokemon_dex
p5807
(dp5808
g4
(lp5809
S'chlorophyll'
p5810
aS'sap-sipper'
p5811
aS'serene-grace'
p5812
asg8
S'Sawsbuck'
p5813
sg10
F925
sg11
(dp5814
g13
F60
sg14
F80
sg15
F70
sg16
F100
sg17
F70
sg18
F95
ssg19
F19
sg20
g21
sg22
(lp5815
S'grass'
p5816
aS'normal'
p5817
asg26
I586
sbsI587
(ipokeStructs
Pokemon_dex
p5818
(dp5819
g4
(lp5820
S'static'
p5821
aS'motor-drive'
p5822
asg8
S'Emolga'
p5823
sg10
F50
sg11
(dp5824
g13
F75
sg14
F55
sg15
F60
sg16
F75
sg17
F60
sg18
F103
ssg19
F4
sg20
g21
sg22
(lp5825
S'flying'
p5826
aS'electric'
p5827
asg26
I587
sbsI588
(ipokeStructs
Pokemon_dex
p5828
(dp5829
g4
(lp5830
S'shed-skin'
p5831
aS'no-guard'
p5832
aS'swarm'
p5833
asg8
S'Karrablast'
p5834
sg10
F59
sg11
(dp5835
g13
F40
sg14
F50
sg15
F45
sg16
F75
sg17
F45
sg18
F60
ssg19
F5
sg20
g21
sg22
(lp5836
S'bug'
p5837
asg26
I588
sbsI589
(ipokeStructs
Pokemon_dex
p5838
(dp5839
g4
(lp5840
S'swarm'
p5841
aS'overcoat'
p5842
aS'shell-armor'
p5843
asg8
S'Escavalier'
p5844
sg10
F330
sg11
(dp5845
g13
F60
sg14
F70
sg15
F105
sg16
F135
sg17
F105
sg18
F20
ssg19
F10
sg20
g21
sg22
(lp5846
S'steel'
p5847
aS'bug'
p5848
asg26
I589
sbsI590
(ipokeStructs
Pokemon_dex
p5849
(dp5850
g4
(lp5851
S'regenerator'
p5852
aS'effect-spore'
p5853
asg8
S'Foongus'
p5854
sg10
F10
sg11
(dp5855
g13
F55
sg14
F69
sg15
F55
sg16
F55
sg17
F45
sg18
F15
ssg19
F2
sg20
g21
sg22
(lp5856
S'grass'
p5857
aS'poison'
p5858
asg26
I590
sbsI591
(ipokeStructs
Pokemon_dex
p5859
(dp5860
g4
(lp5861
S'regenerator'
p5862
aS'effect-spore'
p5863
asg8
S'Amoonguss'
p5864
sg10
F105
sg11
(dp5865
g13
F85
sg14
F114
sg15
F80
sg16
F85
sg17
F70
sg18
F30
ssg19
F6
sg20
g21
sg22
(lp5866
S'grass'
p5867
aS'poison'
p5868
asg26
I591
sbsI592
(ipokeStructs
Pokemon_dex
p5869
(dp5870
g4
(lp5871
S'water-absorb'
p5872
aS'damp'
p5873
aS'cursed-body'
p5874
asg8
S'Frillish'
p5875
sg10
F330
sg11
(dp5876
g13
F65
sg14
F55
sg15
F85
sg16
F40
sg17
F50
sg18
F40
ssg19
F12
sg20
g21
sg22
(lp5877
S'ghost'
p5878
aS'water'
p5879
asg26
I592
sbsI593
(ipokeStructs
Pokemon_dex
p5880
(dp5881
g4
(lp5882
S'water-absorb'
p5883
aS'damp'
p5884
aS'cursed-body'
p5885
asg8
S'Jellicent'
p5886
sg10
F1350
sg11
(dp5887
g13
F85
sg14
F100
sg15
F105
sg16
F60
sg17
F70
sg18
F60
ssg19
F22
sg20
g21
sg22
(lp5888
S'ghost'
p5889
aS'water'
p5890
asg26
I593
sbsI594
(ipokeStructs
Pokemon_dex
p5891
(dp5892
g4
(lp5893
S'healer'
p5894
aS'hydration'
p5895
aS'regenerator'
p5896
asg8
S'Alomomola'
p5897
sg10
F316
sg11
(dp5898
g13
F40
sg14
F165
sg15
F45
sg16
F75
sg17
F80
sg18
F65
ssg19
F12
sg20
g21
sg22
(lp5899
S'water'
p5900
asg26
I594
sbsI595
(ipokeStructs
Pokemon_dex
p5901
(dp5902
g4
(lp5903
S'swarm'
p5904
aS'unnerve'
p5905
aS'compoundeyes'
p5906
asg8
S'Joltik'
p5907
sg10
F6
sg11
(dp5908
g13
F57
sg14
F50
sg15
F50
sg16
F47
sg17
F50
sg18
F65
ssg19
F1
sg20
g21
sg22
(lp5909
S'bug'
p5910
aS'electric'
p5911
asg26
I595
sbsI596
(ipokeStructs
Pokemon_dex
p5912
(dp5913
g4
(lp5914
S'swarm'
p5915
aS'unnerve'
p5916
aS'compoundeyes'
p5917
asg8
S'Galvantula'
p5918
sg10
F143
sg11
(dp5919
g13
F97
sg14
F70
sg15
F60
sg16
F77
sg17
F60
sg18
F108
ssg19
F8
sg20
g21
sg22
(lp5920
S'bug'
p5921
aS'electric'
p5922
asg26
I596
sbsI597
(ipokeStructs
Pokemon_dex
p5923
(dp5924
g4
(lp5925
S'iron-barbs'
p5926
asg8
S'Ferroseed'
p5927
sg10
F188
sg11
(dp5928
g13
F24
sg14
F44
sg15
F86
sg16
F50
sg17
F91
sg18
F10
ssg19
F6
sg20
g21
sg22
(lp5929
S'steel'
p5930
aS'grass'
p5931
asg26
I597
sbsI598
(ipokeStructs
Pokemon_dex
p5932
(dp5933
g4
(lp5934
S'iron-barbs'
p5935
asg8
S'Ferrothorn'
p5936
sg10
F1100
sg11
(dp5937
g13
F54
sg14
F74
sg15
F116
sg16
F94
sg17
F131
sg18
F20
ssg19
F10
sg20
g21
sg22
(lp5938
S'steel'
p5939
aS'grass'
p5940
asg26
I598
sbsI599
(ipokeStructs
Pokemon_dex
p5941
(dp5942
g4
(lp5943
S'plus'
p5944
aS'minus'
p5945
aS'clear-body'
p5946
asg8
S'Klink'
p5947
sg10
F210
sg11
(dp5948
g13
F45
sg14
F40
sg15
F60
sg16
F55
sg17
F70
sg18
F30
ssg19
F3
sg20
g21
sg22
(lp5949
S'steel'
p5950
asg26
I599
sbsI600
(ipokeStructs
Pokemon_dex
p5951
(dp5952
g4
(lp5953
S'plus'
p5954
aS'minus'
p5955
aS'clear-body'
p5956
asg8
S'Klang'
p5957
sg10
F510
sg11
(dp5958
g13
F70
sg14
F60
sg15
F85
sg16
F80
sg17
F95
sg18
F50
ssg19
F6
sg20
g21
sg22
(lp5959
S'steel'
p5960
asg26
I600
sbsI601
(ipokeStructs
Pokemon_dex
p5961
(dp5962
g4
(lp5963
S'plus'
p5964
aS'minus'
p5965
aS'clear-body'
p5966
asg8
S'Klinklang'
p5967
sg10
F810
sg11
(dp5968
g13
F70
sg14
F60
sg15
F85
sg16
F100
sg17
F115
sg18
F90
ssg19
F6
sg20
g21
sg22
(lp5969
S'steel'
p5970
asg26
I601
sbsI602
(ipokeStructs
Pokemon_dex
p5971
(dp5972
g4
(lp5973
S'levitate'
p5974
asg8
S'Tynamo'
p5975
sg10
F3
sg11
(dp5976
g13
F45
sg14
F35
sg15
F40
sg16
F55
sg17
F40
sg18
F60
ssg19
F2
sg20
g21
sg22
(lp5977
S'electric'
p5978
asg26
I602
sbsI603
(ipokeStructs
Pokemon_dex
p5979
(dp5980
g4
(lp5981
S'levitate'
p5982
asg8
S'Eelektrik'
p5983
sg10
F220
sg11
(dp5984
g13
F75
sg14
F65
sg15
F70
sg16
F85
sg17
F70
sg18
F40
ssg19
F12
sg20
g21
sg22
(lp5985
S'electric'
p5986
asg26
I603
sbsI604
(ipokeStructs
Pokemon_dex
p5987
(dp5988
g4
(lp5989
S'levitate'
p5990
asg8
S'Eelektross'
p5991
sg10
F805
sg11
(dp5992
g13
F105
sg14
F85
sg15
F80
sg16
F115
sg17
F80
sg18
F50
ssg19
F21
sg20
g21
sg22
(lp5993
S'electric'
p5994
asg26
I604
sbsI605
(ipokeStructs
Pokemon_dex
p5995
(dp5996
g4
(lp5997
S'synchronize'
p5998
aS'analytic'
p5999
aS'telepathy'
p6000
asg8
S'Elgyem'
p6001
sg10
F90
sg11
(dp6002
g13
F85
sg14
F55
sg15
F55
sg16
F55
sg17
F55
sg18
F30
ssg19
F5
sg20
g21
sg22
(lp6003
S'psychic'
p6004
asg26
I605
sbsI606
(ipokeStructs
Pokemon_dex
p6005
(dp6006
g4
(lp6007
S'synchronize'
p6008
aS'analytic'
p6009
aS'telepathy'
p6010
asg8
S'Beheeyem'
p6011
sg10
F345
sg11
(dp6012
g13
F125
sg14
F75
sg15
F95
sg16
F75
sg17
F75
sg18
F40
ssg19
F10
sg20
g21
sg22
(lp6013
S'psychic'
p6014
asg26
I606
sbsI607
(ipokeStructs
Pokemon_dex
p6015
(dp6016
g4
(lp6017
S'flame-body'
p6018
aS'flash-fire'
p6019
aS'shadow-tag'
p6020
asg8
S'Litwick'
p6021
sg10
F31
sg11
(dp6022
g13
F65
sg14
F50
sg15
F55
sg16
F30
sg17
F55
sg18
F20
ssg19
F3
sg20
g21
sg22
(lp6023
S'ghost'
p6024
aS'fire'
p6025
asg26
I607
sbsI608
(ipokeStructs
Pokemon_dex
p6026
(dp6027
g4
(lp6028
S'flame-body'
p6029
aS'flash-fire'
p6030
aS'shadow-tag'
p6031
asg8
S'Lampent'
p6032
sg10
F130
sg11
(dp6033
g13
F95
sg14
F60
sg15
F60
sg16
F40
sg17
F60
sg18
F55
ssg19
F6
sg20
g21
sg22
(lp6034
S'ghost'
p6035
aS'fire'
p6036
asg26
I608
sbsI609
(ipokeStructs
Pokemon_dex
p6037
(dp6038
g4
(lp6039
S'flame-body'
p6040
aS'flash-fire'
p6041
aS'shadow-tag'
p6042
asg8
S'Chandelure'
p6043
sg10
F343
sg11
(dp6044
g13
F145
sg14
F60
sg15
F90
sg16
F55
sg17
F90
sg18
F80
ssg19
F10
sg20
g21
sg22
(lp6045
S'ghost'
p6046
aS'fire'
p6047
asg26
I609
sbsI610
(ipokeStructs
Pokemon_dex
p6048
(dp6049
g4
(lp6050
S'unnerve'
p6051
aS'mold-breaker'
p6052
aS'rivalry'
p6053
asg8
S'Axew'
p6054
sg10
F180
sg11
(dp6055
g13
F30
sg14
F46
sg15
F40
sg16
F87
sg17
F60
sg18
F57
ssg19
F6
sg20
g21
sg22
(lp6056
S'dragon'
p6057
asg26
I610
sbsI611
(ipokeStructs
Pokemon_dex
p6058
(dp6059
g4
(lp6060
S'unnerve'
p6061
aS'mold-breaker'
p6062
aS'rivalry'
p6063
asg8
S'Fraxure'
p6064
sg10
F360
sg11
(dp6065
g13
F40
sg14
F66
sg15
F50
sg16
F117
sg17
F70
sg18
F67
ssg19
F10
sg20
g21
sg22
(lp6066
S'dragon'
p6067
asg26
I611
sbsI612
(ipokeStructs
Pokemon_dex
p6068
(dp6069
g4
(lp6070
S'unnerve'
p6071
aS'mold-breaker'
p6072
aS'rivalry'
p6073
asg8
S'Haxorus'
p6074
sg10
F1055
sg11
(dp6075
g13
F60
sg14
F76
sg15
F70
sg16
F147
sg17
F90
sg18
F97
ssg19
F18
sg20
g21
sg22
(lp6076
S'dragon'
p6077
asg26
I612
sbsI613
(ipokeStructs
Pokemon_dex
p6078
(dp6079
g4
(lp6080
S'rattled'
p6081
aS'snow-cloak'
p6082
asg8
S'Cubchoo'
p6083
sg10
F85
sg11
(dp6084
g13
F60
sg14
F55
sg15
F40
sg16
F70
sg17
F40
sg18
F40
ssg19
F5
sg20
g21
sg22
(lp6085
S'ice'
p6086
asg26
I613
sbsI614
(ipokeStructs
Pokemon_dex
p6087
(dp6088
g4
(lp6089
S'swift-swim'
p6090
aS'snow-cloak'
p6091
asg8
S'Beartic'
p6092
sg10
F2600
sg11
(dp6093
g13
F70
sg14
F95
sg15
F80
sg16
F110
sg17
F80
sg18
F50
ssg19
F26
sg20
g21
sg22
(lp6094
S'ice'
p6095
asg26
I614
sbsI615
(ipokeStructs
Pokemon_dex
p6096
(dp6097
g4
(lp6098
S'levitate'
p6099
asg8
S'Cryogonal'
p6100
sg10
F1480
sg11
(dp6101
g13
F95
sg14
F70
sg15
F135
sg16
F50
sg17
F30
sg18
F105
ssg19
F11
sg20
g21
sg22
(lp6102
S'ice'
p6103
asg26
I615
sbsI616
(ipokeStructs
Pokemon_dex
p6104
(dp6105
g4
(lp6106
S'overcoat'
p6107
aS'hydration'
p6108
aS'shell-armor'
p6109
asg8
S'Shelmet'
p6110
sg10
F77
sg11
(dp6111
g13
F40
sg14
F50
sg15
F65
sg16
F40
sg17
F85
sg18
F25
ssg19
F4
sg20
g21
sg22
(lp6112
S'bug'
p6113
asg26
I616
sbsI617
(ipokeStructs
Pokemon_dex
p6114
(dp6115
g4
(lp6116
S'sticky-hold'
p6117
aS'hydration'
p6118
aS'unburden'
p6119
asg8
S'Accelgor'
p6120
sg10
F253
sg11
(dp6121
g13
F100
sg14
F80
sg15
F60
sg16
F70
sg17
F40
sg18
F145
ssg19
F8
sg20
g21
sg22
(lp6122
S'bug'
p6123
asg26
I617
sbsI618
(ipokeStructs
Pokemon_dex
p6124
(dp6125
g4
(lp6126
S'sand-veil'
p6127
aS'static'
p6128
aS'limber'
p6129
asg8
S'Stunfisk'
p6130
sg10
F110
sg11
(dp6131
g13
F81
sg14
F109
sg15
F99
sg16
F66
sg17
F84
sg18
F32
ssg19
F7
sg20
g21
sg22
(lp6132
S'electric'
p6133
aS'ground'
p6134
asg26
I618
sbsI619
(ipokeStructs
Pokemon_dex
p6135
(dp6136
g4
(lp6137
S'inner-focus'
p6138
aS'regenerator'
p6139
aS'reckless'
p6140
asg8
S'Mienfoo'
p6141
sg10
F200
sg11
(dp6142
g13
F55
sg14
F45
sg15
F50
sg16
F85
sg17
F50
sg18
F65
ssg19
F9
sg20
g21
sg22
(lp6143
S'fighting'
p6144
asg26
I619
sbsI620
(ipokeStructs
Pokemon_dex
p6145
(dp6146
g4
(lp6147
S'inner-focus'
p6148
aS'regenerator'
p6149
aS'reckless'
p6150
asg8
S'Mienshao'
p6151
sg10
F355
sg11
(dp6152
g13
F95
sg14
F65
sg15
F60
sg16
F125
sg17
F60
sg18
F105
ssg19
F14
sg20
g21
sg22
(lp6153
S'fighting'
p6154
asg26
I620
sbsI621
(ipokeStructs
Pokemon_dex
p6155
(dp6156
g4
(lp6157
S'rough-skin'
p6158
aS'sheer-force'
p6159
aS'mold-breaker'
p6160
asg8
S'Druddigon'
p6161
sg10
F1390
sg11
(dp6162
g13
F60
sg14
F77
sg15
F90
sg16
F120
sg17
F90
sg18
F48
ssg19
F16
sg20
g21
sg22
(lp6163
S'dragon'
p6164
asg26
I621
sbsI622
(ipokeStructs
Pokemon_dex
p6165
(dp6166
g4
(lp6167
S'iron-fist'
p6168
aS'klutz'
p6169
aS'no-guard'
p6170
asg8
S'Golett'
p6171
sg10
F920
sg11
(dp6172
g13
F35
sg14
F59
sg15
F50
sg16
F74
sg17
F50
sg18
F35
ssg19
F10
sg20
g21
sg22
(lp6173
S'ghost'
p6174
aS'ground'
p6175
asg26
I622
sbsI623
(ipokeStructs
Pokemon_dex
p6176
(dp6177
g4
(lp6178
S'iron-fist'
p6179
aS'klutz'
p6180
aS'no-guard'
p6181
asg8
S'Golurk'
p6182
sg10
F3300
sg11
(dp6183
g13
F55
sg14
F89
sg15
F80
sg16
F124
sg17
F80
sg18
F55
ssg19
F28
sg20
g21
sg22
(lp6184
S'ghost'
p6185
aS'ground'
p6186
asg26
I623
sbsI624
(ipokeStructs
Pokemon_dex
p6187
(dp6188
g4
(lp6189
S'inner-focus'
p6190
aS'pressure'
p6191
aS'defiant'
p6192
asg8
S'Pawniard'
p6193
sg10
F102
sg11
(dp6194
g13
F40
sg14
F45
sg15
F40
sg16
F85
sg17
F70
sg18
F60
ssg19
F5
sg20
g21
sg22
(lp6195
S'steel'
p6196
aS'dark'
p6197
asg26
I624
sbsI625
(ipokeStructs
Pokemon_dex
p6198
(dp6199
g4
(lp6200
S'inner-focus'
p6201
aS'pressure'
p6202
aS'defiant'
p6203
asg8
S'Bisharp'
p6204
sg10
F700
sg11
(dp6205
g13
F60
sg14
F65
sg15
F70
sg16
F125
sg17
F100
sg18
F70
ssg19
F16
sg20
g21
sg22
(lp6206
S'steel'
p6207
aS'dark'
p6208
asg26
I625
sbsI626
(ipokeStructs
Pokemon_dex
p6209
(dp6210
g4
(lp6211
S'sap-sipper'
p6212
aS'reckless'
p6213
aS'soundproof'
p6214
asg8
S'Bouffalant'
p6215
sg10
F946
sg11
(dp6216
g13
F40
sg14
F95
sg15
F95
sg16
F110
sg17
F95
sg18
F55
ssg19
F16
sg20
g21
sg22
(lp6217
S'normal'
p6218
asg26
I626
sbsI627
(ipokeStructs
Pokemon_dex
p6219
(dp6220
g4
(lp6221
S'sheer-force'
p6222
aS'keen-eye'
p6223
aS'hustle'
p6224
asg8
S'Rufflet'
p6225
sg10
F105
sg11
(dp6226
g13
F37
sg14
F70
sg15
F50
sg16
F83
sg17
F50
sg18
F60
ssg19
F5
sg20
g21
sg22
(lp6227
S'flying'
p6228
aS'normal'
p6229
asg26
I627
sbsI628
(ipokeStructs
Pokemon_dex
p6230
(dp6231
g4
(lp6232
S'sheer-force'
p6233
aS'keen-eye'
p6234
aS'defiant'
p6235
asg8
S'Braviary'
p6236
sg10
F410
sg11
(dp6237
g13
F57
sg14
F100
sg15
F75
sg16
F123
sg17
F75
sg18
F80
ssg19
F15
sg20
g21
sg22
(lp6238
S'flying'
p6239
aS'normal'
p6240
asg26
I628
sbsI629
(ipokeStructs
Pokemon_dex
p6241
(dp6242
g4
(lp6243
S'weak-armor'
p6244
aS'big-pecks'
p6245
aS'overcoat'
p6246
asg8
S'Vullaby'
p6247
sg10
F90
sg11
(dp6248
g13
F45
sg14
F70
sg15
F65
sg16
F55
sg17
F75
sg18
F60
ssg19
F5
sg20
g21
sg22
(lp6249
S'dark'
p6250
aS'flying'
p6251
asg26
I629
sbsI630
(ipokeStructs
Pokemon_dex
p6252
(dp6253
g4
(lp6254
S'weak-armor'
p6255
aS'big-pecks'
p6256
aS'overcoat'
p6257
asg8
S'Mandibuzz'
p6258
sg10
F395
sg11
(dp6259
g13
F55
sg14
F110
sg15
F95
sg16
F65
sg17
F105
sg18
F80
ssg19
F12
sg20
g21
sg22
(lp6260
S'dark'
p6261
aS'flying'
p6262
asg26
I630
sbsI631
(ipokeStructs
Pokemon_dex
p6263
(dp6264
g4
(lp6265
S'white-smoke'
p6266
aS'flash-fire'
p6267
aS'gluttony'
p6268
asg8
S'Heatmor'
p6269
sg10
F580
sg11
(dp6270
g13
F105
sg14
F85
sg15
F66
sg16
F97
sg17
F66
sg18
F65
ssg19
F14
sg20
g21
sg22
(lp6271
S'fire'
p6272
asg26
I631
sbsI632
(ipokeStructs
Pokemon_dex
p6273
(dp6274
g4
(lp6275
S'swarm'
p6276
aS'truant'
p6277
aS'hustle'
p6278
asg8
S'Durant'
p6279
sg10
F330
sg11
(dp6280
g13
F48
sg14
F58
sg15
F48
sg16
F109
sg17
F112
sg18
F109
ssg19
F3
sg20
g21
sg22
(lp6281
S'steel'
p6282
aS'bug'
p6283
asg26
I632
sbsI633
(ipokeStructs
Pokemon_dex
p6284
(dp6285
g4
(lp6286
S'hustle'
p6287
asg8
S'Deino'
p6288
sg10
F173
sg11
(dp6289
g13
F45
sg14
F52
sg15
F50
sg16
F65
sg17
F50
sg18
F38
ssg19
F8
sg20
g21
sg22
(lp6290
S'dark'
p6291
aS'dragon'
p6292
asg26
I633
sbsI634
(ipokeStructs
Pokemon_dex
p6293
(dp6294
g4
(lp6295
S'hustle'
p6296
asg8
S'Zweilous'
p6297
sg10
F500
sg11
(dp6298
g13
F65
sg14
F72
sg15
F70
sg16
F85
sg17
F70
sg18
F58
ssg19
F14
sg20
g21
sg22
(lp6299
S'dark'
p6300
aS'dragon'
p6301
asg26
I634
sbsI635
(ipokeStructs
Pokemon_dex
p6302
(dp6303
g4
(lp6304
S'levitate'
p6305
asg8
S'Hydreigon'
p6306
sg10
F1600
sg11
(dp6307
g13
F125
sg14
F92
sg15
F90
sg16
F105
sg17
F90
sg18
F98
ssg19
F18
sg20
g21
sg22
(lp6308
S'dark'
p6309
aS'dragon'
p6310
asg26
I635
sbsI636
(ipokeStructs
Pokemon_dex
p6311
(dp6312
g4
(lp6313
S'flame-body'
p6314
aS'swarm'
p6315
asg8
S'Larvesta'
p6316
sg10
F288
sg11
(dp6317
g13
F50
sg14
F55
sg15
F55
sg16
F85
sg17
F55
sg18
F60
ssg19
F11
sg20
g21
sg22
(lp6318
S'fire'
p6319
aS'bug'
p6320
asg26
I636
sbsI637
(ipokeStructs
Pokemon_dex
p6321
(dp6322
g4
(lp6323
S'flame-body'
p6324
aS'swarm'
p6325
asg8
S'Volcarona'
p6326
sg10
F460
sg11
(dp6327
g13
F135
sg14
F85
sg15
F105
sg16
F60
sg17
F65
sg18
F100
ssg19
F16
sg20
g21
sg22
(lp6328
S'fire'
p6329
aS'bug'
p6330
asg26
I637
sbsI638
(ipokeStructs
Pokemon_dex
p6331
(dp6332
g4
(lp6333
S'justified'
p6334
asg8
S'Cobalion'
p6335
sg10
F2500
sg11
(dp6336
g13
F90
sg14
F91
sg15
F72
sg16
F90
sg17
F129
sg18
F108
ssg19
F21
sg20
g21
sg22
(lp6337
S'steel'
p6338
aS'fighting'
p6339
asg26
I638
sbsI639
(ipokeStructs
Pokemon_dex
p6340
(dp6341
g4
(lp6342
S'justified'
p6343
asg8
S'Terrakion'
p6344
sg10
F2600
sg11
(dp6345
g13
F72
sg14
F91
sg15
F90
sg16
F129
sg17
F90
sg18
F108
ssg19
F19
sg20
g21
sg22
(lp6346
S'fighting'
p6347
aS'rock'
p6348
asg26
I639
sbsI640
(ipokeStructs
Pokemon_dex
p6349
(dp6350
g4
(lp6351
S'justified'
p6352
asg8
S'Virizion'
p6353
sg10
F2000
sg11
(dp6354
g13
F90
sg14
F91
sg15
F129
sg16
F90
sg17
F72
sg18
F108
ssg19
F20
sg20
g21
sg22
(lp6355
S'grass'
p6356
aS'fighting'
p6357
asg26
I640
sbsI641
(ipokeStructs
Pokemon_dex
p6358
(dp6359
g4
(lp6360
S'defiant'
p6361
aS'prankster'
p6362
asg8
S'Tornadus-incarnate'
p6363
sg10
F630
sg11
(dp6364
g13
F125
sg14
F79
sg15
F80
sg16
F115
sg17
F70
sg18
F111
ssg19
F15
sg20
g21
sg22
(lp6365
S'flying'
p6366
asg26
I641
sbsI642
(ipokeStructs
Pokemon_dex
p6367
(dp6368
g4
(lp6369
S'defiant'
p6370
aS'prankster'
p6371
asg8
S'Thundurus-incarnate'
p6372
sg10
F610
sg11
(dp6373
g13
F125
sg14
F79
sg15
F80
sg16
F115
sg17
F70
sg18
F111
ssg19
F15
sg20
g21
sg22
(lp6374
S'flying'
p6375
aS'electric'
p6376
asg26
I642
sbsI643
(ipokeStructs
Pokemon_dex
p6377
(dp6378
g4
(lp6379
S'turboblaze'
p6380
asg8
S'Reshiram'
p6381
sg10
F3300
sg11
(dp6382
g13
F150
sg14
F100
sg15
F120
sg16
F120
sg17
F100
sg18
F90
ssg19
F32
sg20
g21
sg22
(lp6383
S'fire'
p6384
aS'dragon'
p6385
asg26
I643
sbsI644
(ipokeStructs
Pokemon_dex
p6386
(dp6387
g4
(lp6388
S'teravolt'
p6389
asg8
S'Zekrom'
p6390
sg10
F3450
sg11
(dp6391
g13
F120
sg14
F100
sg15
F100
sg16
F150
sg17
F120
sg18
F90
ssg19
F29
sg20
g21
sg22
(lp6392
S'electric'
p6393
aS'dragon'
p6394
asg26
I644
sbsI645
(ipokeStructs
Pokemon_dex
p6395
(dp6396
g4
(lp6397
S'sheer-force'
p6398
aS'sand-force'
p6399
asg8
S'Landorus-incarnate'
p6400
sg10
F680
sg11
(dp6401
g13
F115
sg14
F89
sg15
F80
sg16
F125
sg17
F90
sg18
F101
ssg19
F15
sg20
g21
sg22
(lp6402
S'flying'
p6403
aS'ground'
p6404
asg26
I645
sbsI646
(ipokeStructs
Pokemon_dex
p6405
(dp6406
g4
(lp6407
S'pressure'
p6408
asg8
S'Kyurem'
p6409
sg10
F3250
sg11
(dp6410
g13
F130
sg14
F125
sg15
F90
sg16
F130
sg17
F90
sg18
F95
ssg19
F30
sg20
g21
sg22
(lp6411
S'ice'
p6412
aS'dragon'
p6413
asg26
I646
sbsI647
(ipokeStructs
Pokemon_dex
p6414
(dp6415
g4
(lp6416
S'justified'
p6417
asg8
S'Keldeo-ordinary'
p6418
sg10
F485
sg11
(dp6419
g13
F129
sg14
F91
sg15
F90
sg16
F72
sg17
F90
sg18
F108
ssg19
F14
sg20
g21
sg22
(lp6420
S'water'
p6421
aS'fighting'
p6422
asg26
I647
sbsI648
(ipokeStructs
Pokemon_dex
p6423
(dp6424
g4
(lp6425
S'serene-grace'
p6426
asg8
S'Meloetta-aria'
p6427
sg10
F65
sg11
(dp6428
g13
F128
sg14
F100
sg15
F128
sg16
F77
sg17
F77
sg18
F90
ssg19
F6
sg20
g21
sg22
(lp6429
S'psychic'
p6430
aS'normal'
p6431
asg26
I648
sbsI649
(ipokeStructs
Pokemon_dex
p6432
(dp6433
g4
(lp6434
S'download'
p6435
asg8
S'Genesect'
p6436
sg10
F825
sg11
(dp6437
g13
F120
sg14
F71
sg15
F95
sg16
F120
sg17
F95
sg18
F99
ssg19
F15
sg20
g21
sg22
(lp6438
S'steel'
p6439
aS'bug'
p6440
asg26
I649
sbsI650
(ipokeStructs
Pokemon_dex
p6441
(dp6442
g4
(lp6443
S'bulletproof'
p6444
aS'overgrow'
p6445
asg8
S'Chespin'
p6446
sg10
F0
sg11
(dp6447
g13
F48
sg14
F56
sg15
F45
sg16
F61
sg17
F65
sg18
F38
ssg19
F0
sg20
g21
sg22
(lp6448
S'grass'
p6449
asg26
I650
sbsI651
(ipokeStructs
Pokemon_dex
p6450
(dp6451
g4
(lp6452
S'bulletproof'
p6453
aS'overgrow'
p6454
asg8
S'Quilladin'
p6455
sg10
F0
sg11
(dp6456
g13
F56
sg14
F61
sg15
F58
sg16
F78
sg17
F95
sg18
F57
ssg19
F0
sg20
g21
sg22
(lp6457
S'grass'
p6458
asg26
I651
sbsI652
(ipokeStructs
Pokemon_dex
p6459
(dp6460
g4
(lp6461
S'bulletproof'
p6462
aS'overgrow'
p6463
asg8
S'Chesnaught'
p6464
sg10
F0
sg11
(dp6465
g13
F74
sg14
F88
sg15
F75
sg16
F107
sg17
F122
sg18
F64
ssg19
F0
sg20
g21
sg22
(lp6466
S'grass'
p6467
aS'fighting'
p6468
asg26
I652
sbsI653
(ipokeStructs
Pokemon_dex
p6469
(dp6470
g4
(lp6471
S'magician'
p6472
aS'blaze'
p6473
asg8
S'Fennekin'
p6474
sg10
F0
sg11
(dp6475
g13
F62
sg14
F40
sg15
F60
sg16
F45
sg17
F40
sg18
F60
ssg19
F0
sg20
g21
sg22
(lp6476
S'fire'
p6477
asg26
I653
sbsI654
(ipokeStructs
Pokemon_dex
p6478
(dp6479
g4
(lp6480
S'magician'
p6481
aS'blaze'
p6482
asg8
S'Braixen'
p6483
sg10
F0
sg11
(dp6484
g13
F90
sg14
F59
sg15
F70
sg16
F59
sg17
F58
sg18
F73
ssg19
F0
sg20
g21
sg22
(lp6485
S'fire'
p6486
asg26
I654
sbsI655
(ipokeStructs
Pokemon_dex
p6487
(dp6488
g4
(lp6489
S'magician'
p6490
aS'blaze'
p6491
asg8
S'Delphox'
p6492
sg10
F0
sg11
(dp6493
g13
F114
sg14
F75
sg15
F100
sg16
F69
sg17
F72
sg18
F104
ssg19
F0
sg20
g21
sg22
(lp6494
S'fire'
p6495
aS'psychic'
p6496
asg26
I655
sbsI656
(ipokeStructs
Pokemon_dex
p6497
(dp6498
g4
(lp6499
S'protean'
p6500
aS'torrent'
p6501
asg8
S'Froakie'
p6502
sg10
F0
sg11
(dp6503
g13
F62
sg14
F41
sg15
F44
sg16
F56
sg17
F41
sg18
F71
ssg19
F0
sg20
g21
sg22
(lp6504
S'water'
p6505
asg26
I656
sbsI657
(ipokeStructs
Pokemon_dex
p6506
(dp6507
g4
(lp6508
S'protean'
p6509
aS'torrent'
p6510
asg8
S'Frogadier'
p6511
sg10
F0
sg11
(dp6512
g13
F83
sg14
F54
sg15
F56
sg16
F63
sg17
F52
sg18
F97
ssg19
F0
sg20
g21
sg22
(lp6513
S'water'
p6514
asg26
I657
sbsI658
(ipokeStructs
Pokemon_dex
p6515
(dp6516
g4
(lp6517
S'protean'
p6518
aS'torrent'
p6519
asg8
S'Greninja'
p6520
sg10
F0
sg11
(dp6521
g13
F103
sg14
F72
sg15
F71
sg16
F95
sg17
F67
sg18
F122
ssg19
F0
sg20
g21
sg22
(lp6522
S'water'
p6523
aS'dark'
p6524
asg26
I658
sbsI659
(ipokeStructs
Pokemon_dex
p6525
(dp6526
g4
(lp6527
S'pickup'
p6528
aS'cheek-pouch'
p6529
aS'huge-power'
p6530
asg8
S'Bunnelby'
p6531
sg10
F0
sg11
(dp6532
g13
F32
sg14
F38
sg15
F36
sg16
F36
sg17
F38
sg18
F57
ssg19
F0
sg20
g21
sg22
(lp6533
S'normal'
p6534
asg26
I659
sbsI660
(ipokeStructs
Pokemon_dex
p6535
(dp6536
g4
(lp6537
S'pickup'
p6538
aS'cheek-pouch'
p6539
aS'huge-power'
p6540
asg8
S'Diggersby'
p6541
sg10
F0
sg11
(dp6542
g13
F50
sg14
F85
sg15
F77
sg16
F56
sg17
F77
sg18
F78
ssg19
F0
sg20
g21
sg22
(lp6543
S'ground'
p6544
aS'normal'
p6545
asg26
I660
sbsI661
(ipokeStructs
Pokemon_dex
p6546
(dp6547
g4
(lp6548
S'big-pecks'
p6549
aS'gale-wings'
p6550
asg8
S'Fletchling'
p6551
sg10
F0
sg11
(dp6552
g13
F40
sg14
F45
sg15
F38
sg16
F50
sg17
F43
sg18
F62
ssg19
F0
sg20
g21
sg22
(lp6553
S'flying'
p6554
aS'normal'
p6555
asg26
I661
sbsI662
(ipokeStructs
Pokemon_dex
p6556
(dp6557
g4
(lp6558
S'flame-body'
p6559
aS'gale-wings'
p6560
asg8
S'Fletchinder'
p6561
sg10
F0
sg11
(dp6562
g13
F56
sg14
F62
sg15
F52
sg16
F73
sg17
F55
sg18
F84
ssg19
F0
sg20
g21
sg22
(lp6563
S'fire'
p6564
aS'flying'
p6565
asg26
I662
sbsI663
(ipokeStructs
Pokemon_dex
p6566
(dp6567
g4
(lp6568
S'flame-body'
p6569
aS'gale-wings'
p6570
asg8
S'Talonflame'
p6571
sg10
F0
sg11
(dp6572
g13
F74
sg14
F78
sg15
F69
sg16
F81
sg17
F71
sg18
F126
ssg19
F0
sg20
g21
sg22
(lp6573
S'fire'
p6574
aS'flying'
p6575
asg26
I663
sbsI664
(ipokeStructs
Pokemon_dex
p6576
(dp6577
g4
(lp6578
S'friend-guard'
p6579
aS'shield-dust'
p6580
aS'compoundeyes'
p6581
asg8
S'Scatterbug'
p6582
sg10
F0
sg11
(dp6583
g13
F27
sg14
F38
sg15
F25
sg16
F35
sg17
F40
sg18
F35
ssg19
F0
sg20
g21
sg22
(lp6584
S'bug'
p6585
asg26
I664
sbsI665
(ipokeStructs
Pokemon_dex
p6586
(dp6587
g4
(lp6588
S'friend-guard'
p6589
aS'shed-skin'
p6590
asg8
S'Spewpa'
p6591
sg10
F0
sg11
(dp6592
g13
F27
sg14
F45
sg15
F30
sg16
F22
sg17
F60
sg18
F29
ssg19
F0
sg20
g21
sg22
(lp6593
S'bug'
p6594
asg26
I665
sbsI666
(ipokeStructs
Pokemon_dex
p6595
(dp6596
g4
(lp6597
S'friend-guard'
p6598
aS'shield-dust'
p6599
aS'compoundeyes'
p6600
asg8
S'Vivillon'
p6601
sg10
F0
sg11
(dp6602
g13
F90
sg14
F80
sg15
F50
sg16
F52
sg17
F50
sg18
F89
ssg19
F0
sg20
g21
sg22
(lp6603
S'flying'
p6604
aS'bug'
p6605
asg26
I666
sbsI667
(ipokeStructs
Pokemon_dex
p6606
(dp6607
g4
(lp6608
S'unnerve'
p6609
aS'moxie'
p6610
aS'rivalry'
p6611
asg8
S'Litleo'
p6612
sg10
F0
sg11
(dp6613
g13
F73
sg14
F62
sg15
F54
sg16
F50
sg17
F58
sg18
F72
ssg19
F0
sg20
g21
sg22
(lp6614
S'fire'
p6615
aS'normal'
p6616
asg26
I667
sbsI668
(ipokeStructs
Pokemon_dex
p6617
(dp6618
g4
(lp6619
S'unnerve'
p6620
aS'moxie'
p6621
aS'rivalry'
p6622
asg8
S'Pyroar'
p6623
sg10
F0
sg11
(dp6624
g13
F109
sg14
F86
sg15
F66
sg16
F68
sg17
F72
sg18
F106
ssg19
F0
sg20
g21
sg22
(lp6625
S'fire'
p6626
aS'normal'
p6627
asg26
I668
sbsI669
(ipokeStructs
Pokemon_dex
p6628
(dp6629
g4
(lp6630
S'flower-veil'
p6631
aS'symbiosis'
p6632
asg8
S'Flabebe'
p6633
sg10
F0
sg11
(dp6634
g13
F61
sg14
F44
sg15
F79
sg16
F38
sg17
F39
sg18
F42
ssg19
F0
sg20
g21
sg22
(lp6635
S'fairy'
p6636
asg26
I669
sbsI670
(ipokeStructs
Pokemon_dex
p6637
(dp6638
g4
(lp6639
S'flower-veil'
p6640
aS'symbiosis'
p6641
asg8
S'Floette'
p6642
sg10
F0
sg11
(dp6643
g13
F75
sg14
F54
sg15
F98
sg16
F45
sg17
F47
sg18
F52
ssg19
F0
sg20
g21
sg22
(lp6644
S'fairy'
p6645
asg26
I670
sbsI671
(ipokeStructs
Pokemon_dex
p6646
(dp6647
g4
(lp6648
S'flower-veil'
p6649
aS'symbiosis'
p6650
asg8
S'Florges'
p6651
sg10
F0
sg11
(dp6652
g13
F112
sg14
F78
sg15
F154
sg16
F65
sg17
F68
sg18
F75
ssg19
F0
sg20
g21
sg22
(lp6653
S'fairy'
p6654
asg26
I671
sbsI672
(ipokeStructs
Pokemon_dex
p6655
(dp6656
g4
(lp6657
S'grass-pelt'
p6658
aS'sap-sipper'
p6659
asg8
S'Skiddo'
p6660
sg10
F0
sg11
(dp6661
g13
F62
sg14
F66
sg15
F57
sg16
F65
sg17
F48
sg18
F52
ssg19
F0
sg20
g21
sg22
(lp6662
S'grass'
p6663
asg26
I672
sbsI673
(ipokeStructs
Pokemon_dex
p6664
(dp6665
g4
(lp6666
S'grass-pelt'
p6667
aS'sap-sipper'
p6668
asg8
S'Gogoat'
p6669
sg10
F0
sg11
(dp6670
g13
F97
sg14
F123
sg15
F81
sg16
F100
sg17
F62
sg18
F68
ssg19
F0
sg20
g21
sg22
(lp6671
S'grass'
p6672
asg26
I673
sbsI674
(ipokeStructs
Pokemon_dex
p6673
(dp6674
g4
(lp6675
S'iron-fist'
p6676
aS'scrappy'
p6677
aS'mold-breaker'
p6678
asg8
S'Pancham'
p6679
sg10
F0
sg11
(dp6680
g13
F46
sg14
F67
sg15
F48
sg16
F82
sg17
F62
sg18
F43
ssg19
F0
sg20
g21
sg22
(lp6681
S'fighting'
p6682
asg26
I674
sbsI675
(ipokeStructs
Pokemon_dex
p6683
(dp6684
g4
(lp6685
S'iron-fist'
p6686
aS'scrappy'
p6687
aS'mold-breaker'
p6688
asg8
S'Pangoro'
p6689
sg10
F0
sg11
(dp6690
g13
F69
sg14
F95
sg15
F71
sg16
F124
sg17
F78
sg18
F58
ssg19
F0
sg20
g21
sg22
(lp6691
S'dark'
p6692
aS'fighting'
p6693
asg26
I675
sbsI676
(ipokeStructs
Pokemon_dex
p6694
(dp6695
g4
(lp6696
S'fur-coat'
p6697
asg8
S'Furfrou'
p6698
sg10
F0
sg11
(dp6699
g13
F65
sg14
F75
sg15
F90
sg16
F80
sg17
F60
sg18
F102
ssg19
F0
sg20
g21
sg22
(lp6700
S'normal'
p6701
asg26
I676
sbsI677
(ipokeStructs
Pokemon_dex
p6702
(dp6703
g4
(lp6704
S'infiltrator'
p6705
aS'keen-eye'
p6706
aS'own-tempo'
p6707
asg8
S'Espurr'
p6708
sg10
F0
sg11
(dp6709
g13
F63
sg14
F62
sg15
F60
sg16
F48
sg17
F54
sg18
F68
ssg19
F0
sg20
g21
sg22
(lp6710
S'psychic'
p6711
asg26
I677
sbsI678
(ipokeStructs
Pokemon_dex
p6712
(dp6713
g4
(lp6714
S'infiltrator'
p6715
aS'keen-eye'
p6716
aS'prankster'
p6717
asg8
S'Meowstic-male'
p6718
sg10
F0
sg11
(dp6719
g13
F83
sg14
F74
sg15
F81
sg16
F48
sg17
F76
sg18
F104
ssg19
F0
sg20
g21
sg22
(lp6720
S'psychic'
p6721
asg26
I678
sbsI679
(ipokeStructs
Pokemon_dex
p6722
(dp6723
g4
(lp6724
S'no-guard'
p6725
asg8
S'Honedge'
p6726
sg10
F0
sg11
(dp6727
g13
F35
sg14
F45
sg15
F37
sg16
F80
sg17
F100
sg18
F28
ssg19
F0
sg20
g21
sg22
(lp6728
S'ghost'
p6729
aS'steel'
p6730
asg26
I679
sbsI680
(ipokeStructs
Pokemon_dex
p6731
(dp6732
g4
(lp6733
S'no-guard'
p6734
asg8
S'Doublade'
p6735
sg10
F0
sg11
(dp6736
g13
F45
sg14
F59
sg15
F49
sg16
F110
sg17
F150
sg18
F35
ssg19
F0
sg20
g21
sg22
(lp6737
S'ghost'
p6738
aS'steel'
p6739
asg26
I680
sbsI681
(ipokeStructs
Pokemon_dex
p6740
(dp6741
g4
(lp6742
S'stance-change'
p6743
asg8
S'Aegislash'
p6744
sg10
F0
sg11
(dp6745
g13
F50
sg14
F60
sg15
F150
sg16
F50
sg17
F150
sg18
F60
ssg19
F0
sg20
g21
sg22
(lp6746
S'ghost'
p6747
aS'steel'
p6748
asg26
I681
sbsI682
(ipokeStructs
Pokemon_dex
p6749
(dp6750
g4
(lp6751
S'healer'
p6752
aS'aroma-veil'
p6753
asg8
S'Spritzee'
p6754
sg10
F0
sg11
(dp6755
g13
F63
sg14
F78
sg15
F65
sg16
F52
sg17
F60
sg18
F23
ssg19
F0
sg20
g21
sg22
(lp6756
S'fairy'
p6757
asg26
I682
sbsI683
(ipokeStructs
Pokemon_dex
p6758
(dp6759
g4
(lp6760
S'healer'
p6761
aS'aroma-veil'
p6762
asg8
S'Aromatisse'
p6763
sg10
F0
sg11
(dp6764
g13
F99
sg14
F101
sg15
F89
sg16
F72
sg17
F72
sg18
F29
ssg19
F0
sg20
g21
sg22
(lp6765
S'fairy'
p6766
asg26
I683
sbsI684
(ipokeStructs
Pokemon_dex
p6767
(dp6768
g4
(lp6769
S'sweet-veil'
p6770
aS'unburden'
p6771
asg8
S'Swirlix'
p6772
sg10
F0
sg11
(dp6773
g13
F59
sg14
F62
sg15
F57
sg16
F48
sg17
F66
sg18
F49
ssg19
F0
sg20
g21
sg22
(lp6774
S'fairy'
p6775
asg26
I684
sbsI685
(ipokeStructs
Pokemon_dex
p6776
(dp6777
g4
(lp6778
S'sweet-veil'
p6779
aS'unburden'
p6780
asg8
S'Slurpuff'
p6781
sg10
F0
sg11
(dp6782
g13
F85
sg14
F82
sg15
F75
sg16
F80
sg17
F86
sg18
F72
ssg19
F0
sg20
g21
sg22
(lp6783
S'fairy'
p6784
asg26
I685
sbsI686
(ipokeStructs
Pokemon_dex
p6785
(dp6786
g4
(lp6787
S'infiltrator'
p6788
aS'contrary'
p6789
aS'suction-cups'
p6790
asg8
S'Inkay'
p6791
sg10
F0
sg11
(dp6792
g13
F37
sg14
F53
sg15
F46
sg16
F54
sg17
F53
sg18
F45
ssg19
F0
sg20
g21
sg22
(lp6793
S'dark'
p6794
aS'psychic'
p6795
asg26
I686
sbsI687
(ipokeStructs
Pokemon_dex
p6796
(dp6797
g4
(lp6798
S'infiltrator'
p6799
aS'contrary'
p6800
aS'suction-cups'
p6801
asg8
S'Malamar'
p6802
sg10
F0
sg11
(dp6803
g13
F68
sg14
F86
sg15
F75
sg16
F92
sg17
F88
sg18
F73
ssg19
F0
sg20
g21
sg22
(lp6804
S'dark'
p6805
aS'psychic'
p6806
asg26
I687
sbsI688
(ipokeStructs
Pokemon_dex
p6807
(dp6808
g4
(lp6809
S'tough-claws'
p6810
aS'pickpocket'
p6811
aS'sniper'
p6812
asg8
S'Binacle'
p6813
sg10
F0
sg11
(dp6814
g13
F39
sg14
F42
sg15
F56
sg16
F52
sg17
F67
sg18
F50
ssg19
F0
sg20
g21
sg22
(lp6815
S'water'
p6816
aS'rock'
p6817
asg26
I688
sbsI689
(ipokeStructs
Pokemon_dex
p6818
(dp6819
g4
(lp6820
S'tough-claws'
p6821
aS'pickpocket'
p6822
aS'sniper'
p6823
asg8
S'Barbaracle'
p6824
sg10
F0
sg11
(dp6825
g13
F54
sg14
F72
sg15
F86
sg16
F105
sg17
F115
sg18
F68
ssg19
F0
sg20
g21
sg22
(lp6826
S'water'
p6827
aS'rock'
p6828
asg26
I689
sbsI690
(ipokeStructs
Pokemon_dex
p6829
(dp6830
g4
(lp6831
S'poison-point'
p6832
aS'poison-touch'
p6833
aS'adaptability'
p6834
asg8
S'Skrelp'
p6835
sg10
F0
sg11
(dp6836
g13
F60
sg14
F50
sg15
F60
sg16
F60
sg17
F60
sg18
F30
ssg19
F0
sg20
g21
sg22
(lp6837
S'water'
p6838
aS'poison'
p6839
asg26
I690
sbsI691
(ipokeStructs
Pokemon_dex
p6840
(dp6841
g4
(lp6842
S'poison-point'
p6843
aS'poison-touch'
p6844
aS'adaptability'
p6845
asg8
S'Dragalge'
p6846
sg10
F0
sg11
(dp6847
g13
F97
sg14
F65
sg15
F123
sg16
F75
sg17
F90
sg18
F44
ssg19
F0
sg20
g21
sg22
(lp6848
S'poison'
p6849
aS'dragon'
p6850
asg26
I691
sbsI692
(ipokeStructs
Pokemon_dex
p6851
(dp6852
g4
(lp6853
S'mega-launcher'
p6854
asg8
S'Clauncher'
p6855
sg10
F0
sg11
(dp6856
g13
F58
sg14
F50
sg15
F63
sg16
F53
sg17
F62
sg18
F44
ssg19
F0
sg20
g21
sg22
(lp6857
S'water'
p6858
asg26
I692
sbsI693
(ipokeStructs
Pokemon_dex
p6859
(dp6860
g4
(lp6861
S'mega-launcher'
p6862
asg8
S'Clawitzer'
p6863
sg10
F0
sg11
(dp6864
g13
F120
sg14
F71
sg15
F89
sg16
F73
sg17
F88
sg18
F63
ssg19
F0
sg20
g21
sg22
(lp6865
S'water'
p6866
asg26
I693
sbsI694
(ipokeStructs
Pokemon_dex
p6867
(dp6868
g4
(lp6869
S'sand-veil'
p6870
aS'solar-power'
p6871
aS'dry-skin'
p6872
asg8
S'Helioptile'
p6873
sg10
F0
sg11
(dp6874
g13
F61
sg14
F44
sg15
F43
sg16
F38
sg17
F33
sg18
F70
ssg19
F0
sg20
g21
sg22
(lp6875
S'electric'
p6876
aS'normal'
p6877
asg26
I694
sbsI695
(ipokeStructs
Pokemon_dex
p6878
(dp6879
g4
(lp6880
S'sand-veil'
p6881
aS'solar-power'
p6882
aS'dry-skin'
p6883
asg8
S'Heliolisk'
p6884
sg10
F0
sg11
(dp6885
g13
F109
sg14
F62
sg15
F94
sg16
F55
sg17
F52
sg18
F109
ssg19
F0
sg20
g21
sg22
(lp6886
S'electric'
p6887
aS'normal'
p6888
asg26
I695
sbsI696
(ipokeStructs
Pokemon_dex
p6889
(dp6890
g4
(lp6891
S'strong-jaw'
p6892
aS'rock-head'
p6893
asg8
S'Tyrunt'
p6894
sg10
F0
sg11
(dp6895
g13
F45
sg14
F58
sg15
F45
sg16
F89
sg17
F77
sg18
F48
ssg19
F0
sg20
g21
sg22
(lp6896
S'dragon'
p6897
aS'rock'
p6898
asg26
I696
sbsI697
(ipokeStructs
Pokemon_dex
p6899
(dp6900
g4
(lp6901
S'strong-jaw'
p6902
aS'rock-head'
p6903
asg8
S'Tyrantrum'
p6904
sg10
F0
sg11
(dp6905
g13
F69
sg14
F82
sg15
F59
sg16
F121
sg17
F119
sg18
F71
ssg19
F0
sg20
g21
sg22
(lp6906
S'dragon'
p6907
aS'rock'
p6908
asg26
I697
sbsI698
(ipokeStructs
Pokemon_dex
p6909
(dp6910
g4
(lp6911
S'refrigerate'
p6912
aS'snow-warning'
p6913
asg8
S'Amaura'
p6914
sg10
F0
sg11
(dp6915
g13
F67
sg14
F77
sg15
F63
sg16
F59
sg17
F50
sg18
F46
ssg19
F0
sg20
g21
sg22
(lp6916
S'ice'
p6917
aS'rock'
p6918
asg26
I698
sbsI699
(ipokeStructs
Pokemon_dex
p6919
(dp6920
g4
(lp6921
S'refrigerate'
p6922
aS'snow-warning'
p6923
asg8
S'Aurorus'
p6924
sg10
F0
sg11
(dp6925
g13
F99
sg14
F123
sg15
F92
sg16
F77
sg17
F72
sg18
F58
ssg19
F0
sg20
g21
sg22
(lp6926
S'ice'
p6927
aS'rock'
p6928
asg26
I699
sbsI700
(ipokeStructs
Pokemon_dex
p6929
(dp6930
g4
(lp6931
S'pixilate'
p6932
aS'cute-charm'
p6933
asg8
S'Sylveon'
p6934
sg10
F0
sg11
(dp6935
g13
F110
sg14
F95
sg15
F130
sg16
F65
sg17
F65
sg18
F60
ssg19
F0
sg20
g21
sg22
(lp6936
S'fairy'
p6937
asg26
I700
sbsI701
(ipokeStructs
Pokemon_dex
p6938
(dp6939
g4
(lp6940
S'mold-breaker'
p6941
aS'unburden'
p6942
aS'limber'
p6943
asg8
S'Hawlucha'
p6944
sg10
F0
sg11
(dp6945
g13
F74
sg14
F78
sg15
F63
sg16
F92
sg17
F77
sg18
F118
ssg19
F0
sg20
g21
sg22
(lp6946
S'flying'
p6947
aS'fighting'
p6948
asg26
I701
sbsI702
(ipokeStructs
Pokemon_dex
p6949
(dp6950
g4
(lp6951
S'pickup'
p6952
aS'plus'
p6953
aS'cheek-pouch'
p6954
asg8
S'Dedenne'
p6955
sg10
F0
sg11
(dp6956
g13
F81
sg14
F67
sg15
F67
sg16
F58
sg17
F57
sg18
F101
ssg19
F0
sg20
g21
sg22
(lp6957
S'fairy'
p6958
aS'electric'
p6959
asg26
I702
sbsI703
(ipokeStructs
Pokemon_dex
p6960
(dp6961
g4
(lp6962
S'clear-body'
p6963
aS'sturdy'
p6964
asg8
S'Carbink'
p6965
sg10
F0
sg11
(dp6966
g13
F50
sg14
F50
sg15
F150
sg16
F50
sg17
F150
sg18
F50
ssg19
F0
sg20
g21
sg22
(lp6967
S'fairy'
p6968
aS'rock'
p6969
asg26
I703
sbsI704
(ipokeStructs
Pokemon_dex
p6970
(dp6971
g4
(lp6972
S'hydration'
p6973
aS'gooey'
p6974
aS'sap-sipper'
p6975
asg8
S'Goomy'
p6976
sg10
F0
sg11
(dp6977
g13
F55
sg14
F45
sg15
F75
sg16
F50
sg17
F35
sg18
F40
ssg19
F0
sg20
g21
sg22
(lp6978
S'dragon'
p6979
asg26
I704
sbsI705
(ipokeStructs
Pokemon_dex
p6980
(dp6981
g4
(lp6982
S'hydration'
p6983
aS'gooey'
p6984
aS'sap-sipper'
p6985
asg8
S'Sliggoo'
p6986
sg10
F0
sg11
(dp6987
g13
F83
sg14
F68
sg15
F113
sg16
F75
sg17
F53
sg18
F60
ssg19
F0
sg20
g21
sg22
(lp6988
S'dragon'
p6989
asg26
I705
sbsI706
(ipokeStructs
Pokemon_dex
p6990
(dp6991
g4
(lp6992
S'hydration'
p6993
aS'gooey'
p6994
aS'sap-sipper'
p6995
asg8
S'Goodra'
p6996
sg10
F0
sg11
(dp6997
g13
F110
sg14
F90
sg15
F150
sg16
F100
sg17
F70
sg18
F80
ssg19
F0
sg20
g21
sg22
(lp6998
S'dragon'
p6999
asg26
I706
sbsI707
(ipokeStructs
Pokemon_dex
p7000
(dp7001
g4
(lp7002
S'magician'
p7003
aS'prankster'
p7004
asg8
S'Klefki'
p7005
sg10
F0
sg11
(dp7006
g13
F81
sg14
F58
sg15
F87
sg16
F81
sg17
F91
sg18
F76
ssg19
F0
sg20
g21
sg22
(lp7007
S'steel'
p7008
aS'fairy'
p7009
asg26
I707
sbsI708
(ipokeStructs
Pokemon_dex
p7010
(dp7011
g4
(lp7012
S'harvest'
p7013
aS'frisk'
p7014
aS'natural-cure'
p7015
asg8
S'Phantump'
p7016
sg10
F0
sg11
(dp7017
g13
F50
sg14
F43
sg15
F60
sg16
F70
sg17
F48
sg18
F38
ssg19
F0
sg20
g21
sg22
(lp7018
S'ghost'
p7019
aS'grass'
p7020
asg26
I708
sbsI709
(ipokeStructs
Pokemon_dex
p7021
(dp7022
g4
(lp7023
S'harvest'
p7024
aS'frisk'
p7025
aS'natural-cure'
p7026
asg8
S'Trevenant'
p7027
sg10
F0
sg11
(dp7028
g13
F65
sg14
F85
sg15
F82
sg16
F110
sg17
F76
sg18
F56
ssg19
F0
sg20
g21
sg22
(lp7029
S'ghost'
p7030
aS'grass'
p7031
asg26
I709
sbsI710
(ipokeStructs
Pokemon_dex
p7032
(dp7033
g4
(lp7034
S'pickup'
p7035
aS'insomnia'
p7036
aS'frisk'
p7037
asg8
S'Pumpkaboo-average'
p7038
sg10
F0
sg11
(dp7039
g13
F44
sg14
F49
sg15
F55
sg16
F66
sg17
F70
sg18
F51
ssg19
F0
sg20
g21
sg22
(lp7040
S'ghost'
p7041
aS'grass'
p7042
asg26
I710
sbsI711
(ipokeStructs
Pokemon_dex
p7043
(dp7044
g4
(lp7045
S'pickup'
p7046
aS'insomnia'
p7047
aS'frisk'
p7048
asg8
S'Gourgeist-average'
p7049
sg10
F0
sg11
(dp7050
g13
F58
sg14
F65
sg15
F75
sg16
F90
sg17
F122
sg18
F84
ssg19
F0
sg20
g21
sg22
(lp7051
S'ghost'
p7052
aS'grass'
p7053
asg26
I711
sbsI712
(ipokeStructs
Pokemon_dex
p7054
(dp7055
g4
(lp7056
S'own-tempo'
p7057
aS'ice-body'
p7058
aS'sturdy'
p7059
asg8
S'Bergmite'
p7060
sg10
F0
sg11
(dp7061
g13
F32
sg14
F56
sg15
F36
sg16
F69
sg17
F86
sg18
F28
ssg19
F0
sg20
g21
sg22
(lp7062
S'ice'
p7063
asg26
I712
sbsI713
(ipokeStructs
Pokemon_dex
p7064
(dp7065
g4
(lp7066
S'own-tempo'
p7067
aS'ice-body'
p7068
aS'sturdy'
p7069
asg8
S'Avalugg'
p7070
sg10
F0
sg11
(dp7071
g13
F44
sg14
F95
sg15
F46
sg16
F117
sg17
F184
sg18
F28
ssg19
F0
sg20
g21
sg22
(lp7072
S'ice'
p7073
asg26
I713
sbsI714
(ipokeStructs
Pokemon_dex
p7074
(dp7075
g4
(lp7076
S'infiltrator'
p7077
aS'frisk'
p7078
aS'telepathy'
p7079
asg8
S'Noibat'
p7080
sg10
F0
sg11
(dp7081
g13
F45
sg14
F40
sg15
F40
sg16
F30
sg17
F35
sg18
F55
ssg19
F0
sg20
g21
sg22
(lp7082
S'flying'
p7083
aS'dragon'
p7084
asg26
I714
sbsI715
(ipokeStructs
Pokemon_dex
p7085
(dp7086
g4
(lp7087
S'infiltrator'
p7088
aS'frisk'
p7089
aS'telepathy'
p7090
asg8
S'Noivern'
p7091
sg10
F0
sg11
(dp7092
g13
F97
sg14
F85
sg15
F80
sg16
F70
sg17
F80
sg18
F123
ssg19
F0
sg20
g21
sg22
(lp7093
S'flying'
p7094
aS'dragon'
p7095
asg26
I715
sbsI716
(ipokeStructs
Pokemon_dex
p7096
(dp7097
g4
(lp7098
S'fairy-aura'
p7099
asg8
S'Xerneas'
p7100
sg10
F0
sg11
(dp7101
g13
F131
sg14
F126
sg15
F98
sg16
F131
sg17
F95
sg18
F99
ssg19
F0
sg20
g21
sg22
(lp7102
S'fairy'
p7103
asg26
I716
sbsI717
(ipokeStructs
Pokemon_dex
p7104
(dp7105
g4
(lp7106
S'dark-aura'
p7107
asg8
S'Yveltal'
p7108
sg10
F0
sg11
(dp7109
g13
F131
sg14
F126
sg15
F98
sg16
F131
sg17
F95
sg18
F99
ssg19
F0
sg20
g21
sg22
(lp7110
S'dark'
p7111
aS'flying'
p7112
asg26
I717
sbsI718
(ipokeStructs
Pokemon_dex
p7113
(dp7114
g4
(lp7115
S'aura-break'
p7116
asg8
S'Zygarde'
p7117
sg10
F0
sg11
(dp7118
g13
F81
sg14
F108
sg15
F95
sg16
F100
sg17
F121
sg18
F95
ssg19
F0
sg20
g21
sg22
(lp7119
S'dragon'
p7120
aS'ground'
p7121
asg26
I718
sbs.